
scummvm.wasm:	file format wasm 0x1

Section Details:

Export[29403]:
 - func[144] <__wasm_call_ctors> -> "__wasm_call_ctors"
 - func[145] <__wasm_apply_data_relocs> -> "__wasm_apply_data_relocs"
 - func[147] <_Z28g_ACCESS_DETECTION_getObjectv> -> "_Z28g_ACCESS_DETECTION_getObjectv"
 - func[23782] <_Znwm> -> "_Znwm"
 - func[1549] <_ZN27AdvancedMetaEngineDetectionC2EPKvjPK19PlainGameDescriptor> -> "_ZN27AdvancedMetaEngineDetectionC2EPKvjPK19PlainGameDescriptor"
 - global[3610] -> "_ZTV25AccessMetaEngineDetection"
 - func[148] <_ZN27AdvancedMetaEngineDetectionD2Ev> -> "_ZN27AdvancedMetaEngineDetectionD2Ev"
 - global[3611] -> "_ZTV27AdvancedMetaEngineDetection"
 - func[11665] <_ZN6Common10BaseStringIcED1Ev> -> "_ZN6Common10BaseStringIcED2Ev"
 - func[12071] <_ZN6Common10MemoryPool9freeChunkEPv> -> "_ZN6Common10MemoryPool9freeChunkEPv"
 - func[23789] <_ZdaPv> -> "_ZdaPv"
 - func[12066] <_ZN6Common10MemoryPoolD1Ev> -> "_ZN6Common10MemoryPoolD2Ev"
 - func[149] <_ZN25AccessMetaEngineDetectionD0Ev> -> "_ZN25AccessMetaEngineDetectionD0Ev"
 - func[23786] <_ZdlPv> -> "_ZdlPv"
 - func[150] <_ZNK25AccessMetaEngineDetection7getNameEv> -> "_ZNK25AccessMetaEngineDetection7getNameEv"
 - func[151] <_ZNK25AccessMetaEngineDetection13getEngineNameEv> -> "_ZNK25AccessMetaEngineDetection13getEngineNameEv"
 - func[152] <_ZNK25AccessMetaEngineDetection20getOriginalCopyrightEv> -> "_ZNK25AccessMetaEngineDetection20getOriginalCopyrightEv"
 - func[153] <_ZNK27AdvancedMetaEngineDetection11getMD5BytesEv> -> "_ZNK27AdvancedMetaEngineDetection11getMD5BytesEv"
 - func[154] <_ZNK19MetaEngineDetection27parseAndCustomizeGuiOptionsERKN6Common6StringES3_> -> "_ZNK19MetaEngineDetection27parseAndCustomizeGuiOptionsERKN6Common6StringES3_"
 - func[11992] <_ZN6Common19parseGameGUIOptionsERKNS_6StringE> -> "_ZN6Common19parseGameGUIOptionsERKNS_6StringE"
 - func[155] <_ZNK25AccessMetaEngineDetection16getDebugChannelsEv> -> "_ZNK25AccessMetaEngineDetection16getDebugChannelsEv"
 - func[156] <_ZNK27AdvancedMetaEngineDetection14fallbackDetectERKN6Common7HashMapINS0_6StringENS0_6FSNodeENS0_15IgnoreCase_HashENS0_18IgnoreCase_EqualToEEERKNS0_6FSListEPP23ADDetectedGameExtraInfo> -> "_ZNK27AdvancedMetaEngineDetection14fallbackDetectERKN6Common7HashMapINS0_6StringENS0_6FSNodeENS0_15IgnoreCase_HashENS0_18IgnoreCase_EqualToEEERKNS0_6FSListEPP23ADDetectedGameExtraInfo"
 - func[12065] <_ZN6Common10MemoryPoolC1Em> -> "_ZN6Common10MemoryPoolC2Em"
 - func[12069] <_ZN6Common10MemoryPool13addPageToPoolERKNS0_4PageE> -> "_ZN6Common10MemoryPool13addPageToPoolERKNS0_4PageE"
 - func[23784] <_Znam> -> "_Znam"
 - func[157] <_ZNK27AdvancedMetaEngineDetection22canPlayUnknownVariantsEv> -> "_ZNK27AdvancedMetaEngineDetection22canPlayUnknownVariantsEv"
 - global[3612] -> "g_ACCESS_DETECTION_type"
 - global[3613] -> "_ZTI25AccessMetaEngineDetection"
 - func[1547] <_ZNK27AdvancedMetaEngineDetection17getSupportedGamesEv> -> "_ZNK27AdvancedMetaEngineDetection17getSupportedGamesEv"
 - func[1548] <_ZNK27AdvancedMetaEngineDetection8findGameEPKc> -> "_ZNK27AdvancedMetaEngineDetection8findGameEPKc"
 - func[1525] <_ZN27AdvancedMetaEngineDetection11detectGamesERKN6Common6FSListEjb> -> "_ZN27AdvancedMetaEngineDetection11detectGamesERKN6Common6FSListEjb"
 - func[1545] <_ZN27AdvancedMetaEngineDetection10detectGameERKN6Common6FSNodeERKNS0_7HashMapINS0_6StringES1_NS0_15IgnoreCase_HashENS0_18IgnoreCase_EqualToEEENS0_8LanguageENS0_8PlatformERKS5_jb> -> "_ZN27AdvancedMetaEngineDetection10detectGameERKN6Common6FSNodeERKNS0_7HashMapINS0_6StringES1_NS0_15IgnoreCase_HashENS0_18IgnoreCase_EqualToEEENS0_8LanguageENS0_8PlatformERKS5_jb"
 - func[1520] <_ZNK27AdvancedMetaEngineDetection14toDetectedGameERK14ADDetectedGameP23ADDetectedGameExtraInfo> -> "_ZNK27AdvancedMetaEngineDetection14toDetectedGameERK14ADDetectedGameP23ADDetectedGameExtraInfo"
 - global[3614] -> "_ZTS25AccessMetaEngineDetection"
 - global[3615] -> "_ZTVN10__cxxabiv120__si_class_type_infoE"
 - global[3616] -> "_ZTI27AdvancedMetaEngineDetection"
 - func[158] <_ZNK3Adl22AdlMetaEngineDetection12addFilePropsERKN6Common7HashMapINS1_6StringENS1_6FSNodeENS1_15IgnoreCase_HashENS1_18IgnoreCase_EqualToEEES3_RNS2_IS3_14FilePropertiesS5_S6_EE> -> "_ZNK3Adl22AdlMetaEngineDetection12addFilePropsERKN6Common7HashMapINS1_6StringENS1_6FSNodeENS1_15IgnoreCase_HashENS1_18IgnoreCase_EqualToEEES3_RNS2_IS3_14FilePropertiesS5_S6_EE"
 - func[11996] <_ZN6Common12hashit_lowerEPKc> -> "_ZN6Common12hashit_lowerEPKc"
 - func[12247] <_ZNK6Common6String16equalsIgnoreCaseERKS0_> -> "_ZNK6Common6String16equalsIgnoreCaseERKS0_"
 - func[159] <_ZNK6Common7HashMapINS_6StringENS_6FSNodeENS_15IgnoreCase_HashENS_18IgnoreCase_EqualToEE6getValERKS1_> -> "_ZNK6Common7HashMapINS_6StringENS_6FSNodeENS_15IgnoreCase_HashENS_18IgnoreCase_EqualToEE6getValERKS1_"
 - func[187] <_ZN3Adl10computeMD5ERKN6Common6FSNodeERNS0_6StringEj> -> "_ZN3Adl10computeMD5ERKN6Common6FSNodeERNS0_6StringEj"
 - func[11870] <_Z6debugCijPKcz> -> "_Z6debugCijPKcz"
 - func[160] <_ZN6Common7HashMapINS_6StringE14FilePropertiesNS_15IgnoreCase_HashENS_18IgnoreCase_EqualToEE24lookupAndCreateIfMissingERKS1_> -> "_ZN6Common7HashMapINS_6StringE14FilePropertiesNS_15IgnoreCase_HashENS_18IgnoreCase_EqualToEE24lookupAndCreateIfMissingERKS1_"
 - func[12202] <_ZN6Common6StringaSERKS0_> -> "_ZN6Common6StringaSERKS0_"
 - func[161] <_ZN3Adl22AdlMetaEngineDetection10detectGameERKN6Common6FSNodeERKNS1_7HashMapINS1_6StringES2_NS1_15IgnoreCase_HashENS1_18IgnoreCase_EqualToEEENS1_8LanguageENS1_8PlatformERKS6_jb> -> "_ZN3Adl22AdlMetaEngineDetection10detectGameERKN6Common6FSNodeERKNS1_7HashMapINS1_6StringES2_NS1_15IgnoreCase_HashENS1_18IgnoreCase_EqualToEEENS1_8LanguageENS1_8PlatformERKS6_jb"
 - func[11964] <_ZNK6Common6FSNode7getPathEv> -> "_ZNK6Common6FSNode7getPathEv"
 - func[12246] <_ZN6CommonneEPKcRKNS_6StringE> -> "_ZN6CommonneEPKcRKNS_6StringE"
 - func[11609] <_ZN6Common10BaseStringIcEC1EPKc> -> "_ZN6Common10BaseStringIcEC2EPKc"
 - func[12204] <_ZN6Common6StringpLEPKc> -> "_ZN6Common6StringpLEPKc"
 - func[11606] <_ZN6Common10BaseStringIcEC1ERKS1_> -> "_ZN6Common10BaseStringIcEC2ERKS1_"
 - func[12419] <_Z7warningPKcz> -> "_Z7warningPKcz"
 - func[162] <_ZN6Common7HashMapINS_6StringE14FilePropertiesNS_15IgnoreCase_HashENS_18IgnoreCase_EqualToEE5eraseERKS1_> -> "_ZN6Common7HashMapINS_6StringE14FilePropertiesNS_15IgnoreCase_HashENS_18IgnoreCase_EqualToEE5eraseERKS1_"
 - func[12125] <_ZN6Common22getPlatformDescriptionENS_8PlatformE> -> "_ZN6Common22getPlatformDescriptionENS_8PlatformE"
 - func[12014] <_ZN6Common22getLanguageDescriptionENS_8LanguageE> -> "_ZN6Common22getLanguageDescriptionENS_8LanguageE"
 - func[19680] <strcmp> -> "strcmp"
 - func[163] <_ZN6Common7HashMapINS_6StringE14FilePropertiesNS_15IgnoreCase_HashENS_18IgnoreCase_EqualToEED2Ev> -> "_ZN6Common7HashMapINS_6StringE14FilePropertiesNS_15IgnoreCase_HashENS_18IgnoreCase_EqualToEED2Ev"
 - func[164] <_ZN6Common5ArrayI14ADDetectedGameE9push_backERKS1_> -> "_ZN6Common5ArrayI14ADDetectedGameE9push_backERKS1_"
 - func[165] <_ZN6Common6StringC2ERKS0_> -> "_ZN6Common6StringC2ERKS0_"
 - func[166] <_ZN6Common7HashMapINS_6StringE14FilePropertiesNS_15IgnoreCase_HashENS_18IgnoreCase_EqualToEE6assignERKS5_> -> "_ZN6Common7HashMapINS_6StringE14FilePropertiesNS_15IgnoreCase_HashENS_18IgnoreCase_EqualToEE6assignERKS5_"
 - func[167] <_ZN6Common5ArrayI14ADDetectedGameE10insert_auxEPS1_PKS1_S5_> -> "_ZN6Common5ArrayI14ADDetectedGameE10insert_auxEPS1_PKS1_S5_"
 - func[168] <_Z25g_ADL_DETECTION_getObjectv> -> "_Z25g_ADL_DETECTION_getObjectv"
 - global[3617] -> "_ZTVN3Adl22AdlMetaEngineDetectionE"
 - func[169] <_ZN3Adl22AdlMetaEngineDetectionD0Ev> -> "_ZN3Adl22AdlMetaEngineDetectionD0Ev"
 - func[170] <_ZNK3Adl22AdlMetaEngineDetection7getNameEv> -> "_ZNK3Adl22AdlMetaEngineDetection7getNameEv"
 - func[171] <_ZNK3Adl22AdlMetaEngineDetection13getEngineNameEv> -> "_ZNK3Adl22AdlMetaEngineDetection13getEngineNameEv"
 - func[172] <_ZNK3Adl22AdlMetaEngineDetection20getOriginalCopyrightEv> -> "_ZNK3Adl22AdlMetaEngineDetection20getOriginalCopyrightEv"
 - func[173] <_ZNK3Adl22AdlMetaEngineDetection16getDebugChannelsEv> -> "_ZNK3Adl22AdlMetaEngineDetection16getDebugChannelsEv"
 - func[11997] <_ZN6Common15unknownKeyErrorINS_6StringEEEvT_> -> "_ZN6Common15unknownKeyErrorINS_6StringEEEvT_"
 - func[12070] <_ZN6Common10MemoryPool10allocChunkEv> -> "_ZN6Common10MemoryPool10allocChunkEv"
 - func[174] <_ZN6Common7HashMapINS_6StringE14FilePropertiesNS_15IgnoreCase_HashENS_18IgnoreCase_EqualToEE13expandStorageEj> -> "_ZN6Common7HashMapINS_6StringE14FilePropertiesNS_15IgnoreCase_HashENS_18IgnoreCase_EqualToEE13expandStorageEj"
 - func[18594] <memset> -> "memset"
 - func[19947] <__libc_malloc> -> "malloc"
 - func[12420] <_Z5errorPKcz> -> "_Z5errorPKcz"
 - func[19948] <emscripten_builtin_free> -> "free"
 - func[175] <_ZN6Common7HashMapINS_6StringE14FilePropertiesNS_15IgnoreCase_HashENS_18IgnoreCase_EqualToEEaSERKS5_> -> "_ZN6Common7HashMapINS_6StringE14FilePropertiesNS_15IgnoreCase_HashENS_18IgnoreCase_EqualToEEaSERKS5_"
 - func[12073] <_ZN6Common10MemoryPool15freeUnusedPagesEv> -> "_ZN6Common10MemoryPool15freeUnusedPagesEv"
 - global[3618] -> "g_ADL_DETECTION_type"
 - global[3619] -> "_ZTIN3Adl22AdlMetaEngineDetectionE"
 - global[3620] -> "_ZTSN3Adl22AdlMetaEngineDetectionE"
 - func[176] <_ZNK3Adl12DataBlock_PC4readERN6Common18SeekableReadStreamEPhj> -> "_ZNK3Adl12DataBlock_PC4readERN6Common18SeekableReadStreamEPhj"
 - func[177] <_ZNK3Adl12DataBlock_PC16createReadStreamEv> -> "_ZNK3Adl12DataBlock_PC16createReadStreamEv"
 - func[178] <_ZNK3Adl9DiskImage16createReadStreamEjjjjj> -> "_ZNK3Adl9DiskImage16createReadStreamEjjjjj"
 - global[3621] -> "_ZTTN6Common16MemoryReadStreamE"
 - global[3622] -> "_ZTVN6Common16MemoryReadStreamE"
 - func[179] <_ZN3Adl9DiskImage4openERKN6Common6StringE> -> "_ZN3Adl9DiskImage4openERKN6Common6StringE"
 - func[11909] <_ZN6Common4FileC1Ev> -> "_ZN6Common4FileC1Ev"
 - func[11867] <_Z5debugiPKcz> -> "_Z5debugiPKcz"
 - func[12100] <_ZN6Common4PathC2ERKNS_6StringEc> -> "_ZN6Common4PathC1ERKNS_6StringEc"
 - func[11660] <_ZN6Common10BaseStringIcE11toLowercaseEv> -> "_ZN6Common10BaseStringIcE11toLowercaseEv"
 - func[12212] <_ZNK6Common6String9hasSuffixEPKc> -> "_ZNK6Common6String9hasSuffixEPKc"
 - func[19970] <__libc_calloc> -> "calloc"
 - func[11869] <_Z6debugNiPKcz> -> "_Z6debugNiPKcz"
 - func[12266] <_ZN6Common10tag2stringEjb> -> "_ZN6Common10tag2stringEjb"
 - func[186] <_ZNK3Adl9DiskImage12getDataBlockEjjjj> -> "_ZNK3Adl9DiskImage12getDataBlockEjjjj"
 - global[3623] -> "_ZTVN3Adl9DiskImage9DataBlockE"
 - global[3624] -> "_ZTVN6Common18BasePtrTrackerImplIN3Adl9DiskImage9DataBlockEEE"
 - func[11917] <_ZN6Common4File4openERKNS_6FSNodeE> -> "_ZN6Common4File4openERKNS_6FSNodeE"
 - func[12220] <_ZNK6Common6String11matchStringEPKcbS2_> -> "_ZNK6Common6String11matchStringEPKcbS2_"
 - func[25974] <_ZNK6Common4File4sizeEv> -> "_ZNK6Common4File4sizeEv"
 - func[25975] <_ZN6Common4File4seekExi> -> "_ZN6Common4File4seekExi"
 - func[12076] <_ZN6Common24computeStreamMD5AsStringERNS_10ReadStreamEj> -> "_ZN6Common24computeStreamMD5AsStringERNS_10ReadStreamEj"
 - func[12200] <_ZN6Common6StringaSEOS0_> -> "_ZN6Common6StringaSEOS0_"
 - func[11911] <_ZN6Common4FileD1Ev> -> "_ZN6Common4FileD1Ev"
 - func[188] <_ZNK3Adl11Files_Plain12getDataBlockERKN6Common6StringEj> -> "_ZNK3Adl11Files_Plain12getDataBlockERKN6Common6StringEj"
 - global[3625] -> "_ZTVN3Adl5Files9DataBlockE"
 - global[3626] -> "_ZTVN6Common18BasePtrTrackerImplIN3Adl5Files9DataBlockEEE"
 - func[189] <_ZNK3Adl11Files_Plain16createReadStreamERKN6Common6StringEj> -> "_ZNK3Adl11Files_Plain16createReadStreamERKN6Common6StringEj"
 - func[12293] <_ZN6Common21SeekableSubReadStreamC1EPNS_18SeekableReadStreamEjjN15DisposeAfterUse4FlagE> -> "_ZN6Common21SeekableSubReadStreamC1EPNS_18SeekableReadStreamEjjN15DisposeAfterUse4FlagE"
 - func[190] <_ZN3Adl14Files_AppleDOSD1Ev> -> "_ZN3Adl14Files_AppleDOSD2Ev"
 - global[3627] -> "_ZTVN3Adl14Files_AppleDOSE"
 - func[191] <_ZN6Common7HashMapINS_6StringEN3Adl14Files_AppleDOS8TOCEntryENS_4HashIS1_EENS_7EqualToIS1_EEED2Ev> -> "_ZN6Common7HashMapINS_6StringEN3Adl14Files_AppleDOS8TOCEntryENS_4HashIS1_EENS_7EqualToIS1_EEED2Ev"
 - func[192] <_ZN3Adl14Files_AppleDOSD0Ev> -> "_ZN3Adl14Files_AppleDOSD0Ev"
 - func[190] <_ZN3Adl14Files_AppleDOSD1Ev> -> "_ZN3Adl14Files_AppleDOSD1Ev"
 - func[193] <_ZN3Adl14Files_AppleDOSC1Ev> -> "_ZN3Adl14Files_AppleDOSC2Ev"
 - func[194] <_ZN3Adl14Files_AppleDOS14readSectorListENS0_11TrackSectorERN6Common5ArrayIS1_EE> -> "_ZN3Adl14Files_AppleDOS14readSectorListENS0_11TrackSectorERN6Common5ArrayIS1_EE"
 - func[195] <_ZN6Common5ArrayIN3Adl14Files_AppleDOS11TrackSectorEE10insert_auxEPS3_PKS3_S7_> -> "_ZN6Common5ArrayIN3Adl14Files_AppleDOS11TrackSectorEE10insert_auxEPS3_PKS3_S7_"
 - func[196] <_ZN3Adl14Files_AppleDOS8readVTOCEv> -> "_ZN3Adl14Files_AppleDOS8readVTOCEv"
 - func[197] <_ZN6Common7HashMapINS_6StringEN3Adl14Files_AppleDOS8TOCEntryENS_4HashIS1_EENS_7EqualToIS1_EEE24lookupAndCreateIfMissingERKS1_> -> "_ZN6Common7HashMapINS_6StringEN3Adl14Files_AppleDOS8TOCEntryENS_4HashIS1_EENS_7EqualToIS1_EEE24lookupAndCreateIfMissingERKS1_"
 - func[198] <_ZNK3Adl14Files_AppleDOS12getDataBlockERKN6Common6StringEj> -> "_ZNK3Adl14Files_AppleDOS12getDataBlockERKN6Common6StringEj"
 - func[199] <_ZNK3Adl14Files_AppleDOS20createReadStreamTextERKNS0_8TOCEntryE> -> "_ZNK3Adl14Files_AppleDOS20createReadStreamTextERKNS0_8TOCEntryE"
 - func[200] <_ZNK3Adl14Files_AppleDOS22createReadStreamBinaryERKNS0_8TOCEntryE> -> "_ZNK3Adl14Files_AppleDOS22createReadStreamBinaryERKNS0_8TOCEntryE"
 - func[201] <_ZNK3Adl14Files_AppleDOS16createReadStreamERKN6Common6StringEj> -> "_ZNK3Adl14Files_AppleDOS16createReadStreamERKN6Common6StringEj"
 - func[11663] <_ZNK6Common10BaseStringIcE4hashEv> -> "_ZNK6Common10BaseStringIcE4hashEv"
 - func[11613] <_ZNK6Common10BaseStringIcEeqERKS1_> -> "_ZNK6Common10BaseStringIcEeqERKS1_"
 - func[202] <_ZNK6Common7HashMapINS_6StringEN3Adl14Files_AppleDOS8TOCEntryENS_4HashIS1_EENS_7EqualToIS1_EEE6getValERKS1_> -> "_ZNK6Common7HashMapINS_6StringEN3Adl14Files_AppleDOS8TOCEntryENS_4HashIS1_EENS_7EqualToIS1_EEE6getValERKS1_"
 - func[203] <_ZN3Adl14Files_AppleDOS4openERKN6Common6StringE> -> "_ZN3Adl14Files_AppleDOS4openERKN6Common6StringE"
 - func[204] <_ZN3Adl12DataBlock_PCD0Ev> -> "_ZN3Adl12DataBlock_PCD0Ev"
 - func[205] <_ZN3Adl5FilesD2Ev> -> "_ZN3Adl5FilesD2Ev"
 - func[206] <_ZN3Adl11Files_PlainD0Ev> -> "_ZN3Adl11Files_PlainD0Ev"
 - func[207] <_ZNK3Adl11Files_Plain6existsERKN6Common6StringE> -> "_ZNK3Adl11Files_Plain6existsERKN6Common6StringE"
 - func[11919] <_ZN6Common4File6existsERKNS_4PathE> -> "_ZN6Common4File6existsERKNS_4PathE"
 - func[208] <_ZNK3Adl14Files_AppleDOS6existsERKN6Common6StringE> -> "_ZNK3Adl14Files_AppleDOS6existsERKN6Common6StringE"
 - func[209] <_ZN6Common6StreamD2Ev> -> "_ZN6Common6StreamD2Ev"
 - func[210] <_ZN6Common6StreamD0Ev> -> "_ZN6Common6StreamD0Ev"
 - func[211] <_ZNK6Common6Stream3errEv> -> "_ZNK6Common6Stream3errEv"
 - func[212] <_ZN6Common6Stream8clearErrEv> -> "_ZN6Common6Stream8clearErrEv"
 - func[18592] <emscripten_builtin_memcpy> -> "memcpy"
 - func[214] <_ZN3Adl9DataBlockD2Ev> -> "_ZN3Adl9DataBlockD2Ev"
 - func[215] <_ZN3Adl9DiskImage9DataBlockD0Ev> -> "_ZN3Adl9DiskImage9DataBlockD0Ev"
 - func[216] <_ZNK3Adl9DiskImage9DataBlock16createReadStreamEv> -> "_ZNK3Adl9DiskImage9DataBlock16createReadStreamEv"
 - func[217] <_ZN3Adl5Files9DataBlockD2Ev> -> "_ZN3Adl5Files9DataBlockD2Ev"
 - func[218] <_ZN3Adl5Files9DataBlockD0Ev> -> "_ZN3Adl5Files9DataBlockD0Ev"
 - func[219] <_ZNK3Adl5Files9DataBlock16createReadStreamEv> -> "_ZNK3Adl5Files9DataBlock16createReadStreamEv"
 - func[220] <_ZN6Common18BasePtrTrackerImplIN3Adl9DiskImage9DataBlockEED0Ev> -> "_ZN6Common18BasePtrTrackerImplIN3Adl9DiskImage9DataBlockEED0Ev"
 - func[221] <_ZN6Common18BasePtrTrackerImplIN3Adl9DiskImage9DataBlockEE14destructObjectEv> -> "_ZN6Common18BasePtrTrackerImplIN3Adl9DiskImage9DataBlockEE14destructObjectEv"
 - func[222] <_ZN6Common22BasePtrTrackerInternalD0Ev> -> "_ZN6Common22BasePtrTrackerInternalD0Ev"
 - func[223] <_ZN6Common22BasePtrTrackerInternalD2Ev> -> "_ZN6Common22BasePtrTrackerInternalD2Ev"
 - func[224] <_ZN6Common18BasePtrTrackerImplIN3Adl5Files9DataBlockEED0Ev> -> "_ZN6Common18BasePtrTrackerImplIN3Adl5Files9DataBlockEED0Ev"
 - func[225] <_ZN6Common18BasePtrTrackerImplIN3Adl5Files9DataBlockEE14destructObjectEv> -> "_ZN6Common18BasePtrTrackerImplIN3Adl5Files9DataBlockEE14destructObjectEv"
 - func[226] <_ZN6Common7HashMapINS_6StringEN3Adl14Files_AppleDOS8TOCEntryENS_4HashIS1_EENS_7EqualToIS1_EEE13expandStorageEj> -> "_ZN6Common7HashMapINS_6StringEN3Adl14Files_AppleDOS8TOCEntryENS_4HashIS1_EENS_7EqualToIS1_EEE13expandStorageEj"
 - global[3628] -> "_ZTIN3Adl14Files_AppleDOSE"
 - global[3629] -> "_ZTVN3Adl12DataBlock_PCE"
 - global[3630] -> "_ZTIN3Adl12DataBlock_PCE"
 - global[3631] -> "_ZTSN3Adl12DataBlock_PCE"
 - global[3632] -> "_ZTSN3Adl9DataBlockE"
 - global[3633] -> "_ZTIN3Adl9DataBlockE"
 - global[3634] -> "_ZTVN10__cxxabiv117__class_type_infoE"
 - global[3635] -> "_ZTVN3Adl11Files_PlainE"
 - global[3636] -> "_ZTIN3Adl11Files_PlainE"
 - global[3637] -> "_ZTSN3Adl11Files_PlainE"
 - global[3638] -> "_ZTSN3Adl5FilesE"
 - global[3639] -> "_ZTIN3Adl5FilesE"
 - global[3640] -> "_ZTSN3Adl14Files_AppleDOSE"
 - global[3641] -> "_ZTVN6Common6StreamE"
 - global[3642] -> "_ZTIN6Common6StreamE"
 - global[3643] -> "_ZTSN6Common6StreamE"
 - global[3644] -> "_ZTIN3Adl9DiskImage9DataBlockE"
 - global[3645] -> "_ZTSN3Adl9DiskImage9DataBlockE"
 - global[3646] -> "_ZTIN3Adl5Files9DataBlockE"
 - global[3647] -> "_ZTSN3Adl5Files9DataBlockE"
 - global[3648] -> "_ZTIN6Common18BasePtrTrackerImplIN3Adl9DiskImage9DataBlockEEE"
 - global[3649] -> "_ZTSN6Common18BasePtrTrackerImplIN3Adl9DiskImage9DataBlockEEE"
 - global[3650] -> "_ZTSN6Common22BasePtrTrackerInternalE"
 - global[3651] -> "_ZTIN6Common22BasePtrTrackerInternalE"
 - global[3652] -> "_ZTVN6Common22BasePtrTrackerInternalE"
 - func[25826] <__cxa_pure_virtual> -> "__cxa_pure_virtual"
 - global[3653] -> "_ZTIN6Common18BasePtrTrackerImplIN3Adl5Files9DataBlockEEE"
 - global[3654] -> "_ZTSN6Common18BasePtrTrackerImplIN3Adl5Files9DataBlockEEE"
 - func[193] <_ZN3Adl14Files_AppleDOSC1Ev> -> "_ZN3Adl14Files_AppleDOSC1Ev"
 - func[227] <_ZNK22AgiMetaEngineDetection14fallbackDetectERKN6Common7HashMapINS0_6StringENS0_6FSNodeENS0_15IgnoreCase_HashENS0_18IgnoreCase_EqualToEEERKNS0_6FSListEPP23ADDetectedGameExtraInfo> -> "_ZNK22AgiMetaEngineDetection14fallbackDetectERKN6Common7HashMapINS0_6StringENS0_6FSNodeENS0_15IgnoreCase_HashENS0_18IgnoreCase_EqualToEEERKNS0_6FSListEPP23ADDetectedGameExtraInfo"
 - func[250] <_ZN3Agi13WagFileParserC2Ev> -> "_ZN3Agi13WagFileParserC1Ev"
 - func[11953] <_ZN6Common6FSNodeC2Ev> -> "_ZN6Common6FSNodeC1Ev"
 - func[12201] <_ZN6Common6StringaSEPKc> -> "_ZN6Common6StringaSEPKc"
 - func[11639] <_ZN6Common10BaseStringIcE5clearEv> -> "_ZN6Common10BaseStringIcE5clearEv"
 - func[11957] <_ZNK6Common6FSNode11isDirectoryEv> -> "_ZNK6Common6FSNode11isDirectoryEv"
 - func[228] <_ZN6Common7HashMapINS_6StringEiNS_4HashIS1_EENS_7EqualToIS1_EEE24lookupAndCreateIfMissingERKS1_> -> "_ZN6Common7HashMapINS_6StringEiNS_4HashIS1_EENS_7EqualToIS1_EEE24lookupAndCreateIfMissingERKS1_"
 - func[229] <_ZNK6Common7HashMapINS_6StringEiNS_4HashIS1_EENS_7EqualToIS1_EEE8containsERKS1_> -> "_ZNK6Common7HashMapINS_6StringEiNS_4HashIS1_EENS_7EqualToIS1_EEE8containsERKS1_"
 - func[230] <_ZN6Common9sprintf_sIcLm8EEEiRAT0__T_PKcz> -> "_ZN6Common9sprintf_sIcLm8EEEiRAT0__T_PKcz"
 - func[231] <_ZNK6Common7HashMapINS_6StringEiNS_4HashIS1_EENS_7EqualToIS1_EEE12IteratorImplIKNS6_4NodeEE5derefEv> -> "_ZNK6Common7HashMapINS_6StringEiNS_4HashIS1_EENS_7EqualToIS1_EEE12IteratorImplIKNS6_4NodeEE5derefEv"
 - func[19700] <strncpy> -> "strncpy"
 - func[12257] <_ZN6CommonplERKNS_6StringEPKc> -> "_ZN6CommonplERKNS_6StringEPKc"
 - func[259] <_ZN3Agi13WagFileParser5parseERKN6Common6FSNodeE> -> "_ZN3Agi13WagFileParser5parseERKN6Common6FSNodeE"
 - func[261] <_ZNK3Agi13WagFileParser11getPropertyENS_11WagProperty15WagPropertyCodeE> -> "_ZNK3Agi13WagFileParser11getPropertyENS_11WagProperty15WagPropertyCodeE"
 - func[252] <_ZNK3Agi13WagFileParser23checkAgiVersionPropertyERKNS_11WagPropertyE> -> "_ZNK3Agi13WagFileParser23checkAgiVersionPropertyERKNS_11WagPropertyE"
 - func[253] <_ZN3Agi13WagFileParser25convertToAgiVersionNumberERKNS_11WagPropertyE> -> "_ZN3Agi13WagFileParser25convertToAgiVersionNumberERKNS_11WagPropertyE"
 - func[1704] <_Z23findPlainGameDescriptorPKcPK19PlainGameDescriptor> -> "_Z23findPlainGameDescriptorPKcPK19PlainGameDescriptor"
 - func[11618] <_ZNK6Common10BaseStringIcEneEPKc> -> "_ZNK6Common10BaseStringIcEneEPKc"
 - func[12244] <_ZN6CommonplERKNS_6StringES2_> -> "_ZN6CommonplERKNS_6StringES2_"
 - func[12229] <_ZN6Common6String6formatEPKcz> -> "_ZN6Common6String6formatEPKcz"
 - func[12205] <_ZN6Common6StringpLERKS0_> -> "_ZN6Common6StringpLERKS0_"
 - global[3655] -> "g_system"
 - global[3656] -> "_ZTVN6Common6FSNodeE"
 - func[251] <_ZN3Agi13WagFileParserD2Ev> -> "_ZN3Agi13WagFileParserD1Ev"
 - func[12269] <_ZN6Common10vsprintf_sEPcmPKcPv> -> "_ZN6Common10vsprintf_sEPcmPKcPv"
 - func[232] <_ZNK22AgiMetaEngineDetection27parseAndCustomizeGuiOptionsERKN6Common6StringES3_> -> "_ZNK22AgiMetaEngineDetection27parseAndCustomizeGuiOptionsERKN6Common6StringES3_"
 - global[3657] -> "_ZN6Common9SingletonINS_13ConfigManagerEE10_singletonE"
 - func[11760] <_ZN6Common13ConfigManagerC2Ev> -> "_ZN6Common13ConfigManagerC1Ev"
 - func[11788] <_ZNK6Common13ConfigManager3getERKNS_6StringES3_> -> "_ZNK6Common13ConfigManager3getERKNS_6StringES3_"
 - func[12122] <_ZN6Common13parsePlatformERKNS_6StringE> -> "_ZN6Common13parsePlatformERKNS_6StringE"
 - func[12216] <_ZNK6Common6String8containsEPKc> -> "_ZNK6Common6String8containsEPKc"
 - func[11634] <_ZN6Common10BaseStringIcE10makeUniqueEv> -> "_ZN6Common10BaseStringIcE10makeUniqueEv"
 - func[12217] <_ZNK6Common6String8containsEc> -> "_ZNK6Common6String8containsEc"
 - func[12206] <_ZN6Common6StringpLEc> -> "_ZN6Common6StringpLEc"
 - func[233] <_Z25g_AGI_DETECTION_getObjectv> -> "_Z25g_AGI_DETECTION_getObjectv"
 - global[3658] -> "_ZTV22AgiMetaEngineDetection"
 - func[234] <_ZN22AgiMetaEngineDetectionD2Ev> -> "_ZN22AgiMetaEngineDetectionD2Ev"
 - func[235] <_ZN22AgiMetaEngineDetectionD0Ev> -> "_ZN22AgiMetaEngineDetectionD0Ev"
 - func[236] <_ZNK22AgiMetaEngineDetection7getNameEv> -> "_ZNK22AgiMetaEngineDetection7getNameEv"
 - func[237] <_ZNK22AgiMetaEngineDetection13getEngineNameEv> -> "_ZNK22AgiMetaEngineDetection13getEngineNameEv"
 - func[238] <_ZNK22AgiMetaEngineDetection20getOriginalCopyrightEv> -> "_ZNK22AgiMetaEngineDetection20getOriginalCopyrightEv"
 - func[239] <_ZNK22AgiMetaEngineDetection16getDebugChannelsEv> -> "_ZNK22AgiMetaEngineDetection16getDebugChannelsEv"
 - func[240] <_ZN6Common7HashMapINS_6StringEiNS_4HashIS1_EENS_7EqualToIS1_EEE13expandStorageEj> -> "_ZN6Common7HashMapINS_6StringEiNS_4HashIS1_EENS_7EqualToIS1_EEE13expandStorageEj"
 - global[3659] -> "g_AGI_DETECTION_type"
 - global[3660] -> "_ZTI22AgiMetaEngineDetection"
 - global[3661] -> "_ZTS22AgiMetaEngineDetection"
 - func[241] <_ZN3Agi11WagPropertyC1Ev> -> "_ZN3Agi11WagPropertyC2Ev"
 - func[242] <_ZN3Agi11WagProperty11setDefaultsEv> -> "_ZN3Agi11WagProperty11setDefaultsEv"
 - func[243] <_ZN3Agi11WagPropertyD1Ev> -> "_ZN3Agi11WagPropertyD2Ev"
 - func[244] <_ZN3Agi11WagProperty10deleteDataEv> -> "_ZN3Agi11WagProperty10deleteDataEv"
 - func[245] <_ZN3Agi11WagPropertyC1ERKS0_> -> "_ZN3Agi11WagPropertyC2ERKS0_"
 - func[246] <_ZN3Agi11WagProperty8deepCopyERKS0_> -> "_ZN3Agi11WagProperty8deepCopyERKS0_"
 - func[247] <_ZN3Agi11WagPropertyaSERKS0_> -> "_ZN3Agi11WagPropertyaSERKS0_"
 - func[248] <_ZN3Agi11WagProperty4readERN6Common18SeekableReadStreamE> -> "_ZN3Agi11WagProperty4readERN6Common18SeekableReadStreamE"
 - func[249] <_ZN3Agi11WagProperty5clearEv> -> "_ZN3Agi11WagProperty5clearEv"
 - func[250] <_ZN3Agi13WagFileParserC2Ev> -> "_ZN3Agi13WagFileParserC2Ev"
 - func[251] <_ZN3Agi13WagFileParserD2Ev> -> "_ZN3Agi13WagFileParserD2Ev"
 - func[243] <_ZN3Agi11WagPropertyD1Ev> -> "_ZN3Agi11WagPropertyD1Ev"
 - func[12526] <_ZN6Common7isDigitEi> -> "_ZN6Common7isDigitEi"
 - func[254] <_ZN3Agi13WagFileParser15checkWagVersionERN6Common18SeekableReadStreamE> -> "_ZN3Agi13WagFileParser15checkWagVersionERN6Common18SeekableReadStreamE"
 - func[12251] <_Z13scumm_stricmpPKcS0_> -> "_Z13scumm_stricmpPKcS0_"
 - func[255] <_ZN3Agi13WagFileParser14addPropFromIniEPN6Common7INIFileENS1_6StringES4_NS_11WagProperty15WagPropertyCodeE> -> "_ZN3Agi13WagFileParser14addPropFromIniEPN6Common7INIFileENS1_6StringES4_NS_11WagProperty15WagPropertyCodeE"
 - func[241] <_ZN3Agi11WagPropertyC1Ev> -> "_ZN3Agi11WagPropertyC1Ev"
 - func[12826] <_ZNK6Common7INIFile6getKeyERKNS_6StringES3_RS1_> -> "_ZNK6Common7INIFile6getKeyERKNS_6StringES3_RS1_"
 - func[12276] <_Z12scumm_strdupPKc> -> "_Z12scumm_strdupPKc"
 - func[245] <_ZN3Agi11WagPropertyC1ERKS0_> -> "_ZN3Agi11WagPropertyC1ERKS0_"
 - func[256] <_ZN6Common5ArrayIN3Agi11WagPropertyEE10insert_auxEPS2_PKS2_S6_> -> "_ZN6Common5ArrayIN3Agi11WagPropertyEE10insert_auxEPS2_PKS2_S6_"
 - func[257] <_ZN3Agi11WagProperty11setPropCodeENS0_15WagPropertyCodeE> -> "_ZN3Agi11WagProperty11setPropCodeENS0_15WagPropertyCodeE"
 - func[258] <_ZN3Agi11WagProperty15setPropDataSizeEN6Common6StringE> -> "_ZN3Agi11WagProperty15setPropDataSizeEN6Common6StringE"
 - func[12805] <_ZN6Common7INIFileC2Ev> -> "_ZN6Common7INIFileC1Ev"
 - func[12808] <_ZN6Common7INIFile14loadFromStreamERNS_18SeekableReadStreamE> -> "_ZN6Common7INIFile14loadFromStreamERNS_18SeekableReadStreamE"
 - func[260] <_ZNK3Agi13WagFileParser15endOfPropertiesERKN6Common18SeekableReadStreamE> -> "_ZNK3Agi13WagFileParser15endOfPropertiesERKN6Common18SeekableReadStreamE"
 - func[262] <_Z26g_AGOS_DETECTION_getObjectv> -> "_Z26g_AGOS_DETECTION_getObjectv"
 - global[3662] -> "_ZTV23AgosMetaEngineDetection"
 - func[263] <_ZN23AgosMetaEngineDetectionD0Ev> -> "_ZN23AgosMetaEngineDetectionD0Ev"
 - func[264] <_ZNK23AgosMetaEngineDetection7getNameEv> -> "_ZNK23AgosMetaEngineDetection7getNameEv"
 - func[265] <_ZNK23AgosMetaEngineDetection13getEngineNameEv> -> "_ZNK23AgosMetaEngineDetection13getEngineNameEv"
 - func[266] <_ZNK23AgosMetaEngineDetection20getOriginalCopyrightEv> -> "_ZNK23AgosMetaEngineDetection20getOriginalCopyrightEv"
 - func[267] <_ZNK23AgosMetaEngineDetection8findGameEPKc> -> "_ZNK23AgosMetaEngineDetection8findGameEPKc"
 - func[1748] <_ZN7Engines10findGameIDEPKcPK19PlainGameDescriptorPKNS_14ObsoleteGameIDE> -> "_ZN7Engines10findGameIDEPKcPK19PlainGameDescriptorPKNS_14ObsoleteGameIDE"
 - func[268] <_ZNK23AgosMetaEngineDetection16getDebugChannelsEv> -> "_ZNK23AgosMetaEngineDetection16getDebugChannelsEv"
 - global[3663] -> "g_AGOS_DETECTION_type"
 - global[3664] -> "_ZTI23AgosMetaEngineDetection"
 - global[3665] -> "_ZTS23AgosMetaEngineDetection"
 - func[269] <_ZN22AGSMetaEngineDetectionC1Ev> -> "_ZN22AGSMetaEngineDetectionC2Ev"
 - global[3666] -> "_ZN3AGS10GAME_NAMESE"
 - global[3667] -> "_ZN3AGS17GAME_DESCRIPTIONSE"
 - global[3668] -> "_ZTV22AGSMetaEngineDetection"
 - func[270] <_ZN22AGSMetaEngineDetection11detectGamesERKN6Common6FSListEjb> -> "_ZN22AGSMetaEngineDetection11detectGamesERKN6Common6FSListEjb"
 - func[1527] <_ZNK27AdvancedMetaEngineDetection18composeFileHashMapERN6Common7HashMapINS0_6StringENS0_6FSNodeENS0_15IgnoreCase_HashENS0_18IgnoreCase_EqualToEEERKNS0_6FSListEiRKS2_> -> "_ZNK27AdvancedMetaEngineDetection18composeFileHashMapERN6Common7HashMapINS0_6StringENS0_6FSNodeENS0_15IgnoreCase_HashENS0_18IgnoreCase_EqualToEEERKNS0_6FSListEiRKS2_"
 - func[11963] <_ZNK6Common6FSNode9getParentEv> -> "_ZNK6Common6FSNode9getParentEv"
 - func[1523] <_ZNK27AdvancedMetaEngineDetection14cleanupPiratedERN6Common5ArrayI14ADDetectedGameEE> -> "_ZNK27AdvancedMetaEngineDetection14cleanupPiratedERN6Common5ArrayI14ADDetectedGameEE"
 - func[271] <_ZNK6Common7HashMapINS_6StringE14FilePropertiesNS_15IgnoreCase_HashENS_18IgnoreCase_EqualToEE12IteratorImplIKNS5_4NodeEE5derefEv> -> "_ZNK6Common7HashMapINS_6StringE14FilePropertiesNS_15IgnoreCase_HashENS_18IgnoreCase_EqualToEE12IteratorImplIKNS5_4NodeEE5derefEv"
 - func[272] <_ZN6Common7HashMapINS_6StringENS_6FSNodeENS_15IgnoreCase_HashENS_18IgnoreCase_EqualToEE24lookupAndCreateIfMissingERKS1_> -> "_ZN6Common7HashMapINS_6StringENS_6FSNodeENS_15IgnoreCase_HashENS_18IgnoreCase_EqualToEE24lookupAndCreateIfMissingERKS1_"
 - func[19225] <memcmp> -> "memcmp"
 - func[273] <_ZN12DetectedGameC2ERKS_> -> "_ZN12DetectedGameC2ERKS_"
 - func[274] <_ZN6Common5ArrayI12DetectedGameE10insert_auxEPS1_PKS1_S5_> -> "_ZN6Common5ArrayI12DetectedGameE10insert_auxEPS1_PKS1_S5_"
 - func[275] <_ZN6Common7HashMapINS_6StringES1_NS_15IgnoreCase_HashENS_18IgnoreCase_EqualToEED2Ev> -> "_ZN6Common7HashMapINS_6StringES1_NS_15IgnoreCase_HashENS_18IgnoreCase_EqualToEED2Ev"
 - func[276] <_ZN6Common7HashMapINS_6StringENS_6FSNodeENS_15IgnoreCase_HashENS_18IgnoreCase_EqualToEED2Ev> -> "_ZN6Common7HashMapINS_6StringENS_6FSNodeENS_15IgnoreCase_HashENS_18IgnoreCase_EqualToEED2Ev"
 - func[277] <_ZNK22AGSMetaEngineDetection14fallbackDetectERKN6Common7HashMapINS0_6StringENS0_6FSNodeENS0_15IgnoreCase_HashENS0_18IgnoreCase_EqualToEEERKNS0_6FSListEPP23ADDetectedGameExtraInfo> -> "_ZNK22AGSMetaEngineDetection14fallbackDetectERKN6Common7HashMapINS0_6StringENS0_6FSNodeENS0_15IgnoreCase_HashENS0_18IgnoreCase_EqualToEEERKNS0_6FSListEPP23ADDetectedGameExtraInfo"
 - func[11787] <_ZNK6Common13ConfigManager3getERKNS_6StringE> -> "_ZNK6Common13ConfigManager3getERKNS_6StringE"
 - func[11615] <_ZNK6Common10BaseStringIcEeqEPKc> -> "_ZNK6Common10BaseStringIcEeqEPKc"
 - func[12214] <_ZNK6Common6String19hasSuffixIgnoreCaseEPKc> -> "_ZNK6Common6String19hasSuffixIgnoreCaseEPKc"
 - func[12249] <_ZNK6Common6String16equalsIgnoreCaseEPKc> -> "_ZNK6Common6String16equalsIgnoreCaseEPKc"
 - func[12497] <_ZN6Common9U32StringC2ERKNS_6StringENS_8CodePageE> -> "_ZN6Common9U32StringC1ERKNS_6StringENS_8CodePageE"
 - func[12131] <_ZN6Common23punycode_encodefilenameERKNS_9U32StringE> -> "_ZN6Common23punycode_encodefilenameERKNS_9U32StringE"
 - func[11738] <_ZN6Common10BaseStringIDiED1Ev> -> "_ZN6Common10BaseStringIDiED2Ev"
 - func[278] <_Z25g_AGS_DETECTION_getObjectv> -> "_Z25g_AGS_DETECTION_getObjectv"
 - func[269] <_ZN22AGSMetaEngineDetectionC1Ev> -> "_ZN22AGSMetaEngineDetectionC1Ev"
 - func[279] <_ZN22AGSMetaEngineDetectionD2Ev> -> "_ZN22AGSMetaEngineDetectionD2Ev"
 - func[280] <_ZN22AGSMetaEngineDetectionD0Ev> -> "_ZN22AGSMetaEngineDetectionD0Ev"
 - func[281] <_ZNK22AGSMetaEngineDetection7getNameEv> -> "_ZNK22AGSMetaEngineDetection7getNameEv"
 - func[282] <_ZNK22AGSMetaEngineDetection13getEngineNameEv> -> "_ZNK22AGSMetaEngineDetection13getEngineNameEv"
 - func[283] <_ZNK22AGSMetaEngineDetection20getOriginalCopyrightEv> -> "_ZNK22AGSMetaEngineDetection20getOriginalCopyrightEv"
 - func[284] <_ZNK22AGSMetaEngineDetection16getDebugChannelsEv> -> "_ZNK22AGSMetaEngineDetection16getDebugChannelsEv"
 - global[3669] -> "_ZN22AGSMetaEngineDetection13debugFlagListE"
 - func[285] <_ZNK22AGSMetaEngineDetection22canPlayUnknownVariantsEv> -> "_ZNK22AGSMetaEngineDetection22canPlayUnknownVariantsEv"
 - func[286] <_ZN6Common5ArrayI12DetectedGameE11freeStorageEPS1_j> -> "_ZN6Common5ArrayI12DetectedGameE11freeStorageEPS1_j"
 - func[287] <_ZN6Common7HashMapINS_6StringENS_6FSNodeENS_15IgnoreCase_HashENS_18IgnoreCase_EqualToEE13expandStorageEj> -> "_ZN6Common7HashMapINS_6StringENS_6FSNodeENS_15IgnoreCase_HashENS_18IgnoreCase_EqualToEE13expandStorageEj"
 - func[288] <_ZN6Common7HashMapINS_6StringES1_NS_15IgnoreCase_HashENS_18IgnoreCase_EqualToEE6assignERKS4_> -> "_ZN6Common7HashMapINS_6StringES1_NS_15IgnoreCase_HashENS_18IgnoreCase_EqualToEE6assignERKS4_"
 - func[289] <_ZN6Common13copy_backwardIP12DetectedGameS2_EET0_T_S4_S3_> -> "_ZN6Common13copy_backwardIP12DetectedGameS2_EET0_T_S4_S3_"
 - func[290] <_ZN6Common4copyIPK12DetectedGamePS1_EET0_T_S6_S5_> -> "_ZN6Common4copyIPK12DetectedGamePS1_EET0_T_S6_S5_"
 - func[291] <_ZN6Common7HashMapINS_6StringES1_NS_15IgnoreCase_HashENS_18IgnoreCase_EqualToEEaSERKS4_> -> "_ZN6Common7HashMapINS_6StringES1_NS_15IgnoreCase_HashENS_18IgnoreCase_EqualToEEaSERKS4_"
 - global[3670] -> "_ZTI22AGSMetaEngineDetection"
 - global[3671] -> "g_AGS_DETECTION_type"
 - global[3672] -> "_ZTS22AGSMetaEngineDetection"
 - func[292] <_Z28g_ASYLUM_DETECTION_getObjectv> -> "_Z28g_ASYLUM_DETECTION_getObjectv"
 - global[3673] -> "_ZTV25AsylumMetaEngineDetection"
 - func[293] <_ZN25AsylumMetaEngineDetectionD0Ev> -> "_ZN25AsylumMetaEngineDetectionD0Ev"
 - func[294] <_ZNK25AsylumMetaEngineDetection7getNameEv> -> "_ZNK25AsylumMetaEngineDetection7getNameEv"
 - func[295] <_ZNK25AsylumMetaEngineDetection13getEngineNameEv> -> "_ZNK25AsylumMetaEngineDetection13getEngineNameEv"
 - func[296] <_ZNK25AsylumMetaEngineDetection20getOriginalCopyrightEv> -> "_ZNK25AsylumMetaEngineDetection20getOriginalCopyrightEv"
 - func[297] <_ZNK25AsylumMetaEngineDetection16getDebugChannelsEv> -> "_ZNK25AsylumMetaEngineDetection16getDebugChannelsEv"
 - func[298] <_ZNK25AsylumMetaEngineDetection14fallbackDetectERKN6Common7HashMapINS0_6StringENS0_6FSNodeENS0_15IgnoreCase_HashENS0_18IgnoreCase_EqualToEEERKNS0_6FSListEPP23ADDetectedGameExtraInfo> -> "_ZNK25AsylumMetaEngineDetection14fallbackDetectERKN6Common7HashMapINS0_6StringENS0_6FSNodeENS0_15IgnoreCase_HashENS0_18IgnoreCase_EqualToEEERKNS0_6FSListEPP23ADDetectedGameExtraInfo"
 - func[1546] <_ZNK27AdvancedMetaEngineDetection19detectGameFilebasedERKN6Common7HashMapINS0_6StringENS0_6FSNodeENS0_15IgnoreCase_HashENS0_18IgnoreCase_EqualToEEEPK19ADFileBasedFallback> -> "_ZNK27AdvancedMetaEngineDetection19detectGameFilebasedERKN6Common7HashMapINS0_6StringENS0_6FSNodeENS0_15IgnoreCase_HashENS0_18IgnoreCase_EqualToEEEPK19ADFileBasedFallback"
 - global[3674] -> "g_ASYLUM_DETECTION_type"
 - global[3675] -> "_ZTI25AsylumMetaEngineDetection"
 - global[3676] -> "_ZTS25AsylumMetaEngineDetection"
 - func[299] <_Z31g_AVALANCHE_DETECTION_getObjectv> -> "_Z31g_AVALANCHE_DETECTION_getObjectv"
 - global[3677] -> "_ZTVN9Avalanche28AvalancheMetaEngineDetectionE"
 - func[300] <_ZN9Avalanche28AvalancheMetaEngineDetectionD0Ev> -> "_ZN9Avalanche28AvalancheMetaEngineDetectionD0Ev"
 - func[301] <_ZNK9Avalanche28AvalancheMetaEngineDetection7getNameEv> -> "_ZNK9Avalanche28AvalancheMetaEngineDetection7getNameEv"
 - func[302] <_ZNK9Avalanche28AvalancheMetaEngineDetection13getEngineNameEv> -> "_ZNK9Avalanche28AvalancheMetaEngineDetection13getEngineNameEv"
 - func[303] <_ZNK9Avalanche28AvalancheMetaEngineDetection20getOriginalCopyrightEv> -> "_ZNK9Avalanche28AvalancheMetaEngineDetection20getOriginalCopyrightEv"
 - func[304] <_ZNK19MetaEngineDetection16getDebugChannelsEv> -> "_ZNK19MetaEngineDetection16getDebugChannelsEv"
 - global[3678] -> "g_AVALANCHE_DETECTION_type"
 - global[3679] -> "_ZTIN9Avalanche28AvalancheMetaEngineDetectionE"
 - global[3680] -> "_ZTSN9Avalanche28AvalancheMetaEngineDetectionE"
 - func[305] <_Z26g_BBVS_DETECTION_getObjectv> -> "_Z26g_BBVS_DETECTION_getObjectv"
 - global[3681] -> "_ZTV23BbvsMetaEngineDetection"
 - func[306] <_ZN23BbvsMetaEngineDetectionD0Ev> -> "_ZN23BbvsMetaEngineDetectionD0Ev"
 - func[307] <_ZNK23BbvsMetaEngineDetection7getNameEv> -> "_ZNK23BbvsMetaEngineDetection7getNameEv"
 - func[308] <_ZNK23BbvsMetaEngineDetection13getEngineNameEv> -> "_ZNK23BbvsMetaEngineDetection13getEngineNameEv"
 - func[309] <_ZNK23BbvsMetaEngineDetection20getOriginalCopyrightEv> -> "_ZNK23BbvsMetaEngineDetection20getOriginalCopyrightEv"
 - global[3682] -> "g_BBVS_DETECTION_type"
 - global[3683] -> "_ZTI23BbvsMetaEngineDetection"
 - global[3684] -> "_ZTS23BbvsMetaEngineDetection"
 - func[310] <_ZN30BladeRunnerMetaEngineDetectionC1Ev> -> "_ZN30BladeRunnerMetaEngineDetectionC2Ev"
 - global[3685] -> "_ZTV30BladeRunnerMetaEngineDetection"
 - func[311] <_ZNK30BladeRunnerMetaEngineDetection7getNameEv> -> "_ZNK30BladeRunnerMetaEngineDetection7getNameEv"
 - func[312] <_ZNK30BladeRunnerMetaEngineDetection13getEngineNameEv> -> "_ZNK30BladeRunnerMetaEngineDetection13getEngineNameEv"
 - func[313] <_ZNK30BladeRunnerMetaEngineDetection20getOriginalCopyrightEv> -> "_ZNK30BladeRunnerMetaEngineDetection20getOriginalCopyrightEv"
 - func[314] <_ZNK30BladeRunnerMetaEngineDetection16getDebugChannelsEv> -> "_ZNK30BladeRunnerMetaEngineDetection16getDebugChannelsEv"
 - func[315] <_Z33g_BLADERUNNER_DETECTION_getObjectv> -> "_Z33g_BLADERUNNER_DETECTION_getObjectv"
 - func[310] <_ZN30BladeRunnerMetaEngineDetectionC1Ev> -> "_ZN30BladeRunnerMetaEngineDetectionC1Ev"
 - func[316] <_ZN30BladeRunnerMetaEngineDetectionD0Ev> -> "_ZN30BladeRunnerMetaEngineDetectionD0Ev"
 - global[3686] -> "_ZTI30BladeRunnerMetaEngineDetection"
 - global[3687] -> "g_BLADERUNNER_DETECTION_type"
 - global[3688] -> "_ZTS30BladeRunnerMetaEngineDetection"
 - func[317] <_Z28g_BURIED_DETECTION_getObjectv> -> "_Z28g_BURIED_DETECTION_getObjectv"
 - global[3689] -> "_ZTV25BuriedMetaEngineDetection"
 - func[318] <_ZN25BuriedMetaEngineDetectionD0Ev> -> "_ZN25BuriedMetaEngineDetectionD0Ev"
 - func[319] <_ZNK25BuriedMetaEngineDetection7getNameEv> -> "_ZNK25BuriedMetaEngineDetection7getNameEv"
 - func[320] <_ZNK25BuriedMetaEngineDetection13getEngineNameEv> -> "_ZNK25BuriedMetaEngineDetection13getEngineNameEv"
 - func[321] <_ZNK25BuriedMetaEngineDetection20getOriginalCopyrightEv> -> "_ZNK25BuriedMetaEngineDetection20getOriginalCopyrightEv"
 - global[3690] -> "g_BURIED_DETECTION_type"
 - global[3691] -> "_ZTI25BuriedMetaEngineDetection"
 - global[3692] -> "_ZTS25BuriedMetaEngineDetection"
 - func[322] <_ZNK3CGE22CGEMetaEngineDetection14fallbackDetectERKN6Common7HashMapINS1_6StringENS1_6FSNodeENS1_15IgnoreCase_HashENS1_18IgnoreCase_EqualToEEERKNS1_6FSListEPP23ADDetectedGameExtraInfo> -> "_ZNK3CGE22CGEMetaEngineDetection14fallbackDetectERKN6Common7HashMapINS1_6StringENS1_6FSNodeENS1_15IgnoreCase_HashENS1_18IgnoreCase_EqualToEEERKNS1_6FSListEPP23ADDetectedGameExtraInfo"
 - global[3693] -> "_ZN6Common9SingletonINS_13SearchManagerEE10_singletonE"
 - func[11583] <_ZN6Common13SearchManagerC2Ev> -> "_ZN6Common13SearchManagerC1Ev"
 - func[11571] <_ZN6Common9SearchSet12addDirectoryERKNS_6StringERKNS_6FSNodeEiib> -> "_ZN6Common9SearchSet12addDirectoryERKNS_6StringERKNS_6FSNodeEiib"
 - func[330] <_ZN3CGE15ResourceManagerC2Ev> -> "_ZN3CGE15ResourceManagerC1Ev"
 - func[338] <_ZN3CGE15ResourceManager5existEPKc> -> "_ZN3CGE15ResourceManager5existEPKc"
 - func[331] <_ZN3CGE15ResourceManagerD2Ev> -> "_ZN3CGE15ResourceManagerD1Ev"
 - func[11574] <_ZN6Common9SearchSet6removeERKNS_6StringE> -> "_ZN6Common9SearchSet6removeERKNS_6StringE"
 - func[323] <_Z25g_CGE_DETECTION_getObjectv> -> "_Z25g_CGE_DETECTION_getObjectv"
 - global[3694] -> "_ZTVN3CGE22CGEMetaEngineDetectionE"
 - func[324] <_ZN3CGE22CGEMetaEngineDetectionD0Ev> -> "_ZN3CGE22CGEMetaEngineDetectionD0Ev"
 - func[325] <_ZNK3CGE22CGEMetaEngineDetection7getNameEv> -> "_ZNK3CGE22CGEMetaEngineDetection7getNameEv"
 - func[326] <_ZNK3CGE22CGEMetaEngineDetection13getEngineNameEv> -> "_ZNK3CGE22CGEMetaEngineDetection13getEngineNameEv"
 - func[327] <_ZNK3CGE22CGEMetaEngineDetection20getOriginalCopyrightEv> -> "_ZNK3CGE22CGEMetaEngineDetection20getOriginalCopyrightEv"
 - func[328] <_ZNK3CGE22CGEMetaEngineDetection16getDebugChannelsEv> -> "_ZNK3CGE22CGEMetaEngineDetection16getDebugChannelsEv"
 - global[3695] -> "g_CGE_DETECTION_type"
 - global[3696] -> "_ZTIN3CGE22CGEMetaEngineDetectionE"
 - global[3697] -> "_ZTSN3CGE22CGEMetaEngineDetectionE"
 - func[329] <_ZN3CGE6BtPage9readBTreeERN6Common10ReadStreamE> -> "_ZN3CGE6BtPage9readBTreeERN6Common10ReadStreamE"
 - func[330] <_ZN3CGE15ResourceManagerC2Ev> -> "_ZN3CGE15ResourceManagerC2Ev"
 - func[12098] <_ZN6Common4PathC2EPKcc> -> "_ZN6Common4PathC1EPKcc"
 - func[11921] <_ZNK6Common4File6isOpenEv> -> "_ZNK6Common4File6isOpenEv"
 - func[331] <_ZN3CGE15ResourceManagerD2Ev> -> "_ZN3CGE15ResourceManagerD2Ev"
 - func[332] <_ZN3CGE15ResourceManager6XCryptEPht> -> "_ZN3CGE15ResourceManager6XCryptEPht"
 - func[333] <_ZN3CGE15ResourceManager4seekEii> -> "_ZN3CGE15ResourceManager4seekEii"
 - func[334] <_ZN3CGE15ResourceManager4readEPht> -> "_ZN3CGE15ResourceManager4readEPht"
 - func[335] <_ZN3CGE15ResourceManager7getPageEit> -> "_ZN3CGE15ResourceManager7getPageEit"
 - func[336] <_ZN3CGE15ResourceManager7catReadEPht> -> "_ZN3CGE15ResourceManager7catReadEPht"
 - func[337] <_ZN3CGE15ResourceManager4findEPKc> -> "_ZN3CGE15ResourceManager4findEPKc"
 - func[12275] <_Z14scumm_strnicmpPKcS0_j> -> "_Z14scumm_strnicmpPKcS0_j"
 - func[339] <_ZN3CGE15EncryptedStreamC1EPNS_15ResourceManagerEPKc> -> "_ZN3CGE15EncryptedStreamC2EPNS_15ResourceManagerEPKc"
 - func[19694] <strlen> -> "strlen"
 - func[340] <_ZN3CGE15EncryptedStream4readEPhj> -> "_ZN3CGE15EncryptedStream4readEPhj"
 - func[341] <_ZN3CGE15EncryptedStream3errEv> -> "_ZN3CGE15EncryptedStream3errEv"
 - func[342] <_ZN3CGE15EncryptedStream3eosEv> -> "_ZN3CGE15EncryptedStream3eosEv"
 - func[343] <_ZN3CGE15EncryptedStream4seekEi> -> "_ZN3CGE15EncryptedStream4seekEi"
 - func[344] <_ZN3CGE15EncryptedStream8readLineEv> -> "_ZN3CGE15EncryptedStream8readLineEv"
 - func[345] <_ZN3CGE15EncryptedStream4sizeEv> -> "_ZN3CGE15EncryptedStream4sizeEv"
 - func[346] <_ZN3CGE15EncryptedStream3posEv> -> "_ZN3CGE15EncryptedStream3posEv"
 - func[347] <_ZN3CGE15EncryptedStreamD1Ev> -> "_ZN3CGE15EncryptedStreamD2Ev"
 - func[339] <_ZN3CGE15EncryptedStreamC1EPNS_15ResourceManagerEPKc> -> "_ZN3CGE15EncryptedStreamC1EPNS_15ResourceManagerEPKc"
 - func[347] <_ZN3CGE15EncryptedStreamD1Ev> -> "_ZN3CGE15EncryptedStreamD1Ev"
 - func[348] <_ZNK4CGE223CGE2MetaEngineDetection14fallbackDetectERKN6Common7HashMapINS1_6StringENS1_6FSNodeENS1_15IgnoreCase_HashENS1_18IgnoreCase_EqualToEEERKNS1_6FSListEPP23ADDetectedGameExtraInfo> -> "_ZNK4CGE223CGE2MetaEngineDetection14fallbackDetectERKN6Common7HashMapINS1_6StringENS1_6FSNodeENS1_15IgnoreCase_HashENS1_18IgnoreCase_EqualToEEERKNS1_6FSListEPP23ADDetectedGameExtraInfo"
 - func[356] <_ZN4CGE215ResourceManagerC2Ev> -> "_ZN4CGE215ResourceManagerC1Ev"
 - func[364] <_ZN4CGE215ResourceManager5existEPKc> -> "_ZN4CGE215ResourceManager5existEPKc"
 - func[357] <_ZN4CGE215ResourceManagerD2Ev> -> "_ZN4CGE215ResourceManagerD1Ev"
 - func[349] <_Z26g_CGE2_DETECTION_getObjectv> -> "_Z26g_CGE2_DETECTION_getObjectv"
 - global[3698] -> "_ZTVN4CGE223CGE2MetaEngineDetectionE"
 - func[350] <_ZN4CGE223CGE2MetaEngineDetectionD0Ev> -> "_ZN4CGE223CGE2MetaEngineDetectionD0Ev"
 - func[351] <_ZNK4CGE223CGE2MetaEngineDetection7getNameEv> -> "_ZNK4CGE223CGE2MetaEngineDetection7getNameEv"
 - func[352] <_ZNK4CGE223CGE2MetaEngineDetection13getEngineNameEv> -> "_ZNK4CGE223CGE2MetaEngineDetection13getEngineNameEv"
 - func[353] <_ZNK4CGE223CGE2MetaEngineDetection20getOriginalCopyrightEv> -> "_ZNK4CGE223CGE2MetaEngineDetection20getOriginalCopyrightEv"
 - func[354] <_ZNK4CGE223CGE2MetaEngineDetection16getDebugChannelsEv> -> "_ZNK4CGE223CGE2MetaEngineDetection16getDebugChannelsEv"
 - global[3699] -> "g_CGE2_DETECTION_type"
 - global[3700] -> "_ZTIN4CGE223CGE2MetaEngineDetectionE"
 - global[3701] -> "_ZTSN4CGE223CGE2MetaEngineDetectionE"
 - func[355] <_ZN4CGE26BtPage9readBTreeERN6Common10ReadStreamE> -> "_ZN4CGE26BtPage9readBTreeERN6Common10ReadStreamE"
 - func[356] <_ZN4CGE215ResourceManagerC2Ev> -> "_ZN4CGE215ResourceManagerC2Ev"
 - func[357] <_ZN4CGE215ResourceManagerD2Ev> -> "_ZN4CGE215ResourceManagerD2Ev"
 - func[358] <_ZN4CGE215ResourceManager6xCryptEPht> -> "_ZN4CGE215ResourceManager6xCryptEPht"
 - func[359] <_ZN4CGE215ResourceManager4seekEii> -> "_ZN4CGE215ResourceManager4seekEii"
 - func[360] <_ZN4CGE215ResourceManager4readEPht> -> "_ZN4CGE215ResourceManager4readEPht"
 - func[361] <_ZN4CGE215ResourceManager7getPageEit> -> "_ZN4CGE215ResourceManager7getPageEit"
 - func[362] <_ZN4CGE215ResourceManager7catReadEPht> -> "_ZN4CGE215ResourceManager7catReadEPht"
 - func[363] <_ZN4CGE215ResourceManager4findEPKc> -> "_ZN4CGE215ResourceManager4findEPKc"
 - func[365] <_ZN4CGE215EncryptedStreamC1EPNS_15ResourceManagerEPKc> -> "_ZN4CGE215EncryptedStreamC2EPNS_15ResourceManagerEPKc"
 - func[366] <_ZN4CGE215EncryptedStream4readEPhj> -> "_ZN4CGE215EncryptedStream4readEPhj"
 - func[367] <_ZN4CGE215EncryptedStream12readSint16LEEv> -> "_ZN4CGE215EncryptedStream12readSint16LEEv"
 - func[368] <_ZN4CGE215EncryptedStream12readUint32LEEv> -> "_ZN4CGE215EncryptedStream12readUint32LEEv"
 - func[369] <_ZN4CGE215EncryptedStream3errEv> -> "_ZN4CGE215EncryptedStream3errEv"
 - func[370] <_ZN4CGE215EncryptedStream3eosEv> -> "_ZN4CGE215EncryptedStream3eosEv"
 - func[371] <_ZN4CGE215EncryptedStream4seekEi> -> "_ZN4CGE215EncryptedStream4seekEi"
 - func[372] <_ZN4CGE215EncryptedStream8readLineEv> -> "_ZN4CGE215EncryptedStream8readLineEv"
 - func[373] <_ZN4CGE215EncryptedStream4sizeEv> -> "_ZN4CGE215EncryptedStream4sizeEv"
 - func[374] <_ZN4CGE215EncryptedStream3posEv> -> "_ZN4CGE215EncryptedStream3posEv"
 - func[375] <_ZN4CGE215EncryptedStreamD1Ev> -> "_ZN4CGE215EncryptedStreamD2Ev"
 - global[3702] -> "_ZN4CGE215EncryptedStream6kIdTabE"
 - func[365] <_ZN4CGE215EncryptedStreamC1EPNS_15ResourceManagerEPKc> -> "_ZN4CGE215EncryptedStreamC1EPNS_15ResourceManagerEPKc"
 - func[375] <_ZN4CGE215EncryptedStreamD1Ev> -> "_ZN4CGE215EncryptedStreamD1Ev"
 - func[376] <_Z27g_CHEWY_DETECTION_getObjectv> -> "_Z27g_CHEWY_DETECTION_getObjectv"
 - global[3703] -> "_ZTV24ChewyMetaEngineDetection"
 - func[377] <_ZN24ChewyMetaEngineDetectionD0Ev> -> "_ZN24ChewyMetaEngineDetectionD0Ev"
 - func[378] <_ZNK24ChewyMetaEngineDetection7getNameEv> -> "_ZNK24ChewyMetaEngineDetection7getNameEv"
 - func[379] <_ZNK24ChewyMetaEngineDetection13getEngineNameEv> -> "_ZNK24ChewyMetaEngineDetection13getEngineNameEv"
 - func[380] <_ZNK24ChewyMetaEngineDetection20getOriginalCopyrightEv> -> "_ZNK24ChewyMetaEngineDetection20getOriginalCopyrightEv"
 - global[3704] -> "g_CHEWY_DETECTION_type"
 - global[3705] -> "_ZTI24ChewyMetaEngineDetection"
 - global[3706] -> "_ZTS24ChewyMetaEngineDetection"
 - func[381] <_Z26g_CINE_DETECTION_getObjectv> -> "_Z26g_CINE_DETECTION_getObjectv"
 - global[3707] -> "_ZTV23CineMetaEngineDetection"
 - func[382] <_ZN23CineMetaEngineDetectionD0Ev> -> "_ZN23CineMetaEngineDetectionD0Ev"
 - func[383] <_ZNK23CineMetaEngineDetection7getNameEv> -> "_ZNK23CineMetaEngineDetection7getNameEv"
 - func[384] <_ZNK23CineMetaEngineDetection13getEngineNameEv> -> "_ZNK23CineMetaEngineDetection13getEngineNameEv"
 - func[385] <_ZNK23CineMetaEngineDetection20getOriginalCopyrightEv> -> "_ZNK23CineMetaEngineDetection20getOriginalCopyrightEv"
 - func[386] <_ZNK23CineMetaEngineDetection16getDebugChannelsEv> -> "_ZNK23CineMetaEngineDetection16getDebugChannelsEv"
 - global[3708] -> "g_CINE_DETECTION_type"
 - global[3709] -> "_ZTI23CineMetaEngineDetection"
 - global[3710] -> "_ZTS23CineMetaEngineDetection"
 - func[387] <_Z30g_COMPOSER_DETECTION_getObjectv> -> "_Z30g_COMPOSER_DETECTION_getObjectv"
 - global[3711] -> "_ZTV27ComposerMetaEngineDetection"
 - func[388] <_ZN27ComposerMetaEngineDetectionD0Ev> -> "_ZN27ComposerMetaEngineDetectionD0Ev"
 - func[389] <_ZNK27ComposerMetaEngineDetection7getNameEv> -> "_ZNK27ComposerMetaEngineDetection7getNameEv"
 - func[390] <_ZNK27ComposerMetaEngineDetection13getEngineNameEv> -> "_ZNK27ComposerMetaEngineDetection13getEngineNameEv"
 - func[391] <_ZNK27ComposerMetaEngineDetection20getOriginalCopyrightEv> -> "_ZNK27ComposerMetaEngineDetection20getOriginalCopyrightEv"
 - global[3712] -> "g_COMPOSER_DETECTION_type"
 - global[3713] -> "_ZTI27ComposerMetaEngineDetection"
 - global[3714] -> "_ZTS27ComposerMetaEngineDetection"
 - func[392] <_Z28g_CRUISE_DETECTION_getObjectv> -> "_Z28g_CRUISE_DETECTION_getObjectv"
 - global[3715] -> "_ZTV25CruiseMetaEngineDetection"
 - func[393] <_ZN25CruiseMetaEngineDetectionD0Ev> -> "_ZN25CruiseMetaEngineDetectionD0Ev"
 - func[394] <_ZNK25CruiseMetaEngineDetection7getNameEv> -> "_ZNK25CruiseMetaEngineDetection7getNameEv"
 - func[395] <_ZNK25CruiseMetaEngineDetection13getEngineNameEv> -> "_ZNK25CruiseMetaEngineDetection13getEngineNameEv"
 - func[396] <_ZNK25CruiseMetaEngineDetection20getOriginalCopyrightEv> -> "_ZNK25CruiseMetaEngineDetection20getOriginalCopyrightEv"
 - func[397] <_ZNK25CruiseMetaEngineDetection16getDebugChannelsEv> -> "_ZNK25CruiseMetaEngineDetection16getDebugChannelsEv"
 - global[3716] -> "g_CRUISE_DETECTION_type"
 - global[3717] -> "_ZTI25CruiseMetaEngineDetection"
 - global[3718] -> "_ZTS25CruiseMetaEngineDetection"
 - func[398] <_Z26g_CRYO_DETECTION_getObjectv> -> "_Z26g_CRYO_DETECTION_getObjectv"
 - global[3719] -> "_ZTV23CryoMetaEngineDetection"
 - func[399] <_ZN23CryoMetaEngineDetectionD0Ev> -> "_ZN23CryoMetaEngineDetectionD0Ev"
 - func[400] <_ZNK23CryoMetaEngineDetection7getNameEv> -> "_ZNK23CryoMetaEngineDetection7getNameEv"
 - func[401] <_ZNK23CryoMetaEngineDetection13getEngineNameEv> -> "_ZNK23CryoMetaEngineDetection13getEngineNameEv"
 - func[402] <_ZNK23CryoMetaEngineDetection20getOriginalCopyrightEv> -> "_ZNK23CryoMetaEngineDetection20getOriginalCopyrightEv"
 - global[3720] -> "g_CRYO_DETECTION_type"
 - global[3721] -> "_ZTI23CryoMetaEngineDetection"
 - global[3722] -> "_ZTS23CryoMetaEngineDetection"
 - func[403] <_Z31g_CRYOMNI3D_DETECTION_getObjectv> -> "_Z31g_CRYOMNI3D_DETECTION_getObjectv"
 - global[3723] -> "_ZTVN9CryOmni3D28CryOmni3DMetaEngineDetectionE"
 - func[404] <_ZN9CryOmni3D28CryOmni3DMetaEngineDetectionD0Ev> -> "_ZN9CryOmni3D28CryOmni3DMetaEngineDetectionD0Ev"
 - func[405] <_ZNK9CryOmni3D28CryOmni3DMetaEngineDetection7getNameEv> -> "_ZNK9CryOmni3D28CryOmni3DMetaEngineDetection7getNameEv"
 - func[406] <_ZNK9CryOmni3D28CryOmni3DMetaEngineDetection13getEngineNameEv> -> "_ZNK9CryOmni3D28CryOmni3DMetaEngineDetection13getEngineNameEv"
 - func[407] <_ZNK9CryOmni3D28CryOmni3DMetaEngineDetection20getOriginalCopyrightEv> -> "_ZNK9CryOmni3D28CryOmni3DMetaEngineDetection20getOriginalCopyrightEv"
 - func[408] <_ZNK9CryOmni3D28CryOmni3DMetaEngineDetection16getDebugChannelsEv> -> "_ZNK9CryOmni3D28CryOmni3DMetaEngineDetection16getDebugChannelsEv"
 - func[409] <_ZNK9CryOmni3D28CryOmni3DMetaEngineDetection14fallbackDetectERKN6Common7HashMapINS1_6StringENS1_6FSNodeENS1_15IgnoreCase_HashENS1_18IgnoreCase_EqualToEEERKNS1_6FSListEPP23ADDetectedGameExtraInfo> -> "_ZNK9CryOmni3D28CryOmni3DMetaEngineDetection14fallbackDetectERKN6Common7HashMapINS1_6StringENS1_6FSNodeENS1_15IgnoreCase_HashENS1_18IgnoreCase_EqualToEEERKNS1_6FSListEPP23ADDetectedGameExtraInfo"
 - global[3724] -> "g_CRYOMNI3D_DETECTION_type"
 - global[3725] -> "_ZTIN9CryOmni3D28CryOmni3DMetaEngineDetectionE"
 - global[3726] -> "_ZTSN9CryOmni3D28CryOmni3DMetaEngineDetectionE"
 - func[410] <_ZNK27DirectorMetaEngineDetection14fallbackDetectERKN6Common7HashMapINS0_6StringENS0_6FSNodeENS0_15IgnoreCase_HashENS0_18IgnoreCase_EqualToEEERKNS0_6FSListEPP23ADDetectedGameExtraInfo> -> "_ZNK27DirectorMetaEngineDetection14fallbackDetectERKN6Common7HashMapINS0_6StringENS0_6FSNodeENS0_15IgnoreCase_HashENS0_18IgnoreCase_EqualToEEERKNS0_6FSListEPP23ADDetectedGameExtraInfo"
 - func[12282] <_ZN6Common10ReadStream10readStringEcm> -> "_ZN6Common10ReadStream10readStringEcm"
 - func[18324] <atoi> -> "atoi"
 - func[11926] <_ZNK6Common4File3eosEv> -> "_ZNK6Common4File3eosEv"
 - func[25976] <_ZNK6Common4File3posEv> -> "_ZNK6Common4File3posEv"
 - func[12931] <_ZN6Common12WinResources13createFromEXEEPNS_18SeekableReadStreamE> -> "_ZN6Common12WinResources13createFromEXEEPNS_18SeekableReadStreamE"
 - func[12932] <_ZN6Common12WinResources18getVersionResourceERKNS_13WinResourceIDE> -> "_ZN6Common12WinResources18getVersionResourceERKNS_13WinResourceIDE"
 - func[411] <_ZN6Common7HashMapINS_6StringENS_9U32StringENS_15IgnoreCase_HashENS_18IgnoreCase_EqualToEED2Ev> -> "_ZN6Common7HashMapINS_6StringENS_9U32StringENS_15IgnoreCase_HashENS_18IgnoreCase_EqualToEED2Ev"
 - func[12271] <_ZN6Common7strlcpyEPcPKcm> -> "_ZN6Common7strlcpyEPcPKcm"
 - func[1539] <_ZNK27AdvancedMetaEngineDetection17getFilePropertiesERKN6Common7HashMapINS0_6StringENS0_6FSNodeENS0_15IgnoreCase_HashENS0_18IgnoreCase_EqualToEEERK17ADGameDescriptionRKS2_R14FileProperties> -> "_ZNK27AdvancedMetaEngineDetection17getFilePropertiesERKN6Common7HashMapINS0_6StringENS0_6FSNodeENS0_15IgnoreCase_HashENS0_18IgnoreCase_EqualToEEERK17ADGameDescriptionRKS2_R14FileProperties"
 - func[412] <_Z30g_DIRECTOR_DETECTION_getObjectv> -> "_Z30g_DIRECTOR_DETECTION_getObjectv"
 - func[413] <_ZN27DirectorMetaEngineDetectionC2Ev> -> "_ZN27DirectorMetaEngineDetectionC2Ev"
 - global[3727] -> "_ZTV27DirectorMetaEngineDetection"
 - global[3728] -> "_ZN8Director14directoryGlobsE"
 - func[414] <_ZN6Common7HashMapINS_6StringEbNS_15IgnoreCase_HashENS_18IgnoreCase_EqualToEE24lookupAndCreateIfMissingERKS1_> -> "_ZN6Common7HashMapINS_6StringEbNS_15IgnoreCase_HashENS_18IgnoreCase_EqualToEE24lookupAndCreateIfMissingERKS1_"
 - func[415] <_ZN27DirectorMetaEngineDetectionD2Ev> -> "_ZN27DirectorMetaEngineDetectionD2Ev"
 - func[416] <_ZN27DirectorMetaEngineDetectionD0Ev> -> "_ZN27DirectorMetaEngineDetectionD0Ev"
 - func[417] <_ZNK27DirectorMetaEngineDetection7getNameEv> -> "_ZNK27DirectorMetaEngineDetection7getNameEv"
 - func[418] <_ZNK27DirectorMetaEngineDetection13getEngineNameEv> -> "_ZNK27DirectorMetaEngineDetection13getEngineNameEv"
 - func[419] <_ZNK27DirectorMetaEngineDetection20getOriginalCopyrightEv> -> "_ZNK27DirectorMetaEngineDetection20getOriginalCopyrightEv"
 - func[420] <_ZNK27DirectorMetaEngineDetection16getDebugChannelsEv> -> "_ZNK27DirectorMetaEngineDetection16getDebugChannelsEv"
 - func[421] <_ZNK27DirectorMetaEngineDetection22canPlayUnknownVariantsEv> -> "_ZNK27DirectorMetaEngineDetection22canPlayUnknownVariantsEv"
 - func[422] <_ZN6Common7HashMapINS_6StringEbNS_15IgnoreCase_HashENS_18IgnoreCase_EqualToEE13expandStorageEj> -> "_ZN6Common7HashMapINS_6StringEbNS_15IgnoreCase_HashENS_18IgnoreCase_EqualToEE13expandStorageEj"
 - global[3729] -> "g_DIRECTOR_DETECTION_type"
 - global[3730] -> "_ZTI27DirectorMetaEngineDetection"
 - global[3731] -> "_ZTS27DirectorMetaEngineDetection"
 - func[423] <_Z24g_DM_DETECTION_getObjectv> -> "_Z24g_DM_DETECTION_getObjectv"
 - global[3732] -> "_ZTVN2DM21DMMetaEngineDetectionE"
 - func[424] <_ZN2DM21DMMetaEngineDetectionD0Ev> -> "_ZN2DM21DMMetaEngineDetectionD0Ev"
 - func[425] <_ZNK2DM21DMMetaEngineDetection7getNameEv> -> "_ZNK2DM21DMMetaEngineDetection7getNameEv"
 - func[426] <_ZNK2DM21DMMetaEngineDetection13getEngineNameEv> -> "_ZNK2DM21DMMetaEngineDetection13getEngineNameEv"
 - func[427] <_ZNK2DM21DMMetaEngineDetection20getOriginalCopyrightEv> -> "_ZNK2DM21DMMetaEngineDetection20getOriginalCopyrightEv"
 - global[3733] -> "g_DM_DETECTION_type"
 - global[3734] -> "_ZTIN2DM21DMMetaEngineDetectionE"
 - global[3735] -> "_ZTSN2DM21DMMetaEngineDetectionE"
 - func[428] <_Z27g_DRACI_DETECTION_getObjectv> -> "_Z27g_DRACI_DETECTION_getObjectv"
 - global[3736] -> "_ZTV24DraciMetaEngineDetection"
 - func[429] <_ZN24DraciMetaEngineDetectionD0Ev> -> "_ZN24DraciMetaEngineDetectionD0Ev"
 - func[430] <_ZNK24DraciMetaEngineDetection7getNameEv> -> "_ZNK24DraciMetaEngineDetection7getNameEv"
 - func[431] <_ZNK24DraciMetaEngineDetection13getEngineNameEv> -> "_ZNK24DraciMetaEngineDetection13getEngineNameEv"
 - func[432] <_ZNK24DraciMetaEngineDetection20getOriginalCopyrightEv> -> "_ZNK24DraciMetaEngineDetection20getOriginalCopyrightEv"
 - func[433] <_ZNK24DraciMetaEngineDetection16getDebugChannelsEv> -> "_ZNK24DraciMetaEngineDetection16getDebugChannelsEv"
 - global[3737] -> "g_DRACI_DETECTION_type"
 - global[3738] -> "_ZTI24DraciMetaEngineDetection"
 - global[3739] -> "_ZTS24DraciMetaEngineDetection"
 - func[434] <_Z29g_DRAGONS_DETECTION_getObjectv> -> "_Z29g_DRAGONS_DETECTION_getObjectv"
 - global[3740] -> "_ZTV26DragonsMetaEngineDetection"
 - func[435] <_ZN26DragonsMetaEngineDetectionD0Ev> -> "_ZN26DragonsMetaEngineDetectionD0Ev"
 - func[436] <_ZNK26DragonsMetaEngineDetection7getNameEv> -> "_ZNK26DragonsMetaEngineDetection7getNameEv"
 - func[437] <_ZNK26DragonsMetaEngineDetection13getEngineNameEv> -> "_ZNK26DragonsMetaEngineDetection13getEngineNameEv"
 - func[438] <_ZNK26DragonsMetaEngineDetection20getOriginalCopyrightEv> -> "_ZNK26DragonsMetaEngineDetection20getOriginalCopyrightEv"
 - global[3741] -> "g_DRAGONS_DETECTION_type"
 - global[3742] -> "_ZTI26DragonsMetaEngineDetection"
 - global[3743] -> "_ZTS26DragonsMetaEngineDetection"
 - func[439] <_Z30g_DRASCULA_DETECTION_getObjectv> -> "_Z30g_DRASCULA_DETECTION_getObjectv"
 - global[3744] -> "_ZTVN8Drascula27DrasculaMetaEngineDetectionE"
 - func[440] <_ZN8Drascula27DrasculaMetaEngineDetectionD0Ev> -> "_ZN8Drascula27DrasculaMetaEngineDetectionD0Ev"
 - func[441] <_ZNK8Drascula27DrasculaMetaEngineDetection7getNameEv> -> "_ZNK8Drascula27DrasculaMetaEngineDetection7getNameEv"
 - func[442] <_ZNK8Drascula27DrasculaMetaEngineDetection13getEngineNameEv> -> "_ZNK8Drascula27DrasculaMetaEngineDetection13getEngineNameEv"
 - func[443] <_ZNK8Drascula27DrasculaMetaEngineDetection20getOriginalCopyrightEv> -> "_ZNK8Drascula27DrasculaMetaEngineDetection20getOriginalCopyrightEv"
 - global[3745] -> "g_DRASCULA_DETECTION_type"
 - global[3746] -> "_ZTIN8Drascula27DrasculaMetaEngineDetectionE"
 - global[3747] -> "_ZTSN8Drascula27DrasculaMetaEngineDetectionE"
 - func[444] <_Z30g_DREAMWEB_DETECTION_getObjectv> -> "_Z30g_DREAMWEB_DETECTION_getObjectv"
 - global[3748] -> "_ZTV27DreamWebMetaEngineDetection"
 - func[445] <_ZN27DreamWebMetaEngineDetectionD0Ev> -> "_ZN27DreamWebMetaEngineDetectionD0Ev"
 - func[446] <_ZNK27DreamWebMetaEngineDetection7getNameEv> -> "_ZNK27DreamWebMetaEngineDetection7getNameEv"
 - func[447] <_ZNK27DreamWebMetaEngineDetection13getEngineNameEv> -> "_ZNK27DreamWebMetaEngineDetection13getEngineNameEv"
 - func[448] <_ZNK27DreamWebMetaEngineDetection20getOriginalCopyrightEv> -> "_ZNK27DreamWebMetaEngineDetection20getOriginalCopyrightEv"
 - func[449] <_ZNK27DreamWebMetaEngineDetection16getDebugChannelsEv> -> "_ZNK27DreamWebMetaEngineDetection16getDebugChannelsEv"
 - global[3749] -> "g_DREAMWEB_DETECTION_type"
 - global[3750] -> "_ZTI27DreamWebMetaEngineDetection"
 - global[3751] -> "_ZTS27DreamWebMetaEngineDetection"
 - func[450] <_Z31g_FREESCAPE_DETECTION_getObjectv> -> "_Z31g_FREESCAPE_DETECTION_getObjectv"
 - global[3752] -> "_ZTV28FreescapeMetaEngineDetection"
 - func[451] <_ZN28FreescapeMetaEngineDetectionD0Ev> -> "_ZN28FreescapeMetaEngineDetectionD0Ev"
 - func[452] <_ZNK28FreescapeMetaEngineDetection7getNameEv> -> "_ZNK28FreescapeMetaEngineDetection7getNameEv"
 - func[453] <_ZNK28FreescapeMetaEngineDetection13getEngineNameEv> -> "_ZNK28FreescapeMetaEngineDetection13getEngineNameEv"
 - func[454] <_ZNK28FreescapeMetaEngineDetection20getOriginalCopyrightEv> -> "_ZNK28FreescapeMetaEngineDetection20getOriginalCopyrightEv"
 - func[455] <_ZNK28FreescapeMetaEngineDetection16getDebugChannelsEv> -> "_ZNK28FreescapeMetaEngineDetection16getDebugChannelsEv"
 - global[3753] -> "g_FREESCAPE_DETECTION_type"
 - global[3754] -> "_ZTI28FreescapeMetaEngineDetection"
 - global[3755] -> "_ZTS28FreescapeMetaEngineDetection"
 - func[456] <_ZN3Glk15GlkDetectedGame16getGlkGUIOptionsEv> -> "_ZN3Glk15GlkDetectedGame16getGlkGUIOptionsEv"
 - func[457] <_ZN3Glk15GlkDetectedGameC1EPKcS2_RKN6Common6StringE16GameSupportLevel> -> "_ZN3Glk15GlkDetectedGameC2EPKcS2_RKN6Common6StringE16GameSupportLevel"
 - func[1710] <_ZN12DetectedGameC1ERKN6Common6StringES3_S3_NS0_8LanguageENS0_8PlatformES3_b> -> "_ZN12DetectedGameC2ERKN6Common6StringES3_S3_NS0_8LanguageENS0_8PlatformES3_b"
 - func[1712] <_ZN12DetectedGame13setGUIOptionsERKN6Common6StringE> -> "_ZN12DetectedGame13setGUIOptionsERKN6Common6StringE"
 - func[458] <_ZN6Common7HashMapINS_6StringES1_NS_15IgnoreCase_HashENS_18IgnoreCase_EqualToEE24lookupAndCreateIfMissingERKS1_> -> "_ZN6Common7HashMapINS_6StringES1_NS_15IgnoreCase_HashENS_18IgnoreCase_EqualToEE24lookupAndCreateIfMissingERKS1_"
 - func[459] <_ZN3Glk15GlkDetectedGameC1EPKcS2_RKN6Common6StringENS3_8LanguageENS3_8PlatformE16GameSupportLevel> -> "_ZN3Glk15GlkDetectedGameC2EPKcS2_RKN6Common6StringENS3_8LanguageENS3_8PlatformE16GameSupportLevel"
 - func[460] <_ZN3Glk15GlkDetectedGameC1EPKcS2_S2_RKN6Common6StringENS3_8LanguageE16GameSupportLevel> -> "_ZN3Glk15GlkDetectedGameC2EPKcS2_S2_RKN6Common6StringENS3_8LanguageE16GameSupportLevel"
 - func[461] <_ZN3Glk15GlkDetectedGameC1EPKcS2_RKN6Common6StringES6_m16GameSupportLevel> -> "_ZN3Glk15GlkDetectedGameC2EPKcS2_RKN6Common6StringES6_m16GameSupportLevel"
 - func[462] <_ZNK22GlkMetaEngineDetection17getSupportedGamesEv> -> "_ZNK22GlkMetaEngineDetection17getSupportedGamesEv"
 - func[475] <_ZN3Glk6Adrift16AdriftMetaEngine17getSupportedGamesER13PlainGameList> -> "_ZN3Glk6Adrift16AdriftMetaEngine17getSupportedGamesER13PlainGameList"
 - func[481] <_ZN3Glk6AdvSys16AdvSysMetaEngine17getSupportedGamesER13PlainGameList> -> "_ZN3Glk6AdvSys16AdvSysMetaEngine17getSupportedGamesER13PlainGameList"
 - func[485] <_ZN3Glk3AGT13AGTMetaEngine17getSupportedGamesER13PlainGameList> -> "_ZN3Glk3AGT13AGTMetaEngine17getSupportedGamesER13PlainGameList"
 - func[489] <_ZN3Glk5Alan215Alan2MetaEngine17getSupportedGamesER13PlainGameList> -> "_ZN3Glk5Alan215Alan2MetaEngine17getSupportedGamesER13PlainGameList"
 - func[493] <_ZN3Glk5Alan315Alan3MetaEngine17getSupportedGamesER13PlainGameList> -> "_ZN3Glk5Alan315Alan3MetaEngine17getSupportedGamesER13PlainGameList"
 - func[497] <_ZN3Glk9Archetype19ArchetypeMetaEngine17getSupportedGamesER13PlainGameList> -> "_ZN3Glk9Archetype19ArchetypeMetaEngine17getSupportedGamesER13PlainGameList"
 - func[501] <_ZN3Glk10Comprehend20ComprehendMetaEngine17getSupportedGamesER13PlainGameList> -> "_ZN3Glk10Comprehend20ComprehendMetaEngine17getSupportedGamesER13PlainGameList"
 - func[505] <_ZN3Glk5Glulx15GlulxMetaEngine17getSupportedGamesER13PlainGameList> -> "_ZN3Glk5Glulx15GlulxMetaEngine17getSupportedGamesER13PlainGameList"
 - func[509] <_ZN3Glk4Hugo14HugoMetaEngine17getSupportedGamesER13PlainGameList> -> "_ZN3Glk4Hugo14HugoMetaEngine17getSupportedGamesER13PlainGameList"
 - func[513] <_ZN3Glk4JACL14JACLMetaEngine17getSupportedGamesER13PlainGameList> -> "_ZN3Glk4JACL14JACLMetaEngine17getSupportedGamesER13PlainGameList"
 - func[534] <_ZN3Glk6Level916Level9MetaEngine17getSupportedGamesER13PlainGameList> -> "_ZN3Glk6Level916Level9MetaEngine17getSupportedGamesER13PlainGameList"
 - func[538] <_ZN3Glk8Magnetic18MagneticMetaEngine17getSupportedGamesER13PlainGameList> -> "_ZN3Glk8Magnetic18MagneticMetaEngine17getSupportedGamesER13PlainGameList"
 - func[543] <_ZN3Glk5Quest15QuestMetaEngine17getSupportedGamesER13PlainGameList> -> "_ZN3Glk5Quest15QuestMetaEngine17getSupportedGamesER13PlainGameList"
 - func[547] <_ZN3Glk5Scott15ScottMetaEngine17getSupportedGamesER13PlainGameList> -> "_ZN3Glk5Scott15ScottMetaEngine17getSupportedGamesER13PlainGameList"
 - func[556] <_ZN3Glk5ZCode15ZCodeMetaEngine17getSupportedGamesER13PlainGameList> -> "_ZN3Glk5ZCode15ZCodeMetaEngine17getSupportedGamesER13PlainGameList"
 - func[551] <_ZN3Glk4TADS14TADSMetaEngine17getSupportedGamesER13PlainGameList> -> "_ZN3Glk4TADS14TADSMetaEngine17getSupportedGamesER13PlainGameList"
 - func[463] <_ZNK22GlkMetaEngineDetection16getDebugChannelsEv> -> "_ZNK22GlkMetaEngineDetection16getDebugChannelsEv"
 - func[464] <_ZNK22GlkMetaEngineDetection8findGameEPKc> -> "_ZNK22GlkMetaEngineDetection8findGameEPKc"
 - func[477] <_ZN3Glk6Adrift16AdriftMetaEngine8findGameEPKc> -> "_ZN3Glk6Adrift16AdriftMetaEngine8findGameEPKc"
 - func[482] <_ZN3Glk6AdvSys16AdvSysMetaEngine8findGameEPKc> -> "_ZN3Glk6AdvSys16AdvSysMetaEngine8findGameEPKc"
 - func[490] <_ZN3Glk5Alan215Alan2MetaEngine8findGameEPKc> -> "_ZN3Glk5Alan215Alan2MetaEngine8findGameEPKc"
 - func[486] <_ZN3Glk3AGT13AGTMetaEngine8findGameEPKc> -> "_ZN3Glk3AGT13AGTMetaEngine8findGameEPKc"
 - func[494] <_ZN3Glk5Alan315Alan3MetaEngine8findGameEPKc> -> "_ZN3Glk5Alan315Alan3MetaEngine8findGameEPKc"
 - func[498] <_ZN3Glk9Archetype19ArchetypeMetaEngine8findGameEPKc> -> "_ZN3Glk9Archetype19ArchetypeMetaEngine8findGameEPKc"
 - func[502] <_ZN3Glk10Comprehend20ComprehendMetaEngine8findGameEPKc> -> "_ZN3Glk10Comprehend20ComprehendMetaEngine8findGameEPKc"
 - func[506] <_ZN3Glk5Glulx15GlulxMetaEngine8findGameEPKc> -> "_ZN3Glk5Glulx15GlulxMetaEngine8findGameEPKc"
 - func[510] <_ZN3Glk4Hugo14HugoMetaEngine8findGameEPKc> -> "_ZN3Glk4Hugo14HugoMetaEngine8findGameEPKc"
 - func[514] <_ZN3Glk4JACL14JACLMetaEngine8findGameEPKc> -> "_ZN3Glk4JACL14JACLMetaEngine8findGameEPKc"
 - func[535] <_ZN3Glk6Level916Level9MetaEngine8findGameEPKc> -> "_ZN3Glk6Level916Level9MetaEngine8findGameEPKc"
 - func[539] <_ZN3Glk8Magnetic18MagneticMetaEngine8findGameEPKc> -> "_ZN3Glk8Magnetic18MagneticMetaEngine8findGameEPKc"
 - func[544] <_ZN3Glk5Quest15QuestMetaEngine8findGameEPKc> -> "_ZN3Glk5Quest15QuestMetaEngine8findGameEPKc"
 - func[548] <_ZN3Glk5Scott15ScottMetaEngine8findGameEPKc> -> "_ZN3Glk5Scott15ScottMetaEngine8findGameEPKc"
 - func[557] <_ZN3Glk5ZCode15ZCodeMetaEngine8findGameEPKc> -> "_ZN3Glk5ZCode15ZCodeMetaEngine8findGameEPKc"
 - func[552] <_ZN3Glk4TADS14TADSMetaEngine8findGameEPKc> -> "_ZN3Glk4TADS14TADSMetaEngine8findGameEPKc"
 - func[465] <_ZN22GlkMetaEngineDetection11detectGamesERKN6Common6FSListEjb> -> "_ZN22GlkMetaEngineDetection11detectGamesERKN6Common6FSListEjb"
 - func[466] <_ZNK22GlkMetaEngineDetection13detectClashesEv> -> "_ZNK22GlkMetaEngineDetection13detectClashesEv"
 - func[478] <_ZN3Glk6Adrift16AdriftMetaEngine11detectGamesERKN6Common6FSListERNS2_5ArrayI12DetectedGameEE> -> "_ZN3Glk6Adrift16AdriftMetaEngine11detectGamesERKN6Common6FSListERNS2_5ArrayI12DetectedGameEE"
 - func[483] <_ZN3Glk6AdvSys16AdvSysMetaEngine11detectGamesERKN6Common6FSListERNS2_5ArrayI12DetectedGameEE> -> "_ZN3Glk6AdvSys16AdvSysMetaEngine11detectGamesERKN6Common6FSListERNS2_5ArrayI12DetectedGameEE"
 - func[487] <_ZN3Glk3AGT13AGTMetaEngine11detectGamesERKN6Common6FSListERNS2_5ArrayI12DetectedGameEE> -> "_ZN3Glk3AGT13AGTMetaEngine11detectGamesERKN6Common6FSListERNS2_5ArrayI12DetectedGameEE"
 - func[491] <_ZN3Glk5Alan215Alan2MetaEngine11detectGamesERKN6Common6FSListERNS2_5ArrayI12DetectedGameEE> -> "_ZN3Glk5Alan215Alan2MetaEngine11detectGamesERKN6Common6FSListERNS2_5ArrayI12DetectedGameEE"
 - func[495] <_ZN3Glk5Alan315Alan3MetaEngine11detectGamesERKN6Common6FSListERNS2_5ArrayI12DetectedGameEE> -> "_ZN3Glk5Alan315Alan3MetaEngine11detectGamesERKN6Common6FSListERNS2_5ArrayI12DetectedGameEE"
 - func[499] <_ZN3Glk9Archetype19ArchetypeMetaEngine11detectGamesERKN6Common6FSListERNS2_5ArrayI12DetectedGameEE> -> "_ZN3Glk9Archetype19ArchetypeMetaEngine11detectGamesERKN6Common6FSListERNS2_5ArrayI12DetectedGameEE"
 - func[503] <_ZN3Glk10Comprehend20ComprehendMetaEngine11detectGamesERKN6Common6FSListERNS2_5ArrayI12DetectedGameEE> -> "_ZN3Glk10Comprehend20ComprehendMetaEngine11detectGamesERKN6Common6FSListERNS2_5ArrayI12DetectedGameEE"
 - func[507] <_ZN3Glk5Glulx15GlulxMetaEngine11detectGamesERKN6Common6FSListERNS2_5ArrayI12DetectedGameEE> -> "_ZN3Glk5Glulx15GlulxMetaEngine11detectGamesERKN6Common6FSListERNS2_5ArrayI12DetectedGameEE"
 - func[511] <_ZN3Glk4Hugo14HugoMetaEngine11detectGamesERKN6Common6FSListERNS2_5ArrayI12DetectedGameEE> -> "_ZN3Glk4Hugo14HugoMetaEngine11detectGamesERKN6Common6FSListERNS2_5ArrayI12DetectedGameEE"
 - func[515] <_ZN3Glk4JACL14JACLMetaEngine11detectGamesERKN6Common6FSListERNS2_5ArrayI12DetectedGameEE> -> "_ZN3Glk4JACL14JACLMetaEngine11detectGamesERKN6Common6FSListERNS2_5ArrayI12DetectedGameEE"
 - func[536] <_ZN3Glk6Level916Level9MetaEngine11detectGamesERKN6Common6FSListERNS2_5ArrayI12DetectedGameEE> -> "_ZN3Glk6Level916Level9MetaEngine11detectGamesERKN6Common6FSListERNS2_5ArrayI12DetectedGameEE"
 - func[540] <_ZN3Glk8Magnetic18MagneticMetaEngine11detectGamesERKN6Common6FSListERNS2_5ArrayI12DetectedGameEE> -> "_ZN3Glk8Magnetic18MagneticMetaEngine11detectGamesERKN6Common6FSListERNS2_5ArrayI12DetectedGameEE"
 - func[545] <_ZN3Glk5Quest15QuestMetaEngine11detectGamesERKN6Common6FSListERNS2_5ArrayI12DetectedGameEE> -> "_ZN3Glk5Quest15QuestMetaEngine11detectGamesERKN6Common6FSListERNS2_5ArrayI12DetectedGameEE"
 - func[549] <_ZN3Glk5Scott15ScottMetaEngine11detectGamesERKN6Common6FSListERNS2_5ArrayI12DetectedGameEE> -> "_ZN3Glk5Scott15ScottMetaEngine11detectGamesERKN6Common6FSListERNS2_5ArrayI12DetectedGameEE"
 - func[558] <_ZN3Glk5ZCode15ZCodeMetaEngine11detectGamesERKN6Common6FSListERNS2_5ArrayI12DetectedGameEE> -> "_ZN3Glk5ZCode15ZCodeMetaEngine11detectGamesERKN6Common6FSListERNS2_5ArrayI12DetectedGameEE"
 - func[553] <_ZN3Glk4TADS14TADSMetaEngine11detectGamesERKN6Common6FSListERNS2_5ArrayI12DetectedGameEE> -> "_ZN3Glk4TADS14TADSMetaEngine11detectGamesERKN6Common6FSListERNS2_5ArrayI12DetectedGameEE"
 - func[480] <_ZN3Glk6Adrift16AdriftMetaEngine13detectClashesERN6Common7HashMapINS2_6StringES4_NS2_15IgnoreCase_HashENS2_18IgnoreCase_EqualToEEE> -> "_ZN3Glk6Adrift16AdriftMetaEngine13detectClashesERN6Common7HashMapINS2_6StringES4_NS2_15IgnoreCase_HashENS2_18IgnoreCase_EqualToEEE"
 - func[484] <_ZN3Glk6AdvSys16AdvSysMetaEngine13detectClashesERN6Common7HashMapINS2_6StringES4_NS2_15IgnoreCase_HashENS2_18IgnoreCase_EqualToEEE> -> "_ZN3Glk6AdvSys16AdvSysMetaEngine13detectClashesERN6Common7HashMapINS2_6StringES4_NS2_15IgnoreCase_HashENS2_18IgnoreCase_EqualToEEE"
 - func[488] <_ZN3Glk3AGT13AGTMetaEngine13detectClashesERN6Common7HashMapINS2_6StringES4_NS2_15IgnoreCase_HashENS2_18IgnoreCase_EqualToEEE> -> "_ZN3Glk3AGT13AGTMetaEngine13detectClashesERN6Common7HashMapINS2_6StringES4_NS2_15IgnoreCase_HashENS2_18IgnoreCase_EqualToEEE"
 - func[492] <_ZN3Glk5Alan215Alan2MetaEngine13detectClashesERN6Common7HashMapINS2_6StringES4_NS2_15IgnoreCase_HashENS2_18IgnoreCase_EqualToEEE> -> "_ZN3Glk5Alan215Alan2MetaEngine13detectClashesERN6Common7HashMapINS2_6StringES4_NS2_15IgnoreCase_HashENS2_18IgnoreCase_EqualToEEE"
 - func[496] <_ZN3Glk5Alan315Alan3MetaEngine13detectClashesERN6Common7HashMapINS2_6StringES4_NS2_15IgnoreCase_HashENS2_18IgnoreCase_EqualToEEE> -> "_ZN3Glk5Alan315Alan3MetaEngine13detectClashesERN6Common7HashMapINS2_6StringES4_NS2_15IgnoreCase_HashENS2_18IgnoreCase_EqualToEEE"
 - func[500] <_ZN3Glk9Archetype19ArchetypeMetaEngine13detectClashesERN6Common7HashMapINS2_6StringES4_NS2_15IgnoreCase_HashENS2_18IgnoreCase_EqualToEEE> -> "_ZN3Glk9Archetype19ArchetypeMetaEngine13detectClashesERN6Common7HashMapINS2_6StringES4_NS2_15IgnoreCase_HashENS2_18IgnoreCase_EqualToEEE"
 - func[504] <_ZN3Glk10Comprehend20ComprehendMetaEngine13detectClashesERN6Common7HashMapINS2_6StringES4_NS2_15IgnoreCase_HashENS2_18IgnoreCase_EqualToEEE> -> "_ZN3Glk10Comprehend20ComprehendMetaEngine13detectClashesERN6Common7HashMapINS2_6StringES4_NS2_15IgnoreCase_HashENS2_18IgnoreCase_EqualToEEE"
 - func[508] <_ZN3Glk5Glulx15GlulxMetaEngine13detectClashesERN6Common7HashMapINS2_6StringES4_NS2_15IgnoreCase_HashENS2_18IgnoreCase_EqualToEEE> -> "_ZN3Glk5Glulx15GlulxMetaEngine13detectClashesERN6Common7HashMapINS2_6StringES4_NS2_15IgnoreCase_HashENS2_18IgnoreCase_EqualToEEE"
 - func[512] <_ZN3Glk4Hugo14HugoMetaEngine13detectClashesERN6Common7HashMapINS2_6StringES4_NS2_15IgnoreCase_HashENS2_18IgnoreCase_EqualToEEE> -> "_ZN3Glk4Hugo14HugoMetaEngine13detectClashesERN6Common7HashMapINS2_6StringES4_NS2_15IgnoreCase_HashENS2_18IgnoreCase_EqualToEEE"
 - func[516] <_ZN3Glk4JACL14JACLMetaEngine13detectClashesERN6Common7HashMapINS2_6StringES4_NS2_15IgnoreCase_HashENS2_18IgnoreCase_EqualToEEE> -> "_ZN3Glk4JACL14JACLMetaEngine13detectClashesERN6Common7HashMapINS2_6StringES4_NS2_15IgnoreCase_HashENS2_18IgnoreCase_EqualToEEE"
 - func[537] <_ZN3Glk6Level916Level9MetaEngine13detectClashesERN6Common7HashMapINS2_6StringES4_NS2_15IgnoreCase_HashENS2_18IgnoreCase_EqualToEEE> -> "_ZN3Glk6Level916Level9MetaEngine13detectClashesERN6Common7HashMapINS2_6StringES4_NS2_15IgnoreCase_HashENS2_18IgnoreCase_EqualToEEE"
 - func[541] <_ZN3Glk8Magnetic18MagneticMetaEngine13detectClashesERN6Common7HashMapINS2_6StringES4_NS2_15IgnoreCase_HashENS2_18IgnoreCase_EqualToEEE> -> "_ZN3Glk8Magnetic18MagneticMetaEngine13detectClashesERN6Common7HashMapINS2_6StringES4_NS2_15IgnoreCase_HashENS2_18IgnoreCase_EqualToEEE"
 - func[546] <_ZN3Glk5Quest15QuestMetaEngine13detectClashesERN6Common7HashMapINS2_6StringES4_NS2_15IgnoreCase_HashENS2_18IgnoreCase_EqualToEEE> -> "_ZN3Glk5Quest15QuestMetaEngine13detectClashesERN6Common7HashMapINS2_6StringES4_NS2_15IgnoreCase_HashENS2_18IgnoreCase_EqualToEEE"
 - func[550] <_ZN3Glk5Scott15ScottMetaEngine13detectClashesERN6Common7HashMapINS2_6StringES4_NS2_15IgnoreCase_HashENS2_18IgnoreCase_EqualToEEE> -> "_ZN3Glk5Scott15ScottMetaEngine13detectClashesERN6Common7HashMapINS2_6StringES4_NS2_15IgnoreCase_HashENS2_18IgnoreCase_EqualToEEE"
 - func[559] <_ZN3Glk5ZCode15ZCodeMetaEngine13detectClashesERN6Common7HashMapINS2_6StringES4_NS2_15IgnoreCase_HashENS2_18IgnoreCase_EqualToEEE> -> "_ZN3Glk5ZCode15ZCodeMetaEngine13detectClashesERN6Common7HashMapINS2_6StringES4_NS2_15IgnoreCase_HashENS2_18IgnoreCase_EqualToEEE"
 - func[555] <_ZN3Glk4TADS14TADSMetaEngine13detectClashesERN6Common7HashMapINS2_6StringES4_NS2_15IgnoreCase_HashENS2_18IgnoreCase_EqualToEEE> -> "_ZN3Glk4TADS14TADSMetaEngine13detectClashesERN6Common7HashMapINS2_6StringES4_NS2_15IgnoreCase_HashENS2_18IgnoreCase_EqualToEEE"
 - func[467] <_ZNK22GlkMetaEngineDetection11getMD5BytesEv> -> "_ZNK22GlkMetaEngineDetection11getMD5BytesEv"
 - func[468] <_Z25g_GLK_DETECTION_getObjectv> -> "_Z25g_GLK_DETECTION_getObjectv"
 - global[3756] -> "_ZTV22GlkMetaEngineDetection"
 - func[469] <_ZN12PluginObjectD2Ev> -> "_ZN12PluginObjectD2Ev"
 - func[470] <_ZN22GlkMetaEngineDetectionD0Ev> -> "_ZN22GlkMetaEngineDetectionD0Ev"
 - func[471] <_ZNK22GlkMetaEngineDetection7getNameEv> -> "_ZNK22GlkMetaEngineDetection7getNameEv"
 - func[472] <_ZNK22GlkMetaEngineDetection13getEngineNameEv> -> "_ZNK22GlkMetaEngineDetection13getEngineNameEv"
 - func[473] <_ZNK22GlkMetaEngineDetection20getOriginalCopyrightEv> -> "_ZNK22GlkMetaEngineDetection20getOriginalCopyrightEv"
 - func[474] <_ZN6Common7HashMapINS_6StringES1_NS_15IgnoreCase_HashENS_18IgnoreCase_EqualToEE13expandStorageEj> -> "_ZN6Common7HashMapINS_6StringES1_NS_15IgnoreCase_HashENS_18IgnoreCase_EqualToEE13expandStorageEj"
 - global[3757] -> "g_GLK_DETECTION_type"
 - global[3758] -> "_ZTI22GlkMetaEngineDetection"
 - global[3759] -> "_ZTS22GlkMetaEngineDetection"
 - global[3760] -> "_ZTS19MetaEngineDetection"
 - global[3761] -> "_ZTS12PluginObject"
 - global[3762] -> "_ZTI12PluginObject"
 - global[3763] -> "_ZTI19MetaEngineDetection"
 - func[457] <_ZN3Glk15GlkDetectedGameC1EPKcS2_RKN6Common6StringE16GameSupportLevel> -> "_ZN3Glk15GlkDetectedGameC1EPKcS2_RKN6Common6StringE16GameSupportLevel"
 - func[459] <_ZN3Glk15GlkDetectedGameC1EPKcS2_RKN6Common6StringENS3_8LanguageENS3_8PlatformE16GameSupportLevel> -> "_ZN3Glk15GlkDetectedGameC1EPKcS2_RKN6Common6StringENS3_8LanguageENS3_8PlatformE16GameSupportLevel"
 - func[460] <_ZN3Glk15GlkDetectedGameC1EPKcS2_S2_RKN6Common6StringENS3_8LanguageE16GameSupportLevel> -> "_ZN3Glk15GlkDetectedGameC1EPKcS2_S2_RKN6Common6StringENS3_8LanguageE16GameSupportLevel"
 - func[461] <_ZN3Glk15GlkDetectedGameC1EPKcS2_RKN6Common6StringES6_m16GameSupportLevel> -> "_ZN3Glk15GlkDetectedGameC1EPKcS2_RKN6Common6StringES6_m16GameSupportLevel"
 - func[476] <_ZN6Common5ArrayI19PlainGameDescriptorE10insert_auxEPS1_PKS1_S5_> -> "_ZN6Common5ArrayI19PlainGameDescriptorE10insert_auxEPS1_PKS1_S5_"
 - func[571] <_ZN3Glk5Blorb11hasBlorbExtERKN6Common6StringE> -> "_ZN3Glk5Blorb11hasBlorbExtERKN6Common6StringE"
 - func[11931] <_ZN6Common4File4readEPvj> -> "_ZN6Common4File4readEPvj"
 - func[569] <_ZN3Glk5Blorb7isBlorbERN6Common18SeekableReadStreamEj> -> "_ZN3Glk5Blorb7isBlorbERN6Common18SeekableReadStreamEj"
 - func[11920] <_ZN6Common4File5closeEv> -> "_ZN6Common4File5closeEv"
 - func[479] <_ZN3Glk6Adrift16AdriftMetaEngine17detectGameVersionEPKh> -> "_ZN3Glk6Adrift16AdriftMetaEngine17detectGameVersionEPKh"
 - func[581] <_ZN3Glk6AdvSys6Header4initEPN6Common18SeekableReadStreamE> -> "_ZN3Glk6AdvSys6Header4initEPN6Common18SeekableReadStreamE"
 - func[1710] <_ZN12DetectedGameC1ERKN6Common6StringES3_S3_NS0_8LanguageENS0_8PlatformES3_b> -> "_ZN12DetectedGameC1ERKN6Common6StringES3_S3_NS0_8LanguageENS0_8PlatformES3_b"
 - func[12245] <_ZN6CommoneqEPKcRKNS_6StringE> -> "_ZN6CommoneqEPKcRKNS_6StringE"
 - func[517] <_ZN3Glk6Level97Scanner7scannerEPhjPS2_S3_> -> "_ZN3Glk6Level97Scanner7scannerEPhjPS2_S3_"
 - func[518] <_ZN3Glk6Level97Scanner4scanEPhj> -> "_ZN3Glk6Level97Scanner4scanEPhj"
 - func[519] <_ZN3Glk6Level97Scanner6ScanV2EPhj> -> "_ZN3Glk6Level97Scanner6ScanV2EPhj"
 - func[520] <_ZN3Glk6Level97Scanner6ScanV1EPhj> -> "_ZN3Glk6Level97Scanner6ScanV1EPhj"
 - func[521] <_ZN3Glk6Level97Scanner16ValidateSequenceEPhS2_jjPjjS3_S3_bPbS4_> -> "_ZN3Glk6Level97Scanner16ValidateSequenceEPhS2_jjPjjS3_S3_bPbS4_"
 - func[522] <_ZNK3Glk6Level97Scanner6v1GameEv> -> "_ZNK3Glk6Level97Scanner6v1GameEv"
 - func[523] <_ZN3Glk6Level97Scanner17CheckCallDriverV4EPhj> -> "_ZN3Glk6Level97Scanner17CheckCallDriverV4EPhj"
 - func[524] <_ZN3Glk6Level97Scanner11scangetaddrEiPhPjjPi> -> "_ZN3Glk6Level97Scanner11scangetaddrEiPhPjjPi"
 - func[525] <_ZN3Glk6Level97Scanner10scangetconEiPjPi> -> "_ZN3Glk6Level97Scanner10scangetconEiPjPi"
 - func[526] <_ZN3Glk6Level97Scanner13scanmovewa5d0EPhPj> -> "_ZN3Glk6Level97Scanner13scanmovewa5d0EPhPj"
 - func[527] <_ZN3Glk6Level913GameDetectionC1ERPhRj> -> "_ZN3Glk6Level913GameDetectionC2ERPhRj"
 - func[528] <_ZN3Glk6Level913GameDetection24gln_gameid_identify_gameEv> -> "_ZN3Glk6Level913GameDetection24gln_gameid_identify_gameEv"
 - func[529] <_ZN3Glk6Level913GameDetection18gln_get_buffer_crcEPKvmm> -> "_ZN3Glk6Level913GameDetection18gln_get_buffer_crcEPKvmm"
 - func[530] <_ZNK3Glk6Level913GameDetection23gln_gameid_lookup_patchEtht> -> "_ZNK3Glk6Level913GameDetection23gln_gameid_lookup_patchEtht"
 - func[531] <_ZNK3Glk6Level913GameDetection22gln_gameid_lookup_gameEthti> -> "_ZNK3Glk6Level913GameDetection22gln_gameid_lookup_gameEthti"
 - func[532] <_ZN3Glk6Level913GameDetection24gln_gameid_get_game_nameEv> -> "_ZN3Glk6Level913GameDetection24gln_gameid_get_game_nameEv"
 - func[533] <_ZN3Glk6Level913GameDetection26gln_gameid_game_name_resetEv> -> "_ZN3Glk6Level913GameDetection26gln_gameid_game_name_resetEv"
 - func[527] <_ZN3Glk6Level913GameDetectionC1ERPhRj> -> "_ZN3Glk6Level913GameDetectionC1ERPhRj"
 - func[542] <_ZN3Glk8Magnetic22gms_gameid_lookup_gameEjj> -> "_ZN3Glk8Magnetic22gms_gameid_lookup_gameEjj"
 - func[1708] <_ZN12DetectedGameC2Ev> -> "_ZN12DetectedGameC1Ev"
 - func[554] <_ZN3Glk4TADS14TADSMetaEngine14getTADSVersionERN6Common18SeekableReadStreamE> -> "_ZN3Glk4TADS14TADSMetaEngine14getTADSVersionERN6Common18SeekableReadStreamE"
 - func[12267] <_ZN6Common8strcpy_sEPcmPKc> -> "_ZN6Common8strcpy_sEPcmPKc"
 - func[564] <_ZN3Glk5BlorbC2ERKN6Common6FSNodeENS_15InterpreterTypeE> -> "_ZN3Glk5BlorbC1ERKN6Common6FSNodeENS_15InterpreterTypeE"
 - func[568] <_ZNK3Glk5Blorb25createReadStreamForMemberERKN6Common4PathE> -> "_ZNK3Glk5Blorb25createReadStreamForMemberERKN6Common4PathE"
 - global[3764] -> "_ZTVN3Glk5BlorbE"
 - func[560] <_ZN3Glk5BlorbC1ERKN6Common6StringENS_15InterpreterTypeE> -> "_ZN3Glk5BlorbC2ERKN6Common6StringENS_15InterpreterTypeE"
 - func[561] <_ZN3Glk5Blorb4loadEv> -> "_ZN3Glk5Blorb4loadEv"
 - func[11915] <_ZN6Common4File4openERKNS_4PathE> -> "_ZN6Common4File4openERKNS_4PathE"
 - func[562] <_ZN3Glk5Blorb8readRIdxERN6Common18SeekableReadStreamERNS1_5ArrayINS_10ChunkEntryEEE> -> "_ZN3Glk5Blorb8readRIdxERN6Common18SeekableReadStreamERNS1_5ArrayINS_10ChunkEntryEEE"
 - func[563] <_ZN6Common5ArrayIN3Glk10ChunkEntryEE10insert_auxEPS2_PKS2_S6_> -> "_ZN6Common5ArrayIN3Glk10ChunkEntryEE10insert_auxEPS2_PKS2_S6_"
 - func[564] <_ZN3Glk5BlorbC2ERKN6Common6FSNodeENS_15InterpreterTypeE> -> "_ZN3Glk5BlorbC2ERKN6Common6FSNodeENS_15InterpreterTypeE"
 - func[565] <_ZNK3Glk5Blorb7hasFileERKN6Common4PathE> -> "_ZNK3Glk5Blorb7hasFileERKN6Common4PathE"
 - func[12101] <_ZNK6Common4Path8toStringEc> -> "_ZNK6Common4Path8toStringEc"
 - func[566] <_ZNK3Glk5Blorb11listMembersERN6Common4ListINS1_9SharedPtrINS1_13ArchiveMemberEEEEE> -> "_ZNK3Glk5Blorb11listMembersERN6Common4ListINS1_9SharedPtrINS1_13ArchiveMemberEEEEE"
 - func[11558] <_ZN6Common20GenericArchiveMemberC2ERKNS_6StringEPKNS_7ArchiveE> -> "_ZN6Common20GenericArchiveMemberC1ERKNS_6StringEPKNS_7ArchiveE"
 - global[3765] -> "_ZTVN6Common18BasePtrTrackerImplINS_20GenericArchiveMemberEEE"
 - func[567] <_ZNK3Glk5Blorb9getMemberERKN6Common4PathE> -> "_ZNK3Glk5Blorb9getMemberERKN6Common4PathE"
 - func[12281] <_ZN6Common10ReadStream10readStreamEj> -> "_ZN6Common10ReadStream10readStreamEj"
 - func[570] <_ZN3Glk5Blorb7isBlorbERKN6Common6StringEj> -> "_ZN3Glk5Blorb7isBlorbERKN6Common6StringEj"
 - func[572] <_ZN3Glk5Blorb17getBlorbFilenamesERKN6Common6StringERNS1_5ArrayIS2_EENS_15InterpreterTypeES4_> -> "_ZN3Glk5Blorb17getBlorbFilenamesERKN6Common6StringERNS1_5ArrayIS2_EENS_15InterpreterTypeES4_"
 - func[11636] <_ZN6Common10BaseStringIcE14deleteLastCharEv> -> "_ZN6Common10BaseStringIcE14deleteLastCharEv"
 - func[573] <_ZN6Common5ArrayINS_6StringEE10insert_auxEPS1_PKS1_S5_> -> "_ZN6Common5ArrayINS_6StringEE10insert_auxEPS1_PKS1_S5_"
 - func[574] <_ZN3Glk5Blorb24getInfocomBlorbFilenamesERN6Common5ArrayINS1_6StringEEERKS3_> -> "_ZN3Glk5Blorb24getInfocomBlorbFilenamesERN6Common5ArrayINS1_6StringEEERKS3_"
 - func[575] <_ZN6Common5ArrayINS_6StringEE9push_backERKS1_> -> "_ZN6Common5ArrayINS_6StringEE9push_backERKS1_"
 - func[576] <_ZN3Glk5BlorbD2Ev> -> "_ZN3Glk5BlorbD2Ev"
 - func[577] <_ZN3Glk5BlorbD0Ev> -> "_ZN3Glk5BlorbD0Ev"
 - func[578] <_ZN6Common18BasePtrTrackerImplINS_20GenericArchiveMemberEED0Ev> -> "_ZN6Common18BasePtrTrackerImplINS_20GenericArchiveMemberEED0Ev"
 - func[579] <_ZN6Common18BasePtrTrackerImplINS_20GenericArchiveMemberEE14destructObjectEv> -> "_ZN6Common18BasePtrTrackerImplINS_20GenericArchiveMemberEE14destructObjectEv"
 - global[3766] -> "_ZTIN3Glk5BlorbE"
 - func[11561] <_ZNK6Common7Archive19listMatchingMembersERNS_4ListINS_9SharedPtrINS_13ArchiveMemberEEEEERKNS_4PathE> -> "_ZNK6Common7Archive19listMatchingMembersERNS_4ListINS_9SharedPtrINS_13ArchiveMemberEEEEERKNS_4PathE"
 - global[3767] -> "_ZTSN3Glk5BlorbE"
 - global[3768] -> "_ZTIN6Common7ArchiveE"
 - global[3769] -> "_ZTIN6Common18BasePtrTrackerImplINS_20GenericArchiveMemberEEE"
 - global[3770] -> "_ZTSN6Common18BasePtrTrackerImplINS_20GenericArchiveMemberEEE"
 - func[560] <_ZN3Glk5BlorbC1ERKN6Common6StringENS_15InterpreterTypeE> -> "_ZN3Glk5BlorbC1ERKN6Common6StringENS_15InterpreterTypeE"
 - func[580] <_ZN3Glk6AdvSys9Decrypter7decryptEPhm> -> "_ZN3Glk6AdvSys9Decrypter7decryptEPhm"
 - func[11612] <_ZN6Common10BaseStringIcEC1EPKcS3_> -> "_ZN6Common10BaseStringIcEC2EPKcS3_"
 - func[582] <_ZN3Glk6AdvSys4GameC1Ev> -> "_ZN3Glk6AdvSys4GameC2Ev"
 - func[583] <_ZN3Glk6AdvSys4GameD1Ev> -> "_ZN3Glk6AdvSys4GameD2Ev"
 - func[584] <_ZN3Glk6AdvSys4Game4initEPN6Common18SeekableReadStreamE> -> "_ZN3Glk6AdvSys4Game4initEPN6Common18SeekableReadStreamE"
 - func[585] <_ZN3Glk6AdvSys4Game11setVariableEii> -> "_ZN3Glk6AdvSys4Game11setVariableEii"
 - func[586] <_ZN3Glk6AdvSys4Game7restartEv> -> "_ZN3Glk6AdvSys4Game7restartEv"
 - func[587] <_ZN3Glk6AdvSys4Game13shouldRestartEv> -> "_ZN3Glk6AdvSys4Game13shouldRestartEv"
 - func[588] <_ZN3Glk6AdvSys4Game12saveGameDataERN6Common11WriteStreamE> -> "_ZN3Glk6AdvSys4Game12saveGameDataERN6Common11WriteStreamE"
 - func[589] <_ZN3Glk6AdvSys4Game12loadGameDataERN6Common10ReadStreamE> -> "_ZN3Glk6AdvSys4Game12loadGameDataERN6Common10ReadStreamE"
 - func[590] <_ZNK3Glk6AdvSys4Game8findWordERKN6Common6StringE> -> "_ZNK3Glk6AdvSys4Game8findWordERKN6Common6StringE"
 - func[591] <_ZN3Glk6AdvSys4Game9checkVerbERKN6Common5ArrayIiEE> -> "_ZN3Glk6AdvSys4Game9checkVerbERKN6Common5ArrayIiEE"
 - func[592] <_ZNK3Glk6AdvSys4Game7hasVerbEiRKN6Common5ArrayIiEE> -> "_ZNK3Glk6AdvSys4Game7hasVerbEiRKN6Common5ArrayIiEE"
 - func[593] <_ZN3Glk6AdvSys4Game10findActionERKN6Common5ArrayIiEEii> -> "_ZN3Glk6AdvSys4Game10findActionERKN6Common5ArrayIiEEii"
 - func[594] <_ZN3Glk6AdvSys4Game17getObjectPropertyEii> -> "_ZN3Glk6AdvSys4Game17getObjectPropertyEii"
 - func[595] <_ZNK3Glk6AdvSys4Game12findPropertyEii> -> "_ZNK3Glk6AdvSys4Game12findPropertyEii"
 - func[596] <_ZN3Glk6AdvSys4Game17setObjectPropertyEiii> -> "_ZN3Glk6AdvSys4Game17setObjectPropertyEiii"
 - func[597] <_ZNK3Glk6AdvSys4Game17getObjectLocationEi> -> "_ZNK3Glk6AdvSys4Game17getObjectLocationEi"
 - func[598] <_ZNK3Glk6AdvSys4Game17getActionLocationEi> -> "_ZNK3Glk6AdvSys4Game17getActionLocationEi"
 - func[599] <_ZN3Glk6AdvSys4Game11getVariableEi> -> "_ZN3Glk6AdvSys4Game11getVariableEi"
 - func[600] <_ZNK3Glk6AdvSys4Game7hasNounEii> -> "_ZNK3Glk6AdvSys4Game7hasNounEii"
 - func[601] <_ZNK3Glk6AdvSys4Game6inListEii> -> "_ZNK3Glk6AdvSys4Game6inListEii"
 - func[602] <_ZNK3Glk6AdvSys4Game12hasAdjectiveEii> -> "_ZNK3Glk6AdvSys4Game12hasAdjectiveEii"
 - func[603] <_ZN3Glk6AdvSys4Game10readStringEi> -> "_ZN3Glk6AdvSys4Game10readStringEi"
 - func[604] <_ZN3Glk6AdvSys4Game12readMsgBlockEv> -> "_ZN3Glk6AdvSys4Game12readMsgBlockEv"
 - func[18593] <memmove> -> "memmove"
 - func[605] <_ZN6Common5ArrayIPN3Glk6AdvSys4Game10CacheEntryEE10insert_auxEPS5_PKS5_S9_> -> "_ZN6Common5ArrayIPN3Glk6AdvSys4Game10CacheEntryEE10insert_auxEPS5_PKS5_S9_"
 - func[606] <_ZN3Glk6AdvSys4Game11readMsgCharEv> -> "_ZN3Glk6AdvSys4Game11readMsgCharEv"
 - func[582] <_ZN3Glk6AdvSys4GameC1Ev> -> "_ZN3Glk6AdvSys4GameC1Ev"
 - func[583] <_ZN3Glk6AdvSys4GameD1Ev> -> "_ZN3Glk6AdvSys4GameD1Ev"
 - func[607] <_Z26g_GNAP_DETECTION_getObjectv> -> "_Z26g_GNAP_DETECTION_getObjectv"
 - global[3771] -> "_ZTV23GnapMetaEngineDetection"
 - func[608] <_ZN23GnapMetaEngineDetectionD0Ev> -> "_ZN23GnapMetaEngineDetectionD0Ev"
 - func[609] <_ZNK23GnapMetaEngineDetection7getNameEv> -> "_ZNK23GnapMetaEngineDetection7getNameEv"
 - func[610] <_ZNK23GnapMetaEngineDetection13getEngineNameEv> -> "_ZNK23GnapMetaEngineDetection13getEngineNameEv"
 - func[611] <_ZNK23GnapMetaEngineDetection20getOriginalCopyrightEv> -> "_ZNK23GnapMetaEngineDetection20getOriginalCopyrightEv"
 - func[612] <_ZNK23GnapMetaEngineDetection16getDebugChannelsEv> -> "_ZNK23GnapMetaEngineDetection16getDebugChannelsEv"
 - global[3772] -> "g_GNAP_DETECTION_type"
 - global[3773] -> "_ZTI23GnapMetaEngineDetection"
 - global[3774] -> "_ZTS23GnapMetaEngineDetection"
 - func[613] <_ZN22GobMetaEngineDetectionC1Ev> -> "_ZN22GobMetaEngineDetectionC2Ev"
 - global[3775] -> "_ZTV22GobMetaEngineDetection"
 - func[614] <_ZNK22GobMetaEngineDetection14fallbackDetectERKN6Common7HashMapINS0_6StringENS0_6FSNodeENS0_15IgnoreCase_HashENS0_18IgnoreCase_EqualToEEERKNS0_6FSListEPP23ADDetectedGameExtraInfo> -> "_ZNK22GobMetaEngineDetection14fallbackDetectERKN6Common7HashMapINS0_6StringENS0_6FSNodeENS0_15IgnoreCase_HashENS0_18IgnoreCase_EqualToEEERKNS0_6FSListEPP23ADDetectedGameExtraInfo"
 - func[615] <_ZN22GobMetaEngineDetection19detectOnceUponATimeERKN6Common6FSListE> -> "_ZN22GobMetaEngineDetection19detectOnceUponATimeERKN6Common6FSListE"
 - func[624] <_ZN3Gob6DataIOC2Ev> -> "_ZN3Gob6DataIOC1Ev"
 - func[637] <_ZN3Gob6DataIO11openArchiveEN6Common6StringEb> -> "_ZN3Gob6DataIO11openArchiveEN6Common6StringEb"
 - func[641] <_ZN3Gob6DataIO7hasFileERKN6Common6StringE> -> "_ZN3Gob6DataIO7hasFileERKN6Common6StringE"
 - func[645] <_ZN3Gob6DataIO7getFileERKN6Common6StringE> -> "_ZN3Gob6DataIO7getFileERKN6Common6StringE"
 - func[626] <_ZN3Gob6DataIOD2Ev> -> "_ZN3Gob6DataIOD1Ev"
 - func[616] <_ZNK22GobMetaEngineDetection13getEngineNameEv> -> "_ZNK22GobMetaEngineDetection13getEngineNameEv"
 - func[617] <_ZNK22GobMetaEngineDetection20getOriginalCopyrightEv> -> "_ZNK22GobMetaEngineDetection20getOriginalCopyrightEv"
 - func[618] <_Z25g_GOB_DETECTION_getObjectv> -> "_Z25g_GOB_DETECTION_getObjectv"
 - func[613] <_ZN22GobMetaEngineDetectionC1Ev> -> "_ZN22GobMetaEngineDetectionC1Ev"
 - func[619] <_ZN22GobMetaEngineDetectionD0Ev> -> "_ZN22GobMetaEngineDetectionD0Ev"
 - func[620] <_ZNK22GobMetaEngineDetection7getNameEv> -> "_ZNK22GobMetaEngineDetection7getNameEv"
 - func[621] <_ZNK22GobMetaEngineDetection16getDebugChannelsEv> -> "_ZNK22GobMetaEngineDetection16getDebugChannelsEv"
 - global[3776] -> "_ZTI22GobMetaEngineDetection"
 - global[3777] -> "g_GOB_DETECTION_type"
 - global[3778] -> "_ZTS22GobMetaEngineDetection"
 - func[622] <_ZN3Gob6DataIO4FileC1Ev> -> "_ZN3Gob6DataIO4FileC2Ev"
 - func[623] <_ZN3Gob6DataIO4FileC1ERKN6Common6StringEjjhRNS0_7ArchiveE> -> "_ZN3Gob6DataIO4FileC2ERKN6Common6StringEjjhRNS0_7ArchiveE"
 - func[624] <_ZN3Gob6DataIOC2Ev> -> "_ZN3Gob6DataIOC2Ev"
 - func[625] <_ZN6Common5ArrayIPN3Gob6DataIO7ArchiveEE10insert_auxEPS4_PKS4_S8_> -> "_ZN6Common5ArrayIPN3Gob6DataIO7ArchiveEE10insert_auxEPS4_PKS4_S8_"
 - func[626] <_ZN3Gob6DataIOD2Ev> -> "_ZN3Gob6DataIOD2Ev"
 - func[627] <_ZN6Common7HashMapINS_6StringEN3Gob6DataIO4FileENS_15IgnoreCase_HashENS_18IgnoreCase_EqualToEED2Ev> -> "_ZN6Common7HashMapINS_6StringEN3Gob6DataIO4FileENS_15IgnoreCase_HashENS_18IgnoreCase_EqualToEED2Ev"
 - func[628] <_ZN3Gob6DataIO12closeArchiveERNS0_7ArchiveE> -> "_ZN3Gob6DataIO12closeArchiveERNS0_7ArchiveE"
 - func[629] <_ZNK3Gob6DataIO14getArchiveInfoERN6Common5ArrayINS_11ArchiveInfoEEE> -> "_ZNK3Gob6DataIO14getArchiveInfoERN6Common5ArrayINS_11ArchiveInfoEEE"
 - func[630] <_ZN6Common5ArrayIN3Gob11ArchiveInfoEE7reserveEj> -> "_ZN6Common5ArrayIN3Gob11ArchiveInfoEE7reserveEj"
 - func[631] <_ZN3Gob6DataIO13getSizeChunksERN6Common18SeekableReadStreamE> -> "_ZN3Gob6DataIO13getSizeChunksERN6Common18SeekableReadStreamE"
 - func[632] <_ZN3Gob6DataIO6unpackERN6Common18SeekableReadStreamERihb> -> "_ZN3Gob6DataIO6unpackERN6Common18SeekableReadStreamERihb"
 - func[633] <_ZN3Gob6DataIO11unpackChunkERN6Common18SeekableReadStreamEPhj> -> "_ZN3Gob6DataIO11unpackChunkERN6Common18SeekableReadStreamEPhj"
 - func[634] <_ZN3Gob6DataIO12unpackChunksERN6Common18SeekableReadStreamEPhj> -> "_ZN3Gob6DataIO12unpackChunksERN6Common18SeekableReadStreamEPhj"
 - func[635] <_ZN3Gob6DataIO6unpackEPKhjRih> -> "_ZN3Gob6DataIO6unpackEPKhjRih"
 - func[636] <_ZN3Gob6DataIO6unpackERN6Common18SeekableReadStreamEh> -> "_ZN3Gob6DataIO6unpackERN6Common18SeekableReadStreamEh"
 - func[638] <_ZN3Gob6DataIO11openArchiveERKN6Common6StringE> -> "_ZN3Gob6DataIO11openArchiveERKN6Common6StringE"
 - func[622] <_ZN3Gob6DataIO4FileC1Ev> -> "_ZN3Gob6DataIO4FileC1Ev"
 - func[19678] <strchr> -> "strchr"
 - func[11632] <_ZN6Common10BaseStringIcE7setCharEcj> -> "_ZN6Common10BaseStringIcE7setCharEcj"
 - func[639] <_ZN6Common7HashMapINS_6StringEN3Gob6DataIO4FileENS_15IgnoreCase_HashENS_18IgnoreCase_EqualToEE24lookupAndCreateIfMissingERKS1_> -> "_ZN6Common7HashMapINS_6StringEN3Gob6DataIO4FileENS_15IgnoreCase_HashENS_18IgnoreCase_EqualToEE24lookupAndCreateIfMissingERKS1_"
 - func[640] <_ZN3Gob6DataIO12closeArchiveEb> -> "_ZN3Gob6DataIO12closeArchiveEb"
 - func[642] <_ZN3Gob6DataIO8findFileERKN6Common6StringE> -> "_ZN3Gob6DataIO8findFileERKN6Common6StringE"
 - func[643] <_ZNK6Common7HashMapINS_6StringEN3Gob6DataIO4FileENS_15IgnoreCase_HashENS_18IgnoreCase_EqualToEE12IteratorImplINS7_4NodeEE5derefEv> -> "_ZNK6Common7HashMapINS_6StringEN3Gob6DataIO4FileENS_15IgnoreCase_HashENS_18IgnoreCase_EqualToEE12IteratorImplINS7_4NodeEE5derefEv"
 - func[644] <_ZN3Gob6DataIO8fileSizeERKN6Common6StringE> -> "_ZN3Gob6DataIO8fileSizeERKN6Common6StringE"
 - func[646] <_ZN3Gob6DataIO7getFileERNS0_4FileE> -> "_ZN3Gob6DataIO7getFileERNS0_4FileE"
 - global[3779] -> "_ZTTN6Common25SafeSeekableSubReadStreamE"
 - global[3780] -> "_ZTVN6Common25SafeSeekableSubReadStreamE"
 - func[12292] <_ZN6Common21SeekableSubReadStreamC2EPNS_18SeekableReadStreamEjjN15DisposeAfterUse4FlagE> -> "_ZN6Common21SeekableSubReadStreamC2EPNS_18SeekableReadStreamEjjN15DisposeAfterUse4FlagE"
 - func[647] <_ZN3Gob6DataIO7getFileERKN6Common6StringERi> -> "_ZN3Gob6DataIO7getFileERKN6Common6StringERi"
 - func[648] <_ZN3Gob6DataIO7getFileERNS0_4FileERi> -> "_ZN3Gob6DataIO7getFileERNS0_4FileERi"
 - func[649] <_ZN6Common7HashMapINS_6StringEN3Gob6DataIO4FileENS_15IgnoreCase_HashENS_18IgnoreCase_EqualToEE13expandStorageEj> -> "_ZN6Common7HashMapINS_6StringEN3Gob6DataIO4FileENS_15IgnoreCase_HashENS_18IgnoreCase_EqualToEE13expandStorageEj"
 - func[623] <_ZN3Gob6DataIO4FileC1ERKN6Common6StringEjjhRNS0_7ArchiveE> -> "_ZN3Gob6DataIO4FileC1ERKN6Common6StringEjjhRNS0_7ArchiveE"
 - func[650] <_Z29g_GRIFFON_DETECTION_getObjectv> -> "_Z29g_GRIFFON_DETECTION_getObjectv"
 - global[3781] -> "_ZTV26GriffonMetaEngineDetection"
 - func[651] <_ZN26GriffonMetaEngineDetectionD0Ev> -> "_ZN26GriffonMetaEngineDetectionD0Ev"
 - func[652] <_ZNK26GriffonMetaEngineDetection7getNameEv> -> "_ZNK26GriffonMetaEngineDetection7getNameEv"
 - func[653] <_ZNK26GriffonMetaEngineDetection13getEngineNameEv> -> "_ZNK26GriffonMetaEngineDetection13getEngineNameEv"
 - func[654] <_ZNK26GriffonMetaEngineDetection20getOriginalCopyrightEv> -> "_ZNK26GriffonMetaEngineDetection20getOriginalCopyrightEv"
 - global[3782] -> "g_GRIFFON_DETECTION_type"
 - global[3783] -> "_ZTI26GriffonMetaEngineDetection"
 - global[3784] -> "_ZTS26GriffonMetaEngineDetection"
 - func[655] <_Z26g_GRIM_DETECTION_getObjectv> -> "_Z26g_GRIM_DETECTION_getObjectv"
 - global[3785] -> "_ZTVN4Grim23GrimMetaEngineDetectionE"
 - func[656] <_ZN4Grim23GrimMetaEngineDetectionD0Ev> -> "_ZN4Grim23GrimMetaEngineDetectionD0Ev"
 - func[657] <_ZNK4Grim23GrimMetaEngineDetection7getNameEv> -> "_ZNK4Grim23GrimMetaEngineDetection7getNameEv"
 - func[658] <_ZNK4Grim23GrimMetaEngineDetection13getEngineNameEv> -> "_ZNK4Grim23GrimMetaEngineDetection13getEngineNameEv"
 - func[659] <_ZNK4Grim23GrimMetaEngineDetection20getOriginalCopyrightEv> -> "_ZNK4Grim23GrimMetaEngineDetection20getOriginalCopyrightEv"
 - func[660] <_ZNK4Grim23GrimMetaEngineDetection8findGameEPKc> -> "_ZNK4Grim23GrimMetaEngineDetection8findGameEPKc"
 - func[661] <_ZNK4Grim23GrimMetaEngineDetection16getDebugChannelsEv> -> "_ZNK4Grim23GrimMetaEngineDetection16getDebugChannelsEv"
 - global[3786] -> "g_GRIM_DETECTION_type"
 - global[3787] -> "_ZTIN4Grim23GrimMetaEngineDetectionE"
 - global[3788] -> "_ZTSN4Grim23GrimMetaEngineDetectionE"
 - func[662] <_Z29g_GROOVIE_DETECTION_getObjectv> -> "_Z29g_GROOVIE_DETECTION_getObjectv"
 - global[3789] -> "_ZTVN7Groovie26GroovieMetaEngineDetectionE"
 - func[663] <_ZN7Groovie26GroovieMetaEngineDetectionD0Ev> -> "_ZN7Groovie26GroovieMetaEngineDetectionD0Ev"
 - func[664] <_ZNK7Groovie26GroovieMetaEngineDetection7getNameEv> -> "_ZNK7Groovie26GroovieMetaEngineDetection7getNameEv"
 - func[665] <_ZNK7Groovie26GroovieMetaEngineDetection13getEngineNameEv> -> "_ZNK7Groovie26GroovieMetaEngineDetection13getEngineNameEv"
 - func[666] <_ZNK7Groovie26GroovieMetaEngineDetection20getOriginalCopyrightEv> -> "_ZNK7Groovie26GroovieMetaEngineDetection20getOriginalCopyrightEv"
 - func[667] <_ZNK7Groovie26GroovieMetaEngineDetection16getDebugChannelsEv> -> "_ZNK7Groovie26GroovieMetaEngineDetection16getDebugChannelsEv"
 - global[3790] -> "g_GROOVIE_DETECTION_type"
 - global[3791] -> "_ZTIN7Groovie26GroovieMetaEngineDetectionE"
 - global[3792] -> "_ZTSN7Groovie26GroovieMetaEngineDetectionE"
 - func[668] <_Z29g_HADESCH_DETECTION_getObjectv> -> "_Z29g_HADESCH_DETECTION_getObjectv"
 - global[3793] -> "_ZTV26HadeschMetaEngineDetection"
 - func[669] <_ZN26HadeschMetaEngineDetectionD0Ev> -> "_ZN26HadeschMetaEngineDetectionD0Ev"
 - func[670] <_ZNK26HadeschMetaEngineDetection7getNameEv> -> "_ZNK26HadeschMetaEngineDetection7getNameEv"
 - func[671] <_ZNK26HadeschMetaEngineDetection13getEngineNameEv> -> "_ZNK26HadeschMetaEngineDetection13getEngineNameEv"
 - func[672] <_ZNK26HadeschMetaEngineDetection20getOriginalCopyrightEv> -> "_ZNK26HadeschMetaEngineDetection20getOriginalCopyrightEv"
 - func[673] <_ZNK26HadeschMetaEngineDetection16getDebugChannelsEv> -> "_ZNK26HadeschMetaEngineDetection16getDebugChannelsEv"
 - global[3794] -> "g_HADESCH_DETECTION_type"
 - global[3795] -> "_ZTI26HadeschMetaEngineDetection"
 - global[3796] -> "_ZTS26HadeschMetaEngineDetection"
 - func[674] <_Z25g_HDB_DETECTION_getObjectv> -> "_Z25g_HDB_DETECTION_getObjectv"
 - global[3797] -> "_ZTV22HDBMetaEngineDetection"
 - func[675] <_ZN22HDBMetaEngineDetectionD0Ev> -> "_ZN22HDBMetaEngineDetectionD0Ev"
 - func[676] <_ZNK22HDBMetaEngineDetection7getNameEv> -> "_ZNK22HDBMetaEngineDetection7getNameEv"
 - func[677] <_ZNK22HDBMetaEngineDetection13getEngineNameEv> -> "_ZNK22HDBMetaEngineDetection13getEngineNameEv"
 - func[678] <_ZNK22HDBMetaEngineDetection20getOriginalCopyrightEv> -> "_ZNK22HDBMetaEngineDetection20getOriginalCopyrightEv"
 - global[3798] -> "g_HDB_DETECTION_type"
 - global[3799] -> "_ZTI22HDBMetaEngineDetection"
 - global[3800] -> "_ZTS22HDBMetaEngineDetection"
 - func[679] <_Z29g_HOPKINS_DETECTION_getObjectv> -> "_Z29g_HOPKINS_DETECTION_getObjectv"
 - global[3801] -> "_ZTV26HopkinsMetaEngineDetection"
 - func[680] <_ZN26HopkinsMetaEngineDetectionD0Ev> -> "_ZN26HopkinsMetaEngineDetectionD0Ev"
 - func[681] <_ZNK26HopkinsMetaEngineDetection7getNameEv> -> "_ZNK26HopkinsMetaEngineDetection7getNameEv"
 - func[682] <_ZNK26HopkinsMetaEngineDetection13getEngineNameEv> -> "_ZNK26HopkinsMetaEngineDetection13getEngineNameEv"
 - func[683] <_ZNK26HopkinsMetaEngineDetection20getOriginalCopyrightEv> -> "_ZNK26HopkinsMetaEngineDetection20getOriginalCopyrightEv"
 - func[684] <_ZNK26HopkinsMetaEngineDetection16getDebugChannelsEv> -> "_ZNK26HopkinsMetaEngineDetection16getDebugChannelsEv"
 - global[3802] -> "g_HOPKINS_DETECTION_type"
 - global[3803] -> "_ZTI26HopkinsMetaEngineDetection"
 - global[3804] -> "_ZTS26HopkinsMetaEngineDetection"
 - func[685] <_Z26g_HUGO_DETECTION_getObjectv> -> "_Z26g_HUGO_DETECTION_getObjectv"
 - global[3805] -> "_ZTVN4Hugo23HugoMetaEngineDetectionE"
 - func[686] <_ZN4Hugo23HugoMetaEngineDetectionD0Ev> -> "_ZN4Hugo23HugoMetaEngineDetectionD0Ev"
 - func[687] <_ZNK4Hugo23HugoMetaEngineDetection7getNameEv> -> "_ZNK4Hugo23HugoMetaEngineDetection7getNameEv"
 - func[688] <_ZNK4Hugo23HugoMetaEngineDetection13getEngineNameEv> -> "_ZNK4Hugo23HugoMetaEngineDetection13getEngineNameEv"
 - func[689] <_ZNK4Hugo23HugoMetaEngineDetection20getOriginalCopyrightEv> -> "_ZNK4Hugo23HugoMetaEngineDetection20getOriginalCopyrightEv"
 - func[690] <_ZNK4Hugo23HugoMetaEngineDetection16getDebugChannelsEv> -> "_ZNK4Hugo23HugoMetaEngineDetection16getDebugChannelsEv"
 - global[3806] -> "g_HUGO_DETECTION_type"
 - global[3807] -> "_ZTIN4Hugo23HugoMetaEngineDetectionE"
 - global[3808] -> "_ZTSN4Hugo23HugoMetaEngineDetectionE"
 - func[691] <_Z27g_HYPNO_DETECTION_getObjectv> -> "_Z27g_HYPNO_DETECTION_getObjectv"
 - global[3809] -> "_ZTV24HypnoMetaEngineDetection"
 - func[692] <_ZN24HypnoMetaEngineDetectionD0Ev> -> "_ZN24HypnoMetaEngineDetectionD0Ev"
 - func[693] <_ZNK24HypnoMetaEngineDetection7getNameEv> -> "_ZNK24HypnoMetaEngineDetection7getNameEv"
 - func[694] <_ZNK24HypnoMetaEngineDetection13getEngineNameEv> -> "_ZNK24HypnoMetaEngineDetection13getEngineNameEv"
 - func[695] <_ZNK24HypnoMetaEngineDetection20getOriginalCopyrightEv> -> "_ZNK24HypnoMetaEngineDetection20getOriginalCopyrightEv"
 - func[696] <_ZNK24HypnoMetaEngineDetection16getDebugChannelsEv> -> "_ZNK24HypnoMetaEngineDetection16getDebugChannelsEv"
 - global[3810] -> "g_HYPNO_DETECTION_type"
 - global[3811] -> "_ZTI24HypnoMetaEngineDetection"
 - global[3812] -> "_ZTS24HypnoMetaEngineDetection"
 - func[697] <_Z25g_ICB_DETECTION_getObjectv> -> "_Z25g_ICB_DETECTION_getObjectv"
 - global[3813] -> "_ZTVN3ICB22IcbMetaEngineDetectionE"
 - func[698] <_ZN3ICB22IcbMetaEngineDetectionD0Ev> -> "_ZN3ICB22IcbMetaEngineDetectionD0Ev"
 - func[699] <_ZNK3ICB22IcbMetaEngineDetection7getNameEv> -> "_ZNK3ICB22IcbMetaEngineDetection7getNameEv"
 - func[700] <_ZNK3ICB22IcbMetaEngineDetection13getEngineNameEv> -> "_ZNK3ICB22IcbMetaEngineDetection13getEngineNameEv"
 - func[701] <_ZNK3ICB22IcbMetaEngineDetection20getOriginalCopyrightEv> -> "_ZNK3ICB22IcbMetaEngineDetection20getOriginalCopyrightEv"
 - global[3814] -> "g_ICB_DETECTION_type"
 - global[3815] -> "_ZTIN3ICB22IcbMetaEngineDetectionE"
 - global[3816] -> "_ZTSN3ICB22IcbMetaEngineDetectionE"
 - func[702] <_Z31g_ILLUSIONS_DETECTION_getObjectv> -> "_Z31g_ILLUSIONS_DETECTION_getObjectv"
 - global[3817] -> "_ZTV28IllusionsMetaEngineDetection"
 - func[703] <_ZN28IllusionsMetaEngineDetectionD0Ev> -> "_ZN28IllusionsMetaEngineDetectionD0Ev"
 - func[704] <_ZNK28IllusionsMetaEngineDetection7getNameEv> -> "_ZNK28IllusionsMetaEngineDetection7getNameEv"
 - func[705] <_ZNK28IllusionsMetaEngineDetection13getEngineNameEv> -> "_ZNK28IllusionsMetaEngineDetection13getEngineNameEv"
 - func[706] <_ZNK28IllusionsMetaEngineDetection20getOriginalCopyrightEv> -> "_ZNK28IllusionsMetaEngineDetection20getOriginalCopyrightEv"
 - global[3818] -> "g_ILLUSIONS_DETECTION_type"
 - global[3819] -> "_ZTI28IllusionsMetaEngineDetection"
 - global[3820] -> "_ZTS28IllusionsMetaEngineDetection"
 - func[707] <_Z29g_KINGDOM_DETECTION_getObjectv> -> "_Z29g_KINGDOM_DETECTION_getObjectv"
 - global[3821] -> "_ZTV26KingdomMetaEngineDetection"
 - func[708] <_ZN26KingdomMetaEngineDetectionD0Ev> -> "_ZN26KingdomMetaEngineDetectionD0Ev"
 - func[709] <_ZNK26KingdomMetaEngineDetection7getNameEv> -> "_ZNK26KingdomMetaEngineDetection7getNameEv"
 - func[710] <_ZNK26KingdomMetaEngineDetection13getEngineNameEv> -> "_ZNK26KingdomMetaEngineDetection13getEngineNameEv"
 - func[711] <_ZNK26KingdomMetaEngineDetection20getOriginalCopyrightEv> -> "_ZNK26KingdomMetaEngineDetection20getOriginalCopyrightEv"
 - func[712] <_ZNK26KingdomMetaEngineDetection16getDebugChannelsEv> -> "_ZNK26KingdomMetaEngineDetection16getDebugChannelsEv"
 - global[3822] -> "g_KINGDOM_DETECTION_type"
 - global[3823] -> "_ZTI26KingdomMetaEngineDetection"
 - global[3824] -> "_ZTS26KingdomMetaEngineDetection"
 - func[713] <_Z26g_KYRA_DETECTION_getObjectv> -> "_Z26g_KYRA_DETECTION_getObjectv"
 - global[3825] -> "_ZTV23KyraMetaEngineDetection"
 - func[714] <_ZN23KyraMetaEngineDetectionD0Ev> -> "_ZN23KyraMetaEngineDetectionD0Ev"
 - func[715] <_ZNK23KyraMetaEngineDetection7getNameEv> -> "_ZNK23KyraMetaEngineDetection7getNameEv"
 - func[716] <_ZNK23KyraMetaEngineDetection13getEngineNameEv> -> "_ZNK23KyraMetaEngineDetection13getEngineNameEv"
 - func[717] <_ZNK23KyraMetaEngineDetection20getOriginalCopyrightEv> -> "_ZNK23KyraMetaEngineDetection20getOriginalCopyrightEv"
 - func[718] <_ZNK23KyraMetaEngineDetection16getDebugChannelsEv> -> "_ZNK23KyraMetaEngineDetection16getDebugChannelsEv"
 - global[3826] -> "g_KYRA_DETECTION_type"
 - global[3827] -> "_ZTI23KyraMetaEngineDetection"
 - global[3828] -> "_ZTS23KyraMetaEngineDetection"
 - func[719] <_Z25g_LAB_DETECTION_getObjectv> -> "_Z25g_LAB_DETECTION_getObjectv"
 - global[3829] -> "_ZTV22LabMetaEngineDetection"
 - func[720] <_ZN22LabMetaEngineDetectionD0Ev> -> "_ZN22LabMetaEngineDetectionD0Ev"
 - func[721] <_ZNK22LabMetaEngineDetection7getNameEv> -> "_ZNK22LabMetaEngineDetection7getNameEv"
 - func[722] <_ZNK22LabMetaEngineDetection13getEngineNameEv> -> "_ZNK22LabMetaEngineDetection13getEngineNameEv"
 - func[723] <_ZNK22LabMetaEngineDetection20getOriginalCopyrightEv> -> "_ZNK22LabMetaEngineDetection20getOriginalCopyrightEv"
 - global[3830] -> "g_LAB_DETECTION_type"
 - global[3831] -> "_ZTI22LabMetaEngineDetection"
 - global[3832] -> "_ZTS22LabMetaEngineDetection"
 - func[724] <_Z33g_LASTEXPRESS_DETECTION_getObjectv> -> "_Z33g_LASTEXPRESS_DETECTION_getObjectv"
 - global[3833] -> "_ZTVN11LastExpress30LastExpressMetaEngineDetectionE"
 - func[725] <_ZN11LastExpress30LastExpressMetaEngineDetectionD0Ev> -> "_ZN11LastExpress30LastExpressMetaEngineDetectionD0Ev"
 - func[726] <_ZNK11LastExpress30LastExpressMetaEngineDetection7getNameEv> -> "_ZNK11LastExpress30LastExpressMetaEngineDetection7getNameEv"
 - func[727] <_ZNK11LastExpress30LastExpressMetaEngineDetection13getEngineNameEv> -> "_ZNK11LastExpress30LastExpressMetaEngineDetection13getEngineNameEv"
 - func[728] <_ZNK11LastExpress30LastExpressMetaEngineDetection20getOriginalCopyrightEv> -> "_ZNK11LastExpress30LastExpressMetaEngineDetection20getOriginalCopyrightEv"
 - func[729] <_ZNK11LastExpress30LastExpressMetaEngineDetection16getDebugChannelsEv> -> "_ZNK11LastExpress30LastExpressMetaEngineDetection16getDebugChannelsEv"
 - global[3834] -> "g_LASTEXPRESS_DETECTION_type"
 - global[3835] -> "_ZTIN11LastExpress30LastExpressMetaEngineDetectionE"
 - global[3836] -> "_ZTSN11LastExpress30LastExpressMetaEngineDetectionE"
 - func[730] <_Z30g_LILLIPUT_DETECTION_getObjectv> -> "_Z30g_LILLIPUT_DETECTION_getObjectv"
 - global[3837] -> "_ZTVN8Lilliput27LilliputMetaEngineDetectionE"
 - func[731] <_ZN8Lilliput27LilliputMetaEngineDetectionD0Ev> -> "_ZN8Lilliput27LilliputMetaEngineDetectionD0Ev"
 - func[732] <_ZNK8Lilliput27LilliputMetaEngineDetection7getNameEv> -> "_ZNK8Lilliput27LilliputMetaEngineDetection7getNameEv"
 - func[733] <_ZNK8Lilliput27LilliputMetaEngineDetection13getEngineNameEv> -> "_ZNK8Lilliput27LilliputMetaEngineDetection13getEngineNameEv"
 - func[734] <_ZNK8Lilliput27LilliputMetaEngineDetection20getOriginalCopyrightEv> -> "_ZNK8Lilliput27LilliputMetaEngineDetection20getOriginalCopyrightEv"
 - func[735] <_ZNK8Lilliput27LilliputMetaEngineDetection16getDebugChannelsEv> -> "_ZNK8Lilliput27LilliputMetaEngineDetection16getDebugChannelsEv"
 - global[3838] -> "g_LILLIPUT_DETECTION_type"
 - global[3839] -> "_ZTIN8Lilliput27LilliputMetaEngineDetectionE"
 - global[3840] -> "_ZTSN8Lilliput27LilliputMetaEngineDetectionE"
 - func[736] <_Z26g_LURE_DETECTION_getObjectv> -> "_Z26g_LURE_DETECTION_getObjectv"
 - global[3841] -> "_ZTV23LureMetaEngineDetection"
 - func[737] <_ZN23LureMetaEngineDetectionD0Ev> -> "_ZN23LureMetaEngineDetectionD0Ev"
 - func[738] <_ZNK23LureMetaEngineDetection7getNameEv> -> "_ZNK23LureMetaEngineDetection7getNameEv"
 - func[739] <_ZNK23LureMetaEngineDetection13getEngineNameEv> -> "_ZNK23LureMetaEngineDetection13getEngineNameEv"
 - func[740] <_ZNK23LureMetaEngineDetection20getOriginalCopyrightEv> -> "_ZNK23LureMetaEngineDetection20getOriginalCopyrightEv"
 - func[741] <_ZNK23LureMetaEngineDetection16getDebugChannelsEv> -> "_ZNK23LureMetaEngineDetection16getDebugChannelsEv"
 - global[3842] -> "g_LURE_DETECTION_type"
 - global[3843] -> "_ZTI23LureMetaEngineDetection"
 - global[3844] -> "_ZTS23LureMetaEngineDetection"
 - func[742] <_Z32g_MACVENTURE_DETECTION_getObjectv> -> "_Z32g_MACVENTURE_DETECTION_getObjectv"
 - global[3845] -> "_ZTVN10MacVenture29MacVentureMetaEngineDetectionE"
 - func[743] <_ZN10MacVenture29MacVentureMetaEngineDetectionD0Ev> -> "_ZN10MacVenture29MacVentureMetaEngineDetectionD0Ev"
 - func[744] <_ZNK10MacVenture29MacVentureMetaEngineDetection7getNameEv> -> "_ZNK10MacVenture29MacVentureMetaEngineDetection7getNameEv"
 - func[745] <_ZNK10MacVenture29MacVentureMetaEngineDetection13getEngineNameEv> -> "_ZNK10MacVenture29MacVentureMetaEngineDetection13getEngineNameEv"
 - func[746] <_ZNK10MacVenture29MacVentureMetaEngineDetection20getOriginalCopyrightEv> -> "_ZNK10MacVenture29MacVentureMetaEngineDetection20getOriginalCopyrightEv"
 - func[747] <_ZNK10MacVenture29MacVentureMetaEngineDetection16getDebugChannelsEv> -> "_ZNK10MacVenture29MacVentureMetaEngineDetection16getDebugChannelsEv"
 - global[3846] -> "g_MACVENTURE_DETECTION_type"
 - global[3847] -> "_ZTIN10MacVenture29MacVentureMetaEngineDetectionE"
 - global[3848] -> "_ZTSN10MacVenture29MacVentureMetaEngineDetectionE"
 - func[748] <_ZNK23MadeMetaEngineDetection14fallbackDetectERKN6Common7HashMapINS0_6StringENS0_6FSNodeENS0_15IgnoreCase_HashENS0_18IgnoreCase_EqualToEEERKNS0_6FSListEPP23ADDetectedGameExtraInfo> -> "_ZNK23MadeMetaEngineDetection14fallbackDetectERKN6Common7HashMapINS0_6StringENS0_6FSNodeENS0_15IgnoreCase_HashENS0_18IgnoreCase_EqualToEEERKNS0_6FSListEPP23ADDetectedGameExtraInfo"
 - func[749] <_Z26g_MADE_DETECTION_getObjectv> -> "_Z26g_MADE_DETECTION_getObjectv"
 - global[3849] -> "_ZTV23MadeMetaEngineDetection"
 - func[750] <_ZN23MadeMetaEngineDetectionD0Ev> -> "_ZN23MadeMetaEngineDetectionD0Ev"
 - func[751] <_ZNK23MadeMetaEngineDetection7getNameEv> -> "_ZNK23MadeMetaEngineDetection7getNameEv"
 - func[752] <_ZNK23MadeMetaEngineDetection13getEngineNameEv> -> "_ZNK23MadeMetaEngineDetection13getEngineNameEv"
 - func[753] <_ZNK23MadeMetaEngineDetection20getOriginalCopyrightEv> -> "_ZNK23MadeMetaEngineDetection20getOriginalCopyrightEv"
 - global[3850] -> "g_MADE_DETECTION_type"
 - global[3851] -> "_ZTI23MadeMetaEngineDetection"
 - global[3852] -> "_ZTS23MadeMetaEngineDetection"
 - func[754] <_Z26g_MADS_DETECTION_getObjectv> -> "_Z26g_MADS_DETECTION_getObjectv"
 - global[3853] -> "_ZTV23MADSMetaEngineDetection"
 - func[755] <_ZN23MADSMetaEngineDetectionD0Ev> -> "_ZN23MADSMetaEngineDetectionD0Ev"
 - func[756] <_ZNK23MADSMetaEngineDetection7getNameEv> -> "_ZNK23MADSMetaEngineDetection7getNameEv"
 - func[757] <_ZNK23MADSMetaEngineDetection13getEngineNameEv> -> "_ZNK23MADSMetaEngineDetection13getEngineNameEv"
 - func[758] <_ZNK23MADSMetaEngineDetection20getOriginalCopyrightEv> -> "_ZNK23MADSMetaEngineDetection20getOriginalCopyrightEv"
 - func[759] <_ZNK23MADSMetaEngineDetection16getDebugChannelsEv> -> "_ZNK23MADSMetaEngineDetection16getDebugChannelsEv"
 - global[3854] -> "g_MADS_DETECTION_type"
 - global[3855] -> "_ZTI23MADSMetaEngineDetection"
 - global[3856] -> "_ZTS23MADSMetaEngineDetection"
 - func[760] <_ZNK25MohawkMetaEngineDetection14toDetectedGameERK14ADDetectedGameP23ADDetectedGameExtraInfo> -> "_ZNK25MohawkMetaEngineDetection14toDetectedGameERK14ADDetectedGameP23ADDetectedGameExtraInfo"
 - func[11991] <_ZN6Common18checkGameGUIOptionERKNS_6StringES2_> -> "_ZN6Common18checkGameGUIOptionERKNS_6StringES2_"
 - func[768] <_ZN6Mohawk21MohawkMetaEngine_Myst13listLanguagesEv> -> "_ZN6Mohawk21MohawkMetaEngine_Myst13listLanguagesEv"
 - func[12016] <_ZN6Common36getGameGUIOptionsDescriptionLanguageENS_8LanguageE> -> "_ZN6Common36getGameGUIOptionsDescriptionLanguageENS_8LanguageE"
 - func[1713] <_ZN12DetectedGame16appendGUIOptionsERKN6Common6StringE> -> "_ZN12DetectedGame16appendGUIOptionsERKN6Common6StringE"
 - func[770] <_ZN6Mohawk22MohawkMetaEngine_Riven13listLanguagesEv> -> "_ZN6Mohawk22MohawkMetaEngine_Riven13listLanguagesEv"
 - func[761] <_Z28g_MOHAWK_DETECTION_getObjectv> -> "_Z28g_MOHAWK_DETECTION_getObjectv"
 - global[3857] -> "_ZTV25MohawkMetaEngineDetection"
 - func[762] <_ZN25MohawkMetaEngineDetectionD0Ev> -> "_ZN25MohawkMetaEngineDetectionD0Ev"
 - func[763] <_ZNK25MohawkMetaEngineDetection7getNameEv> -> "_ZNK25MohawkMetaEngineDetection7getNameEv"
 - func[764] <_ZNK25MohawkMetaEngineDetection13getEngineNameEv> -> "_ZNK25MohawkMetaEngineDetection13getEngineNameEv"
 - func[765] <_ZNK25MohawkMetaEngineDetection20getOriginalCopyrightEv> -> "_ZNK25MohawkMetaEngineDetection20getOriginalCopyrightEv"
 - func[766] <_ZNK25MohawkMetaEngineDetection14fallbackDetectERKN6Common7HashMapINS0_6StringENS0_6FSNodeENS0_15IgnoreCase_HashENS0_18IgnoreCase_EqualToEEERKNS0_6FSListEPP23ADDetectedGameExtraInfo> -> "_ZNK25MohawkMetaEngineDetection14fallbackDetectERKN6Common7HashMapINS0_6StringENS0_6FSNodeENS0_15IgnoreCase_HashENS0_18IgnoreCase_EqualToEEERKNS0_6FSListEPP23ADDetectedGameExtraInfo"
 - global[3858] -> "g_MOHAWK_DETECTION_type"
 - global[3859] -> "_ZTI25MohawkMetaEngineDetection"
 - global[3860] -> "_ZTS25MohawkMetaEngineDetection"
 - func[767] <_ZN6Mohawk21MohawkMetaEngine_Myst23registerDefaultSettingsEv> -> "_ZN6Mohawk21MohawkMetaEngine_Myst23registerDefaultSettingsEv"
 - func[11799] <_ZN6Common13ConfigManager15registerDefaultERKNS_6StringEb> -> "_ZN6Common13ConfigManager15registerDefaultERKNS_6StringEb"
 - func[769] <_ZN6Mohawk22MohawkMetaEngine_Riven23registerDefaultSettingsEv> -> "_ZN6Mohawk22MohawkMetaEngine_Riven23registerDefaultSettingsEv"
 - func[11798] <_ZN6Common13ConfigManager15registerDefaultERKNS_6StringEi> -> "_ZN6Common13ConfigManager15registerDefaultERKNS_6StringEi"
 - func[771] <_Z33g_MORTEVIELLE_DETECTION_getObjectv> -> "_Z33g_MORTEVIELLE_DETECTION_getObjectv"
 - global[3861] -> "_ZTV30MortevielleMetaEngineDetection"
 - func[772] <_ZN30MortevielleMetaEngineDetectionD0Ev> -> "_ZN30MortevielleMetaEngineDetectionD0Ev"
 - func[773] <_ZNK30MortevielleMetaEngineDetection7getNameEv> -> "_ZNK30MortevielleMetaEngineDetection7getNameEv"
 - func[774] <_ZNK30MortevielleMetaEngineDetection13getEngineNameEv> -> "_ZNK30MortevielleMetaEngineDetection13getEngineNameEv"
 - func[775] <_ZNK30MortevielleMetaEngineDetection20getOriginalCopyrightEv> -> "_ZNK30MortevielleMetaEngineDetection20getOriginalCopyrightEv"
 - func[776] <_ZNK30MortevielleMetaEngineDetection16getDebugChannelsEv> -> "_ZNK30MortevielleMetaEngineDetection16getDebugChannelsEv"
 - global[3862] -> "g_MORTEVIELLE_DETECTION_type"
 - global[3863] -> "_ZTI30MortevielleMetaEngineDetection"
 - global[3864] -> "_ZTS30MortevielleMetaEngineDetection"
 - func[777] <_Z31g_MTROPOLIS_DETECTION_getObjectv> -> "_Z31g_MTROPOLIS_DETECTION_getObjectv"
 - global[3865] -> "_ZTV28MTropolisMetaEngineDetection"
 - func[778] <_ZN28MTropolisMetaEngineDetectionD0Ev> -> "_ZN28MTropolisMetaEngineDetectionD0Ev"
 - func[779] <_ZNK28MTropolisMetaEngineDetection7getNameEv> -> "_ZNK28MTropolisMetaEngineDetection7getNameEv"
 - func[780] <_ZNK28MTropolisMetaEngineDetection13getEngineNameEv> -> "_ZNK28MTropolisMetaEngineDetection13getEngineNameEv"
 - func[781] <_ZNK28MTropolisMetaEngineDetection20getOriginalCopyrightEv> -> "_ZNK28MTropolisMetaEngineDetection20getOriginalCopyrightEv"
 - func[782] <_ZNK28MTropolisMetaEngineDetection22canPlayUnknownVariantsEv> -> "_ZNK28MTropolisMetaEngineDetection22canPlayUnknownVariantsEv"
 - global[3866] -> "g_MTROPOLIS_DETECTION_type"
 - global[3867] -> "_ZTI28MTropolisMetaEngineDetection"
 - global[3868] -> "_ZTS28MTropolisMetaEngineDetection"
 - func[783] <_Z34g_MUTATIONOFJB_DETECTION_getObjectv> -> "_Z34g_MUTATIONOFJB_DETECTION_getObjectv"
 - global[3869] -> "_ZTV31MutationOfJBMetaEngineDetection"
 - func[784] <_ZN31MutationOfJBMetaEngineDetectionD0Ev> -> "_ZN31MutationOfJBMetaEngineDetectionD0Ev"
 - func[785] <_ZNK31MutationOfJBMetaEngineDetection7getNameEv> -> "_ZNK31MutationOfJBMetaEngineDetection7getNameEv"
 - func[786] <_ZNK31MutationOfJBMetaEngineDetection13getEngineNameEv> -> "_ZNK31MutationOfJBMetaEngineDetection13getEngineNameEv"
 - func[787] <_ZNK31MutationOfJBMetaEngineDetection20getOriginalCopyrightEv> -> "_ZNK31MutationOfJBMetaEngineDetection20getOriginalCopyrightEv"
 - global[3870] -> "g_MUTATIONOFJB_DETECTION_type"
 - global[3871] -> "_ZTI31MutationOfJBMetaEngineDetection"
 - global[3872] -> "_ZTS31MutationOfJBMetaEngineDetection"
 - func[788] <_Z27g_MYST3_DETECTION_getObjectv> -> "_Z27g_MYST3_DETECTION_getObjectv"
 - global[3873] -> "_ZTVN5Myst324Myst3MetaEngineDetectionE"
 - func[789] <_ZN5Myst324Myst3MetaEngineDetectionD0Ev> -> "_ZN5Myst324Myst3MetaEngineDetectionD0Ev"
 - func[790] <_ZNK5Myst324Myst3MetaEngineDetection7getNameEv> -> "_ZNK5Myst324Myst3MetaEngineDetection7getNameEv"
 - func[791] <_ZNK5Myst324Myst3MetaEngineDetection13getEngineNameEv> -> "_ZNK5Myst324Myst3MetaEngineDetection13getEngineNameEv"
 - func[792] <_ZNK5Myst324Myst3MetaEngineDetection20getOriginalCopyrightEv> -> "_ZNK5Myst324Myst3MetaEngineDetection20getOriginalCopyrightEv"
 - func[793] <_ZNK5Myst324Myst3MetaEngineDetection16getDebugChannelsEv> -> "_ZNK5Myst324Myst3MetaEngineDetection16getDebugChannelsEv"
 - global[3874] -> "g_MYST3_DETECTION_type"
 - global[3875] -> "_ZTIN5Myst324Myst3MetaEngineDetectionE"
 - global[3876] -> "_ZTSN5Myst324Myst3MetaEngineDetectionE"
 - func[794] <_Z27g_NANCY_DETECTION_getObjectv> -> "_Z27g_NANCY_DETECTION_getObjectv"
 - global[3877] -> "_ZTV24NancyMetaEngineDetection"
 - func[795] <_ZN24NancyMetaEngineDetectionD0Ev> -> "_ZN24NancyMetaEngineDetectionD0Ev"
 - func[796] <_ZNK24NancyMetaEngineDetection7getNameEv> -> "_ZNK24NancyMetaEngineDetection7getNameEv"
 - func[797] <_ZNK24NancyMetaEngineDetection13getEngineNameEv> -> "_ZNK24NancyMetaEngineDetection13getEngineNameEv"
 - func[798] <_ZNK24NancyMetaEngineDetection20getOriginalCopyrightEv> -> "_ZNK24NancyMetaEngineDetection20getOriginalCopyrightEv"
 - func[799] <_ZNK24NancyMetaEngineDetection16getDebugChannelsEv> -> "_ZNK24NancyMetaEngineDetection16getDebugChannelsEv"
 - global[3878] -> "g_NANCY_DETECTION_type"
 - global[3879] -> "_ZTI24NancyMetaEngineDetection"
 - global[3880] -> "_ZTS24NancyMetaEngineDetection"
 - func[800] <_Z31g_NEVERHOOD_DETECTION_getObjectv> -> "_Z31g_NEVERHOOD_DETECTION_getObjectv"
 - global[3881] -> "_ZTV28NeverhoodMetaEngineDetection"
 - func[801] <_ZN28NeverhoodMetaEngineDetectionD0Ev> -> "_ZN28NeverhoodMetaEngineDetectionD0Ev"
 - func[802] <_ZNK28NeverhoodMetaEngineDetection7getNameEv> -> "_ZNK28NeverhoodMetaEngineDetection7getNameEv"
 - func[803] <_ZNK28NeverhoodMetaEngineDetection13getEngineNameEv> -> "_ZNK28NeverhoodMetaEngineDetection13getEngineNameEv"
 - func[804] <_ZNK28NeverhoodMetaEngineDetection20getOriginalCopyrightEv> -> "_ZNK28NeverhoodMetaEngineDetection20getOriginalCopyrightEv"
 - global[3882] -> "g_NEVERHOOD_DETECTION_type"
 - global[3883] -> "_ZTI28NeverhoodMetaEngineDetection"
 - global[3884] -> "_ZTS28NeverhoodMetaEngineDetection"
 - func[805] <_Z25g_NGI_DETECTION_getObjectv> -> "_Z25g_NGI_DETECTION_getObjectv"
 - global[3885] -> "_ZTV22NGIMetaEngineDetection"
 - func[806] <_ZN22NGIMetaEngineDetectionD0Ev> -> "_ZN22NGIMetaEngineDetectionD0Ev"
 - func[807] <_ZNK22NGIMetaEngineDetection7getNameEv> -> "_ZNK22NGIMetaEngineDetection7getNameEv"
 - func[808] <_ZNK22NGIMetaEngineDetection13getEngineNameEv> -> "_ZNK22NGIMetaEngineDetection13getEngineNameEv"
 - func[809] <_ZNK22NGIMetaEngineDetection20getOriginalCopyrightEv> -> "_ZNK22NGIMetaEngineDetection20getOriginalCopyrightEv"
 - func[810] <_ZNK22NGIMetaEngineDetection16getDebugChannelsEv> -> "_ZNK22NGIMetaEngineDetection16getDebugChannelsEv"
 - global[3886] -> "g_NGI_DETECTION_type"
 - global[3887] -> "_ZTI22NGIMetaEngineDetection"
 - global[3888] -> "_ZTS22NGIMetaEngineDetection"
 - func[811] <_Z34g_PARALLACTION_DETECTION_getObjectv> -> "_Z34g_PARALLACTION_DETECTION_getObjectv"
 - global[3889] -> "_ZTV31ParallactionMetaEngineDetection"
 - func[812] <_ZN31ParallactionMetaEngineDetectionD0Ev> -> "_ZN31ParallactionMetaEngineDetectionD0Ev"
 - func[813] <_ZNK31ParallactionMetaEngineDetection7getNameEv> -> "_ZNK31ParallactionMetaEngineDetection7getNameEv"
 - func[814] <_ZNK31ParallactionMetaEngineDetection13getEngineNameEv> -> "_ZNK31ParallactionMetaEngineDetection13getEngineNameEv"
 - func[815] <_ZNK31ParallactionMetaEngineDetection20getOriginalCopyrightEv> -> "_ZNK31ParallactionMetaEngineDetection20getOriginalCopyrightEv"
 - func[816] <_ZNK31ParallactionMetaEngineDetection16getDebugChannelsEv> -> "_ZNK31ParallactionMetaEngineDetection16getDebugChannelsEv"
 - global[3890] -> "g_PARALLACTION_DETECTION_type"
 - global[3891] -> "_ZTI31ParallactionMetaEngineDetection"
 - global[3892] -> "_ZTS31ParallactionMetaEngineDetection"
 - func[817] <_Z29g_PEGASUS_DETECTION_getObjectv> -> "_Z29g_PEGASUS_DETECTION_getObjectv"
 - global[3893] -> "_ZTV26PegasusMetaEngineDetection"
 - func[818] <_ZN26PegasusMetaEngineDetectionD0Ev> -> "_ZN26PegasusMetaEngineDetectionD0Ev"
 - func[819] <_ZNK26PegasusMetaEngineDetection7getNameEv> -> "_ZNK26PegasusMetaEngineDetection7getNameEv"
 - func[820] <_ZNK26PegasusMetaEngineDetection13getEngineNameEv> -> "_ZNK26PegasusMetaEngineDetection13getEngineNameEv"
 - func[821] <_ZNK26PegasusMetaEngineDetection20getOriginalCopyrightEv> -> "_ZNK26PegasusMetaEngineDetection20getOriginalCopyrightEv"
 - global[3894] -> "g_PEGASUS_DETECTION_type"
 - global[3895] -> "_ZTI26PegasusMetaEngineDetection"
 - global[3896] -> "_ZTS26PegasusMetaEngineDetection"
 - func[822] <_Z27g_PETKA_DETECTION_getObjectv> -> "_Z27g_PETKA_DETECTION_getObjectv"
 - global[3897] -> "_ZTV24PetkaMetaEngineDetection"
 - func[823] <_ZN24PetkaMetaEngineDetectionD0Ev> -> "_ZN24PetkaMetaEngineDetectionD0Ev"
 - func[824] <_ZNK24PetkaMetaEngineDetection7getNameEv> -> "_ZNK24PetkaMetaEngineDetection7getNameEv"
 - func[825] <_ZNK24PetkaMetaEngineDetection13getEngineNameEv> -> "_ZNK24PetkaMetaEngineDetection13getEngineNameEv"
 - func[826] <_ZNK24PetkaMetaEngineDetection20getOriginalCopyrightEv> -> "_ZNK24PetkaMetaEngineDetection20getOriginalCopyrightEv"
 - func[827] <_ZNK24PetkaMetaEngineDetection16getDebugChannelsEv> -> "_ZNK24PetkaMetaEngineDetection16getDebugChannelsEv"
 - global[3898] -> "g_PETKA_DETECTION_type"
 - global[3899] -> "_ZTI24PetkaMetaEngineDetection"
 - global[3900] -> "_ZTS24PetkaMetaEngineDetection"
 - func[828] <_Z26g_PINK_DETECTION_getObjectv> -> "_Z26g_PINK_DETECTION_getObjectv"
 - global[3901] -> "_ZTV23PinkMetaEngineDetection"
 - func[829] <_ZN23PinkMetaEngineDetectionD0Ev> -> "_ZN23PinkMetaEngineDetectionD0Ev"
 - func[830] <_ZNK23PinkMetaEngineDetection7getNameEv> -> "_ZNK23PinkMetaEngineDetection7getNameEv"
 - func[831] <_ZNK23PinkMetaEngineDetection13getEngineNameEv> -> "_ZNK23PinkMetaEngineDetection13getEngineNameEv"
 - func[832] <_ZNK23PinkMetaEngineDetection20getOriginalCopyrightEv> -> "_ZNK23PinkMetaEngineDetection20getOriginalCopyrightEv"
 - func[833] <_ZNK23PinkMetaEngineDetection16getDebugChannelsEv> -> "_ZNK23PinkMetaEngineDetection16getDebugChannelsEv"
 - global[3902] -> "g_PINK_DETECTION_type"
 - global[3903] -> "_ZTI23PinkMetaEngineDetection"
 - global[3904] -> "_ZTS23PinkMetaEngineDetection"
 - func[834] <_Z34g_PLAYGROUND3D_DETECTION_getObjectv> -> "_Z34g_PLAYGROUND3D_DETECTION_getObjectv"
 - global[3905] -> "_ZTV31Playground3dMetaEngineDetection"
 - func[835] <_ZN31Playground3dMetaEngineDetectionD0Ev> -> "_ZN31Playground3dMetaEngineDetectionD0Ev"
 - func[836] <_ZNK31Playground3dMetaEngineDetection7getNameEv> -> "_ZNK31Playground3dMetaEngineDetection7getNameEv"
 - func[837] <_ZNK31Playground3dMetaEngineDetection13getEngineNameEv> -> "_ZNK31Playground3dMetaEngineDetection13getEngineNameEv"
 - func[838] <_ZNK31Playground3dMetaEngineDetection20getOriginalCopyrightEv> -> "_ZNK31Playground3dMetaEngineDetection20getOriginalCopyrightEv"
 - global[3906] -> "g_PLAYGROUND3D_DETECTION_type"
 - global[3907] -> "_ZTI31Playground3dMetaEngineDetection"
 - global[3908] -> "_ZTS31Playground3dMetaEngineDetection"
 - func[839] <_Z30g_PLUMBERS_DETECTION_getObjectv> -> "_Z30g_PLUMBERS_DETECTION_getObjectv"
 - global[3909] -> "_ZTV27PlumbersMetaEngineDetection"
 - func[840] <_ZN27PlumbersMetaEngineDetectionD0Ev> -> "_ZN27PlumbersMetaEngineDetectionD0Ev"
 - func[841] <_ZNK27PlumbersMetaEngineDetection7getNameEv> -> "_ZNK27PlumbersMetaEngineDetection7getNameEv"
 - func[842] <_ZNK27PlumbersMetaEngineDetection13getEngineNameEv> -> "_ZNK27PlumbersMetaEngineDetection13getEngineNameEv"
 - func[843] <_ZNK27PlumbersMetaEngineDetection20getOriginalCopyrightEv> -> "_ZNK27PlumbersMetaEngineDetection20getOriginalCopyrightEv"
 - func[844] <_ZNK27PlumbersMetaEngineDetection16getDebugChannelsEv> -> "_ZNK27PlumbersMetaEngineDetection16getDebugChannelsEv"
 - global[3910] -> "g_PLUMBERS_DETECTION_type"
 - global[3911] -> "_ZTI27PlumbersMetaEngineDetection"
 - global[3912] -> "_ZTS27PlumbersMetaEngineDetection"
 - func[845] <_Z28g_PRINCE_DETECTION_getObjectv> -> "_Z28g_PRINCE_DETECTION_getObjectv"
 - global[3913] -> "_ZTV25PrinceMetaEngineDetection"
 - func[846] <_ZN25PrinceMetaEngineDetectionD0Ev> -> "_ZN25PrinceMetaEngineDetectionD0Ev"
 - func[847] <_ZNK25PrinceMetaEngineDetection7getNameEv> -> "_ZNK25PrinceMetaEngineDetection7getNameEv"
 - func[848] <_ZNK25PrinceMetaEngineDetection13getEngineNameEv> -> "_ZNK25PrinceMetaEngineDetection13getEngineNameEv"
 - func[849] <_ZNK25PrinceMetaEngineDetection20getOriginalCopyrightEv> -> "_ZNK25PrinceMetaEngineDetection20getOriginalCopyrightEv"
 - func[850] <_ZNK25PrinceMetaEngineDetection16getDebugChannelsEv> -> "_ZNK25PrinceMetaEngineDetection16getDebugChannelsEv"
 - global[3914] -> "g_PRINCE_DETECTION_type"
 - global[3915] -> "_ZTI25PrinceMetaEngineDetection"
 - global[3916] -> "_ZTS25PrinceMetaEngineDetection"
 - func[851] <_Z29g_PRIVATE_DETECTION_getObjectv> -> "_Z29g_PRIVATE_DETECTION_getObjectv"
 - global[3917] -> "_ZTV26PrivateMetaEngineDetection"
 - func[852] <_ZN26PrivateMetaEngineDetectionD0Ev> -> "_ZN26PrivateMetaEngineDetectionD0Ev"
 - func[853] <_ZNK26PrivateMetaEngineDetection7getNameEv> -> "_ZNK26PrivateMetaEngineDetection7getNameEv"
 - func[854] <_ZNK26PrivateMetaEngineDetection13getEngineNameEv> -> "_ZNK26PrivateMetaEngineDetection13getEngineNameEv"
 - func[855] <_ZNK26PrivateMetaEngineDetection20getOriginalCopyrightEv> -> "_ZNK26PrivateMetaEngineDetection20getOriginalCopyrightEv"
 - func[856] <_ZNK26PrivateMetaEngineDetection16getDebugChannelsEv> -> "_ZNK26PrivateMetaEngineDetection16getDebugChannelsEv"
 - global[3918] -> "g_PRIVATE_DETECTION_type"
 - global[3919] -> "_ZTI26PrivateMetaEngineDetection"
 - global[3920] -> "_ZTS26PrivateMetaEngineDetection"
 - func[857] <_ZNK24QueenMetaEngineDetection14fallbackDetectERKN6Common7HashMapINS0_6StringENS0_6FSNodeENS0_15IgnoreCase_HashENS0_18IgnoreCase_EqualToEEERKNS0_6FSListEPP23ADDetectedGameExtraInfo> -> "_ZNK24QueenMetaEngineDetection14fallbackDetectERKN6Common7HashMapINS0_6StringENS0_6FSNodeENS0_15IgnoreCase_HashENS0_18IgnoreCase_EqualToEEERKNS0_6FSListEPP23ADDetectedGameExtraInfo"
 - func[863] <_ZN5Queen13detectVersionEPNS_19DetectedGameVersionEPN6Common4FileE> -> "_ZN5Queen13detectVersionEPNS_19DetectedGameVersionEPN6Common4FileE"
 - func[858] <_Z27g_QUEEN_DETECTION_getObjectv> -> "_Z27g_QUEEN_DETECTION_getObjectv"
 - global[3921] -> "_ZTV24QueenMetaEngineDetection"
 - func[859] <_ZN24QueenMetaEngineDetectionD0Ev> -> "_ZN24QueenMetaEngineDetectionD0Ev"
 - func[860] <_ZNK24QueenMetaEngineDetection7getNameEv> -> "_ZNK24QueenMetaEngineDetection7getNameEv"
 - func[861] <_ZNK24QueenMetaEngineDetection13getEngineNameEv> -> "_ZNK24QueenMetaEngineDetection13getEngineNameEv"
 - func[862] <_ZNK24QueenMetaEngineDetection20getOriginalCopyrightEv> -> "_ZNK24QueenMetaEngineDetection20getOriginalCopyrightEv"
 - global[3922] -> "g_QUEEN_DETECTION_type"
 - global[3923] -> "_ZTI24QueenMetaEngineDetection"
 - global[3924] -> "_ZTS24QueenMetaEngineDetection"
 - func[12010] <_ZN6Common13parseLanguageERKNS_6StringE> -> "_ZN6Common13parseLanguageERKNS_6StringE"
 - func[864] <_ZN5Queen25detectGameVersionFromSizeEj> -> "_ZN5Queen25detectGameVersionFromSizeEj"
 - func[865] <_Z26g_SAGA_DETECTION_getObjectv> -> "_Z26g_SAGA_DETECTION_getObjectv"
 - global[3925] -> "_ZZN23SagaMetaEngineDetectionC1EvE15DIRECTORY_GLOBS"
 - global[3926] -> "_ZTV23SagaMetaEngineDetection"
 - func[866] <_ZN23SagaMetaEngineDetectionD0Ev> -> "_ZN23SagaMetaEngineDetectionD0Ev"
 - func[867] <_ZNK23SagaMetaEngineDetection7getNameEv> -> "_ZNK23SagaMetaEngineDetection7getNameEv"
 - func[868] <_ZNK23SagaMetaEngineDetection13getEngineNameEv> -> "_ZNK23SagaMetaEngineDetection13getEngineNameEv"
 - func[869] <_ZNK23SagaMetaEngineDetection20getOriginalCopyrightEv> -> "_ZNK23SagaMetaEngineDetection20getOriginalCopyrightEv"
 - global[3927] -> "g_SAGA_DETECTION_type"
 - global[3928] -> "_ZTI23SagaMetaEngineDetection"
 - global[3929] -> "_ZTS23SagaMetaEngineDetection"
 - func[870] <_Z27g_SAGA2_DETECTION_getObjectv> -> "_Z27g_SAGA2_DETECTION_getObjectv"
 - global[3930] -> "_ZTV24Saga2MetaEngineDetection"
 - func[871] <_ZN24Saga2MetaEngineDetectionD0Ev> -> "_ZN24Saga2MetaEngineDetectionD0Ev"
 - func[872] <_ZNK24Saga2MetaEngineDetection7getNameEv> -> "_ZNK24Saga2MetaEngineDetection7getNameEv"
 - func[873] <_ZNK24Saga2MetaEngineDetection13getEngineNameEv> -> "_ZNK24Saga2MetaEngineDetection13getEngineNameEv"
 - func[874] <_ZNK24Saga2MetaEngineDetection20getOriginalCopyrightEv> -> "_ZNK24Saga2MetaEngineDetection20getOriginalCopyrightEv"
 - func[875] <_ZNK24Saga2MetaEngineDetection16getDebugChannelsEv> -> "_ZNK24Saga2MetaEngineDetection16getDebugChannelsEv"
 - global[3931] -> "g_SAGA2_DETECTION_type"
 - global[3932] -> "_ZTI24Saga2MetaEngineDetection"
 - global[3933] -> "_ZTS24Saga2MetaEngineDetection"
 - func[876] <_ZNK3Sci22SciMetaEngineDetection14fallbackDetectERKN6Common7HashMapINS1_6StringENS1_6FSNodeENS1_15IgnoreCase_HashENS1_18IgnoreCase_EqualToEEERKNS1_6FSListEPP23ADDetectedGameExtraInfo> -> "_ZNK3Sci22SciMetaEngineDetection14fallbackDetectERKN6Common7HashMapINS1_6StringENS1_6FSNodeENS1_15IgnoreCase_HashENS1_18IgnoreCase_EqualToEEERKNS1_6FSListEPP23ADDetectedGameExtraInfo"
 - func[11784] <_ZNK6Common13ConfigManager6hasKeyERKNS_6StringE> -> "_ZNK6Common13ConfigManager6hasKeyERKNS_6StringE"
 - func[11790] <_ZNK6Common13ConfigManager7getBoolERKNS_6StringES3_> -> "_ZNK6Common13ConfigManager7getBoolERKNS_6StringES3_"
 - global[3934] -> "_ZN6Common9SingletonI13EngineManagerE10_singletonE"
 - global[3935] -> "_ZTV13EngineManager"
 - func[1441] <_ZNK13EngineManager10findPluginERKN6Common6StringE> -> "_ZNK13EngineManager10findPluginERKN6Common6StringE"
 - func[1418] <_ZN13PluginManager8instanceEv> -> "_ZN13PluginManager8instanceEv"
 - func[1425] <_ZN13PluginManager23getEngineFromMetaEngineEPK6Plugin> -> "_ZN13PluginManager23getEngineFromMetaEngineEPK6Plugin"
 - global[3936] -> "_ZTI18AdvancedMetaEngine"
 - func[25849] <__dynamic_cast> -> "__dynamic_cast"
 - func[1407] <_ZNK6Plugin7getNameEv> -> "_ZNK6Plugin7getNameEv"
 - func[877] <_Z25g_SCI_DETECTION_getObjectv> -> "_Z25g_SCI_DETECTION_getObjectv"
 - global[3937] -> "_ZTVN3Sci22SciMetaEngineDetectionE"
 - func[878] <_ZN3Sci22SciMetaEngineDetectionD0Ev> -> "_ZN3Sci22SciMetaEngineDetectionD0Ev"
 - func[879] <_ZNK3Sci22SciMetaEngineDetection7getNameEv> -> "_ZNK3Sci22SciMetaEngineDetection7getNameEv"
 - func[880] <_ZNK3Sci22SciMetaEngineDetection13getEngineNameEv> -> "_ZNK3Sci22SciMetaEngineDetection13getEngineNameEv"
 - func[881] <_ZNK3Sci22SciMetaEngineDetection20getOriginalCopyrightEv> -> "_ZNK3Sci22SciMetaEngineDetection20getOriginalCopyrightEv"
 - func[882] <_ZNK3Sci22SciMetaEngineDetection16getDebugChannelsEv> -> "_ZNK3Sci22SciMetaEngineDetection16getDebugChannelsEv"
 - func[883] <_ZN6Common9SingletonI13EngineManagerED2Ev> -> "_ZN6Common9SingletonI13EngineManagerED2Ev"
 - func[884] <_ZN13EngineManagerD0Ev> -> "_ZN13EngineManagerD0Ev"
 - global[3938] -> "g_SCI_DETECTION_type"
 - global[3939] -> "_ZTIN3Sci22SciMetaEngineDetectionE"
 - global[3940] -> "_ZTSN3Sci22SciMetaEngineDetectionE"
 - global[3941] -> "_ZTI13EngineManager"
 - global[3942] -> "_ZTS13EngineManager"
 - global[3943] -> "_ZTSN6Common9SingletonI13EngineManagerEE"
 - global[3944] -> "_ZTSN6Common11NonCopyableE"
 - global[3945] -> "_ZTIN6Common11NonCopyableE"
 - global[3946] -> "_ZTIN6Common9SingletonI13EngineManagerEE"
 - global[3947] -> "_ZTVN10__cxxabiv121__vmi_class_type_infoE"
 - func[885] <_ZNK24ScummMetaEngineDetection17getSupportedGamesEv> -> "_ZNK24ScummMetaEngineDetection17getSupportedGamesEv"
 - func[886] <_ZNK24ScummMetaEngineDetection8findGameEPKc> -> "_ZNK24ScummMetaEngineDetection8findGameEPKc"
 - func[887] <_ZN24ScummMetaEngineDetection11detectGamesERKN6Common6FSListEjb> -> "_ZN24ScummMetaEngineDetection11detectGamesERKN6Common6FSListEjb"
 - func[888] <_ZN6Common7HashMapINS_6StringEN5Scumm12DetectorDescENS_15IgnoreCase_HashENS_18IgnoreCase_EqualToEEC2Ev> -> "_ZN6Common7HashMapINS_6StringEN5Scumm12DetectorDescENS_15IgnoreCase_HashENS_18IgnoreCase_EqualToEEC2Ev"
 - func[890] <_ZN6Common7HashMapINS_6StringEN5Scumm12DetectorDescENS_15IgnoreCase_HashENS_18IgnoreCase_EqualToEE24lookupAndCreateIfMissingERKS1_> -> "_ZN6Common7HashMapINS_6StringEN5Scumm12DetectorDescENS_15IgnoreCase_HashENS_18IgnoreCase_EqualToEE24lookupAndCreateIfMissingERKS1_"
 - func[964] <_ZN5Scumm12ScummNESFileC1Ev> -> "_ZN5Scumm12ScummNESFileC1Ev"
 - func[922] <_ZN5Scumm14ScummDiskImageC1EPKcS2_NS_12GameSettingsE> -> "_ZN5Scumm14ScummDiskImageC1EPKcS2_NS_12GameSettingsE"
 - func[11967] <_ZNK6Common6FSNode16createReadStreamEv> -> "_ZNK6Common6FSNode16createReadStreamEv"
 - func[18331] <bsearch> -> "bsearch"
 - global[3948] -> "_ZN6Common9SingletonINS_22MainTranslationManagerEE10_singletonE"
 - func[12459] <_ZN6Common18TranslationManagerC1ERKNS_6StringE> -> "_ZN6Common18TranslationManagerC2ERKNS_6StringE"
 - global[3949] -> "_ZTVN6Common22MainTranslationManagerE"
 - func[12468] <_ZNK6Common18TranslationManager14getTranslationEPKc> -> "_ZNK6Common18TranslationManager14getTranslationEPKc"
 - func[1940] <_ZN3GUI18displayErrorDialogERKN6Common9U32StringE> -> "_ZN3GUI18displayErrorDialogERKN6Common9U32StringE"
 - func[19708] <strstr> -> "strstr"
 - func[894] <_ZN6Common7HashMapINS_6StringEN5Scumm12DetectorDescENS_15IgnoreCase_HashENS_18IgnoreCase_EqualToEED2Ev> -> "_ZN6Common7HashMapINS_6StringEN5Scumm12DetectorDescENS_15IgnoreCase_HashENS_18IgnoreCase_EqualToEED2Ev"
 - func[12124] <_ZN6Common17getPlatformAbbrevENS_8PlatformE> -> "_ZN6Common17getPlatformAbbrevENS_8PlatformE"
 - func[12012] <_ZN6Common15getLanguageCodeENS_8LanguageE> -> "_ZN6Common15getLanguageCodeENS_8LanguageE"
 - func[9289] <_ZN10MidiDriver14musicType2GUIOEj> -> "_ZN10MidiDriver14musicType2GUIOEj"
 - func[12256] <_ZN6CommonplEPKcRKNS_6StringE> -> "_ZN6CommonplEPKcRKNS_6StringE"
 - func[895] <_ZNK24ScummMetaEngineDetection13getEngineNameEv> -> "_ZNK24ScummMetaEngineDetection13getEngineNameEv"
 - func[896] <_ZNK24ScummMetaEngineDetection20getOriginalCopyrightEv> -> "_ZNK24ScummMetaEngineDetection20getOriginalCopyrightEv"
 - func[897] <_ZNK24ScummMetaEngineDetection27parseAndCustomizeGuiOptionsERKN6Common6StringES3_> -> "_ZNK24ScummMetaEngineDetection27parseAndCustomizeGuiOptionsERKN6Common6StringES3_"
 - func[898] <_Z27g_SCUMM_DETECTION_getObjectv> -> "_Z27g_SCUMM_DETECTION_getObjectv"
 - global[3950] -> "_ZTV24ScummMetaEngineDetection"
 - func[899] <_ZN24ScummMetaEngineDetectionD0Ev> -> "_ZN24ScummMetaEngineDetectionD0Ev"
 - func[900] <_ZNK24ScummMetaEngineDetection7getNameEv> -> "_ZNK24ScummMetaEngineDetection7getNameEv"
 - func[901] <_ZNK24ScummMetaEngineDetection11getMD5BytesEv> -> "_ZNK24ScummMetaEngineDetection11getMD5BytesEv"
 - func[902] <_ZNK24ScummMetaEngineDetection16getDebugChannelsEv> -> "_ZNK24ScummMetaEngineDetection16getDebugChannelsEv"
 - func[11960] <_ZNK6Common6FSNode11getChildrenERNS_6FSListENS0_8ListModeEb> -> "_ZNK6Common6FSNode11getChildrenERNS_6FSListENS0_8ListModeEb"
 - func[903] <_ZN6Common7HashMapINS_6StringEN5Scumm12DetectorDescENS_15IgnoreCase_HashENS_18IgnoreCase_EqualToEE13expandStorageEj> -> "_ZN6Common7HashMapINS_6StringEN5Scumm12DetectorDescENS_15IgnoreCase_HashENS_18IgnoreCase_EqualToEE13expandStorageEj"
 - func[904] <_ZN6Common22MainTranslationManagerD2Ev> -> "_ZN6Common22MainTranslationManagerD2Ev"
 - func[12466] <_ZN6Common18TranslationManagerD1Ev> -> "_ZN6Common18TranslationManagerD2Ev"
 - func[905] <_ZN6Common22MainTranslationManagerD0Ev> -> "_ZN6Common22MainTranslationManagerD0Ev"
 - global[3951] -> "g_SCUMM_DETECTION_type"
 - global[3952] -> "_ZTI24ScummMetaEngineDetection"
 - global[3953] -> "_ZTS24ScummMetaEngineDetection"
 - global[3954] -> "_ZTIN6Common22MainTranslationManagerE"
 - global[3955] -> "_ZTSN6Common22MainTranslationManagerE"
 - global[3956] -> "_ZTSN6Common18TranslationManagerE"
 - global[3957] -> "_ZTIN6Common18TranslationManagerE"
 - global[3958] -> "_ZTSN6Common9SingletonINS_22MainTranslationManagerEEE"
 - global[3959] -> "_ZTIN6Common9SingletonINS_22MainTranslationManagerEEE"
 - func[906] <_ZN5Scumm9ScummFileC2Ev> -> "_ZN5Scumm9ScummFileC2Ev"
 - func[11908] <_ZN6Common4FileC2Ev> -> "_ZN6Common4FileC2Ev"
 - func[907] <_ZN5Scumm9ScummFileC1Ev> -> "_ZN5Scumm9ScummFileC1Ev"
 - global[3960] -> "_ZTCN5Scumm9ScummFileE0_N6Common10ReadStreamE"
 - global[3961] -> "_ZTTN5Scumm9ScummFileE"
 - global[3962] -> "_ZTVN5Scumm9ScummFileE"
 - func[908] <_ZN5Scumm9ScummFile15setSubfileRangeEii> -> "_ZN5Scumm9ScummFile15setSubfileRangeEii"
 - func[909] <_ZN5Scumm9ScummFile12resetSubfileEv> -> "_ZN5Scumm9ScummFile12resetSubfileEv"
 - func[910] <_ZN5Scumm9ScummFile4openERKN6Common4PathE> -> "_ZN5Scumm9ScummFile4openERKN6Common4PathE"
 - func[911] <_ZN5Scumm9ScummFile11openSubFileERKN6Common6StringE> -> "_ZN5Scumm9ScummFile11openSubFileERKN6Common6StringE"
 - func[912] <_ZNK5Scumm9ScummFile3eosEv> -> "_ZNK5Scumm9ScummFile3eosEv"
 - func[913] <_ZTv0_n28_NK5Scumm9ScummFile3eosEv> -> "_ZTv0_n28_NK5Scumm9ScummFile3eosEv"
 - func[25977] <_ZNK5Scumm9ScummFile3posEv> -> "_ZNK5Scumm9ScummFile3posEv"
 - func[25978] <_ZNK5Scumm9ScummFile4sizeEv> -> "_ZNK5Scumm9ScummFile4sizeEv"
 - func[25979] <_ZN5Scumm9ScummFile4seekExi> -> "_ZN5Scumm9ScummFile4seekExi"
 - func[917] <_ZN5Scumm9ScummFile4readEPvj> -> "_ZN5Scumm9ScummFile4readEPvj"
 - func[918] <_ZTv0_n32_N5Scumm9ScummFile4readEPvj> -> "_ZTv0_n32_N5Scumm9ScummFile4readEPvj"
 - func[919] <_ZN5Scumm14ScummSteamFile4openERKN6Common4PathE> -> "_ZN5Scumm14ScummSteamFile4openERKN6Common4PathE"
 - func[920] <_ZN5Scumm14ScummSteamFile16openWithSubRangeERKN6Common6StringEii> -> "_ZN5Scumm14ScummSteamFile16openWithSubRangeERKN6Common6StringEii"
 - func[921] <_ZN5Scumm14ScummDiskImageC2EPKcS2_NS_12GameSettingsE> -> "_ZN5Scumm14ScummDiskImageC2EPKcS2_NS_12GameSettingsE"
 - global[3963] -> "_ZTCN5Scumm14ScummDiskImageE0_N6Common10ReadStreamE"
 - global[3964] -> "_ZTTN5Scumm14ScummDiskImageE"
 - global[3965] -> "_ZTVN5Scumm14ScummDiskImageE"
 - func[923] <_ZN5Scumm14ScummDiskImage12fileReadByteEv> -> "_ZN5Scumm14ScummDiskImage12fileReadByteEv"
 - func[924] <_ZN5Scumm14ScummDiskImage16fileReadUint16LEEv> -> "_ZN5Scumm14ScummDiskImage16fileReadUint16LEEv"
 - func[925] <_ZN5Scumm14ScummDiskImage8openDiskEc> -> "_ZN5Scumm14ScummDiskImage8openDiskEc"
 - func[926] <_ZN5Scumm14ScummDiskImage4openERKN6Common4PathE> -> "_ZN5Scumm14ScummDiskImage4openERKN6Common4PathE"
 - func[927] <_ZN5Scumm14ScummDiskImage12extractIndexEPN6Common11WriteStreamE> -> "_ZN5Scumm14ScummDiskImage12extractIndexEPN6Common11WriteStreamE"
 - func[928] <_ZN5Scumm14ScummDiskImage13generateIndexEv> -> "_ZN5Scumm14ScummDiskImage13generateIndexEv"
 - global[3966] -> "_ZTVN6Common17MemoryWriteStreamE"
 - func[929] <_ZN6Common17MemoryWriteStreamD1Ev> -> "_ZN6Common17MemoryWriteStreamD1Ev"
 - func[930] <_ZN5Scumm14ScummDiskImage15extractResourceEPN6Common11WriteStreamEi> -> "_ZN5Scumm14ScummDiskImage15extractResourceEPN6Common11WriteStreamEi"
 - func[931] <_ZN5Scumm14ScummDiskImage16generateResourceEi> -> "_ZN5Scumm14ScummDiskImage16generateResourceEi"
 - func[932] <_ZN5Scumm14ScummDiskImage5closeEv> -> "_ZN5Scumm14ScummDiskImage5closeEv"
 - func[933] <_ZN5Scumm14ScummDiskImage11openSubFileERKN6Common6StringE> -> "_ZN5Scumm14ScummDiskImage11openSubFileERKN6Common6StringE"
 - func[19704] <strrchr> -> "strrchr"
 - func[934] <_ZN5Scumm14ScummDiskImage4readEPvj> -> "_ZN5Scumm14ScummDiskImage4readEPvj"
 - func[935] <_ZTv0_n32_N5Scumm14ScummDiskImage4readEPvj> -> "_ZTv0_n32_N5Scumm14ScummDiskImage4readEPvj"
 - func[936] <_ZN5Scumm13BaseScummFileD1Ev> -> "_ZN5Scumm13BaseScummFileD1Ev"
 - func[937] <_ZN5Scumm13BaseScummFileD0Ev> -> "_ZN5Scumm13BaseScummFileD0Ev"
 - func[938] <_ZN6Common18SeekableReadStream4skipEj> -> "_ZN6Common18SeekableReadStream4skipEj"
 - func[939] <_ZN6Common18SeekableReadStreamD1Ev> -> "_ZN6Common18SeekableReadStreamD1Ev"
 - func[940] <_ZN6Common18SeekableReadStreamD0Ev> -> "_ZN6Common18SeekableReadStreamD0Ev"
 - func[941] <_ZN6Common10ReadStreamD1Ev> -> "_ZN6Common10ReadStreamD1Ev"
 - func[942] <_ZN6Common10ReadStreamD0Ev> -> "_ZN6Common10ReadStreamD0Ev"
 - func[943] <_ZN5Scumm9ScummFileD1Ev> -> "_ZN5Scumm9ScummFileD1Ev"
 - func[11910] <_ZN6Common4FileD2Ev> -> "_ZN6Common4FileD2Ev"
 - func[944] <_ZN5Scumm9ScummFileD0Ev> -> "_ZN5Scumm9ScummFileD0Ev"
 - func[945] <_ZN5Scumm9ScummFile8clearErrEv> -> "_ZN5Scumm9ScummFile8clearErrEv"
 - func[11924] <_ZN6Common4File8clearErrEv> -> "_ZN6Common4File8clearErrEv"
 - func[946] <_ZN5Scumm14ScummSteamFileD1Ev> -> "_ZN5Scumm14ScummSteamFileD1Ev"
 - global[3967] -> "_ZTTN5Scumm14ScummSteamFileE"
 - func[947] <_ZN5Scumm14ScummSteamFileD0Ev> -> "_ZN5Scumm14ScummSteamFileD0Ev"
 - func[948] <_ZN5Scumm14ScummDiskImageD1Ev> -> "_ZN5Scumm14ScummDiskImageD1Ev"
 - func[949] <_ZN5Scumm14ScummDiskImageD0Ev> -> "_ZN5Scumm14ScummDiskImageD0Ev"
 - func[950] <_ZNK5Scumm14ScummDiskImage3eosEv> -> "_ZNK5Scumm14ScummDiskImage3eosEv"
 - func[25980] <_ZNK5Scumm14ScummDiskImage3posEv> -> "_ZNK5Scumm14ScummDiskImage3posEv"
 - func[25981] <_ZNK5Scumm14ScummDiskImage4sizeEv> -> "_ZNK5Scumm14ScummDiskImage4sizeEv"
 - func[25982] <_ZN5Scumm14ScummDiskImage4seekExi> -> "_ZN5Scumm14ScummDiskImage4seekExi"
 - func[954] <_ZN6Common11WriteStream5flushEv> -> "_ZN6Common11WriteStream5flushEv"
 - func[955] <_ZN6Common11WriteStream8finalizeEv> -> "_ZN6Common11WriteStream8finalizeEv"
 - func[956] <_ZN6Common17MemoryWriteStreamD0Ev> -> "_ZN6Common17MemoryWriteStreamD0Ev"
 - func[957] <_ZNK6Common17MemoryWriteStream3errEv> -> "_ZNK6Common17MemoryWriteStream3errEv"
 - func[958] <_ZN6Common17MemoryWriteStream8clearErrEv> -> "_ZN6Common17MemoryWriteStream8clearErrEv"
 - func[959] <_ZN6Common17MemoryWriteStream5writeEPKvj> -> "_ZN6Common17MemoryWriteStream5writeEPKvj"
 - func[25983] <_ZNK6Common17MemoryWriteStream3posEv> -> "_ZNK6Common17MemoryWriteStream3posEv"
 - func[25984] <_ZN6Common17MemoryWriteStream4seekExi> -> "_ZN6Common17MemoryWriteStream4seekExi"
 - func[25985] <_ZNK6Common17MemoryWriteStream4sizeEv> -> "_ZNK6Common17MemoryWriteStream4sizeEv"
 - global[3968] -> "_ZTIN5Scumm9ScummFileE"
 - func[11922] <_ZNK6Common4File3errEv> -> "_ZNK6Common4File3errEv"
 - func[12288] <_ZN6Common18SeekableReadStream8readLineEPcmb> -> "_ZN6Common18SeekableReadStream8readLineEPcmb"
 - func[12289] <_ZN6Common18SeekableReadStream8readLineEb> -> "_ZN6Common18SeekableReadStream8readLineEb"
 - func[11916] <_ZN6Common4File4openERKNS_4PathERNS_7ArchiveE> -> "_ZN6Common4File4openERKNS_4PathERNS_7ArchiveE"
 - func[11918] <_ZN6Common4File4openEPNS_18SeekableReadStreamERKNS_6StringE> -> "_ZN6Common4File4openEPNS_18SeekableReadStreamERKNS_6StringE"
 - global[3969] -> "_ZTCN5Scumm9ScummFileE0_NS_13BaseScummFileE"
 - global[3970] -> "_ZTCN5Scumm9ScummFileE0_N6Common4FileE"
 - global[3971] -> "_ZTCN5Scumm9ScummFileE0_N6Common18SeekableReadStreamE"
 - global[3972] -> "_ZTIN5Scumm14ScummDiskImageE"
 - global[3973] -> "_ZTCN5Scumm14ScummDiskImageE0_NS_13BaseScummFileE"
 - global[3974] -> "_ZTCN5Scumm14ScummDiskImageE0_N6Common4FileE"
 - global[3975] -> "_ZTCN5Scumm14ScummDiskImageE0_N6Common18SeekableReadStreamE"
 - global[3976] -> "_ZTIN5Scumm13BaseScummFileE"
 - global[3977] -> "_ZTSN5Scumm13BaseScummFileE"
 - global[3978] -> "_ZTIN6Common4FileE"
 - func[11913] <_ZN6Common4FileD0Ev> -> "_ZN6Common4FileD0Ev"
 - global[3979] -> "_ZTIN6Common18SeekableReadStreamE"
 - global[3980] -> "_ZTIN6Common10ReadStreamE"
 - global[3981] -> "_ZTSN6Common10ReadStreamE"
 - global[3982] -> "_ZTSN5Scumm9ScummFileE"
 - global[3983] -> "_ZTVN5Scumm14ScummSteamFileE"
 - global[3984] -> "_ZTIN5Scumm14ScummSteamFileE"
 - global[3985] -> "_ZTCN5Scumm14ScummSteamFileE0_NS_9ScummFileE"
 - global[3986] -> "_ZTCN5Scumm14ScummSteamFileE0_NS_13BaseScummFileE"
 - global[3987] -> "_ZTCN5Scumm14ScummSteamFileE0_N6Common4FileE"
 - global[3988] -> "_ZTCN5Scumm14ScummSteamFileE0_N6Common18SeekableReadStreamE"
 - global[3989] -> "_ZTCN5Scumm14ScummSteamFileE0_N6Common10ReadStreamE"
 - global[3990] -> "_ZTSN5Scumm14ScummSteamFileE"
 - global[3991] -> "_ZTSN5Scumm14ScummDiskImageE"
 - global[3992] -> "_ZTIN6Common17MemoryWriteStreamE"
 - global[3993] -> "_ZTSN6Common19SeekableWriteStreamE"
 - global[3994] -> "_ZTSN6Common11WriteStreamE"
 - global[3995] -> "_ZTIN6Common11WriteStreamE"
 - global[3996] -> "_ZTIN6Common19SeekableWriteStreamE"
 - global[3997] -> "_ZTSN6Common17MemoryWriteStreamE"
 - func[963] <_ZN5Scumm12ScummNESFileC2Ev> -> "_ZN5Scumm12ScummNESFileC2Ev"
 - global[3998] -> "_ZTCN5Scumm12ScummNESFileE0_N6Common10ReadStreamE"
 - global[3999] -> "_ZTTN5Scumm12ScummNESFileE"
 - global[4000] -> "_ZTVN5Scumm12ScummNESFileE"
 - func[965] <_ZN5Scumm12ScummNESFile12fileReadByteEv> -> "_ZN5Scumm12ScummNESFile12fileReadByteEv"
 - func[966] <_ZN5Scumm12ScummNESFile16fileReadUint16LEEv> -> "_ZN5Scumm12ScummNESFile16fileReadUint16LEEv"
 - func[967] <_ZN5Scumm12ScummNESFile15extractResourceEPN6Common11WriteStreamEPKNS0_8ResourceENS0_7ResTypeE> -> "_ZN5Scumm12ScummNESFile15extractResourceEPN6Common11WriteStreamEPKNS0_8ResourceENS0_7ResTypeE"
 - func[968] <_ZN5Scumm12ScummNESFile16generateResourceEi> -> "_ZN5Scumm12ScummNESFile16generateResourceEi"
 - func[969] <_ZN5Scumm12ScummNESFile13generateIndexEv> -> "_ZN5Scumm12ScummNESFile13generateIndexEv"
 - func[970] <_ZN5Scumm12ScummNESFile4openERKN6Common4PathE> -> "_ZN5Scumm12ScummNESFile4openERKN6Common4PathE"
 - func[971] <_ZN5Scumm12ScummNESFile5closeEv> -> "_ZN5Scumm12ScummNESFile5closeEv"
 - func[972] <_ZN5Scumm12ScummNESFile11openSubFileERKN6Common6StringE> -> "_ZN5Scumm12ScummNESFile11openSubFileERKN6Common6StringE"
 - func[973] <_ZN5Scumm12ScummNESFile4readEPvj> -> "_ZN5Scumm12ScummNESFile4readEPvj"
 - func[974] <_ZTv0_n32_N5Scumm12ScummNESFile4readEPvj> -> "_ZTv0_n32_N5Scumm12ScummNESFile4readEPvj"
 - func[975] <_ZN5Scumm12ScummNESFileD1Ev> -> "_ZN5Scumm12ScummNESFileD1Ev"
 - func[976] <_ZN5Scumm12ScummNESFileD0Ev> -> "_ZN5Scumm12ScummNESFileD0Ev"
 - func[977] <_ZNK5Scumm12ScummNESFile3eosEv> -> "_ZNK5Scumm12ScummNESFile3eosEv"
 - func[25986] <_ZNK5Scumm12ScummNESFile3posEv> -> "_ZNK5Scumm12ScummNESFile3posEv"
 - func[25987] <_ZNK5Scumm12ScummNESFile4sizeEv> -> "_ZNK5Scumm12ScummNESFile4sizeEv"
 - func[25988] <_ZN5Scumm12ScummNESFile4seekExi> -> "_ZN5Scumm12ScummNESFile4seekExi"
 - global[4001] -> "_ZTIN5Scumm12ScummNESFileE"
 - global[4002] -> "_ZTCN5Scumm12ScummNESFileE0_NS_13BaseScummFileE"
 - global[4003] -> "_ZTCN5Scumm12ScummNESFileE0_N6Common4FileE"
 - global[4004] -> "_ZTCN5Scumm12ScummNESFileE0_N6Common18SeekableReadStreamE"
 - global[4005] -> "_ZTSN5Scumm12ScummNESFileE"
 - func[981] <_Z30g_SHERLOCK_DETECTION_getObjectv> -> "_Z30g_SHERLOCK_DETECTION_getObjectv"
 - global[4006] -> "_ZTV27SherlockMetaEngineDetection"
 - func[982] <_ZN27SherlockMetaEngineDetectionD0Ev> -> "_ZN27SherlockMetaEngineDetectionD0Ev"
 - func[983] <_ZNK27SherlockMetaEngineDetection7getNameEv> -> "_ZNK27SherlockMetaEngineDetection7getNameEv"
 - func[984] <_ZNK27SherlockMetaEngineDetection13getEngineNameEv> -> "_ZNK27SherlockMetaEngineDetection13getEngineNameEv"
 - func[985] <_ZNK27SherlockMetaEngineDetection20getOriginalCopyrightEv> -> "_ZNK27SherlockMetaEngineDetection20getOriginalCopyrightEv"
 - func[986] <_ZNK27SherlockMetaEngineDetection16getDebugChannelsEv> -> "_ZNK27SherlockMetaEngineDetection16getDebugChannelsEv"
 - global[4007] -> "g_SHERLOCK_DETECTION_type"
 - global[4008] -> "_ZTI27SherlockMetaEngineDetection"
 - global[4009] -> "_ZTS27SherlockMetaEngineDetection"
 - func[987] <_ZNK22SkyMetaEngineDetection13getEngineNameEv> -> "_ZNK22SkyMetaEngineDetection13getEngineNameEv"
 - func[988] <_ZNK22SkyMetaEngineDetection20getOriginalCopyrightEv> -> "_ZNK22SkyMetaEngineDetection20getOriginalCopyrightEv"
 - func[989] <_ZNK22SkyMetaEngineDetection17getSupportedGamesEv> -> "_ZNK22SkyMetaEngineDetection17getSupportedGamesEv"
 - func[990] <_ZNK22SkyMetaEngineDetection8findGameEPKc> -> "_ZNK22SkyMetaEngineDetection8findGameEPKc"
 - func[1705] <_ZN19PlainGameDescriptor5emptyEv> -> "_ZN19PlainGameDescriptor5emptyEv"
 - func[991] <_ZN22SkyMetaEngineDetection11detectGamesERKN6Common6FSListEjb> -> "_ZN22SkyMetaEngineDetection11detectGamesERKN6Common6FSListEjb"
 - func[992] <_Z25g_SKY_DETECTION_getObjectv> -> "_Z25g_SKY_DETECTION_getObjectv"
 - global[4010] -> "_ZTV22SkyMetaEngineDetection"
 - func[993] <_ZN22SkyMetaEngineDetectionD0Ev> -> "_ZN22SkyMetaEngineDetectionD0Ev"
 - func[994] <_ZNK22SkyMetaEngineDetection7getNameEv> -> "_ZNK22SkyMetaEngineDetection7getNameEv"
 - func[995] <_ZNK22SkyMetaEngineDetection11getMD5BytesEv> -> "_ZNK22SkyMetaEngineDetection11getMD5BytesEv"
 - global[4011] -> "g_SKY_DETECTION_type"
 - global[4012] -> "_ZTI22SkyMetaEngineDetection"
 - global[4013] -> "_ZTS22SkyMetaEngineDetection"
 - func[996] <_ZNK25SludgeMetaEngineDetection14fallbackDetectERKN6Common7HashMapINS0_6StringENS0_6FSNodeENS0_15IgnoreCase_HashENS0_18IgnoreCase_EqualToEEERKNS0_6FSListEPP23ADDetectedGameExtraInfo> -> "_ZNK25SludgeMetaEngineDetection14fallbackDetectERKN6Common7HashMapINS0_6StringENS0_6FSNodeENS0_15IgnoreCase_HashENS0_18IgnoreCase_EqualToEEERKNS0_6FSListEPP23ADDetectedGameExtraInfo"
 - func[997] <_Z28g_SLUDGE_DETECTION_getObjectv> -> "_Z28g_SLUDGE_DETECTION_getObjectv"
 - global[4014] -> "_ZTV25SludgeMetaEngineDetection"
 - func[998] <_ZN25SludgeMetaEngineDetectionD0Ev> -> "_ZN25SludgeMetaEngineDetectionD0Ev"
 - func[999] <_ZNK25SludgeMetaEngineDetection7getNameEv> -> "_ZNK25SludgeMetaEngineDetection7getNameEv"
 - func[1000] <_ZNK25SludgeMetaEngineDetection13getEngineNameEv> -> "_ZNK25SludgeMetaEngineDetection13getEngineNameEv"
 - func[1001] <_ZNK25SludgeMetaEngineDetection20getOriginalCopyrightEv> -> "_ZNK25SludgeMetaEngineDetection20getOriginalCopyrightEv"
 - func[1002] <_ZNK25SludgeMetaEngineDetection16getDebugChannelsEv> -> "_ZNK25SludgeMetaEngineDetection16getDebugChannelsEv"
 - global[4015] -> "g_SLUDGE_DETECTION_type"
 - global[4016] -> "_ZTI25SludgeMetaEngineDetection"
 - global[4017] -> "_ZTS25SludgeMetaEngineDetection"
 - func[1003] <_Z27g_STARK_DETECTION_getObjectv> -> "_Z27g_STARK_DETECTION_getObjectv"
 - global[4018] -> "_ZTVN5Stark24StarkMetaEngineDetectionE"
 - func[1004] <_ZN5Stark24StarkMetaEngineDetectionD0Ev> -> "_ZN5Stark24StarkMetaEngineDetectionD0Ev"
 - func[1005] <_ZNK5Stark24StarkMetaEngineDetection7getNameEv> -> "_ZNK5Stark24StarkMetaEngineDetection7getNameEv"
 - func[1006] <_ZNK5Stark24StarkMetaEngineDetection13getEngineNameEv> -> "_ZNK5Stark24StarkMetaEngineDetection13getEngineNameEv"
 - func[1007] <_ZNK5Stark24StarkMetaEngineDetection20getOriginalCopyrightEv> -> "_ZNK5Stark24StarkMetaEngineDetection20getOriginalCopyrightEv"
 - func[1008] <_ZNK5Stark24StarkMetaEngineDetection16getDebugChannelsEv> -> "_ZNK5Stark24StarkMetaEngineDetection16getDebugChannelsEv"
 - global[4019] -> "g_STARK_DETECTION_type"
 - global[4020] -> "_ZTIN5Stark24StarkMetaEngineDetectionE"
 - global[4021] -> "_ZTSN5Stark24StarkMetaEngineDetectionE"
 - func[1009] <_Z30g_STARTREK_DETECTION_getObjectv> -> "_Z30g_STARTREK_DETECTION_getObjectv"
 - global[4022] -> "_ZTV27StarTrekMetaEngineDetection"
 - func[1010] <_ZN27StarTrekMetaEngineDetectionD0Ev> -> "_ZN27StarTrekMetaEngineDetectionD0Ev"
 - func[1011] <_ZNK27StarTrekMetaEngineDetection7getNameEv> -> "_ZNK27StarTrekMetaEngineDetection7getNameEv"
 - func[1012] <_ZNK27StarTrekMetaEngineDetection13getEngineNameEv> -> "_ZNK27StarTrekMetaEngineDetection13getEngineNameEv"
 - func[1013] <_ZNK27StarTrekMetaEngineDetection20getOriginalCopyrightEv> -> "_ZNK27StarTrekMetaEngineDetection20getOriginalCopyrightEv"
 - func[1014] <_ZNK27StarTrekMetaEngineDetection16getDebugChannelsEv> -> "_ZNK27StarTrekMetaEngineDetection16getDebugChannelsEv"
 - global[4023] -> "g_STARTREK_DETECTION_type"
 - global[4024] -> "_ZTI27StarTrekMetaEngineDetection"
 - global[4025] -> "_ZTS27StarTrekMetaEngineDetection"
 - func[1015] <_Z31g_SUPERNOVA_DETECTION_getObjectv> -> "_Z31g_SUPERNOVA_DETECTION_getObjectv"
 - global[4026] -> "_ZTV28SupernovaMetaEngineDetection"
 - func[1016] <_ZN28SupernovaMetaEngineDetectionD0Ev> -> "_ZN28SupernovaMetaEngineDetectionD0Ev"
 - func[1017] <_ZNK28SupernovaMetaEngineDetection7getNameEv> -> "_ZNK28SupernovaMetaEngineDetection7getNameEv"
 - func[1018] <_ZNK28SupernovaMetaEngineDetection13getEngineNameEv> -> "_ZNK28SupernovaMetaEngineDetection13getEngineNameEv"
 - func[1019] <_ZNK28SupernovaMetaEngineDetection20getOriginalCopyrightEv> -> "_ZNK28SupernovaMetaEngineDetection20getOriginalCopyrightEv"
 - func[1020] <_ZNK28SupernovaMetaEngineDetection16getDebugChannelsEv> -> "_ZNK28SupernovaMetaEngineDetection16getDebugChannelsEv"
 - global[4027] -> "g_SUPERNOVA_DETECTION_type"
 - global[4028] -> "_ZTI28SupernovaMetaEngineDetection"
 - global[4029] -> "_ZTS28SupernovaMetaEngineDetection"
 - func[1021] <_Z28g_SWORD1_DETECTION_getObjectv> -> "_Z28g_SWORD1_DETECTION_getObjectv"
 - global[4030] -> "_ZTV24SwordMetaEngineDetection"
 - func[1022] <_ZN24SwordMetaEngineDetectionD0Ev> -> "_ZN24SwordMetaEngineDetectionD0Ev"
 - func[1023] <_ZNK24SwordMetaEngineDetection7getNameEv> -> "_ZNK24SwordMetaEngineDetection7getNameEv"
 - func[1024] <_ZNK24SwordMetaEngineDetection13getEngineNameEv> -> "_ZNK24SwordMetaEngineDetection13getEngineNameEv"
 - func[1025] <_ZNK24SwordMetaEngineDetection20getOriginalCopyrightEv> -> "_ZNK24SwordMetaEngineDetection20getOriginalCopyrightEv"
 - func[1026] <_ZNK24SwordMetaEngineDetection8findGameEPKc> -> "_ZNK24SwordMetaEngineDetection8findGameEPKc"
 - global[4031] -> "g_SWORD1_DETECTION_type"
 - global[4032] -> "_ZTI24SwordMetaEngineDetection"
 - global[4033] -> "_ZTS24SwordMetaEngineDetection"
 - func[1027] <_Z28g_SWORD2_DETECTION_getObjectv> -> "_Z28g_SWORD2_DETECTION_getObjectv"
 - global[4034] -> "_ZTV25Sword2MetaEngineDetection"
 - func[1028] <_ZN25Sword2MetaEngineDetectionD0Ev> -> "_ZN25Sword2MetaEngineDetectionD0Ev"
 - func[1029] <_ZNK25Sword2MetaEngineDetection7getNameEv> -> "_ZNK25Sword2MetaEngineDetection7getNameEv"
 - func[1030] <_ZNK25Sword2MetaEngineDetection13getEngineNameEv> -> "_ZNK25Sword2MetaEngineDetection13getEngineNameEv"
 - func[1031] <_ZNK25Sword2MetaEngineDetection20getOriginalCopyrightEv> -> "_ZNK25Sword2MetaEngineDetection20getOriginalCopyrightEv"
 - func[1032] <_ZNK25Sword2MetaEngineDetection8findGameEPKc> -> "_ZNK25Sword2MetaEngineDetection8findGameEPKc"
 - global[4035] -> "g_SWORD2_DETECTION_type"
 - global[4036] -> "_ZTI25Sword2MetaEngineDetection"
 - global[4037] -> "_ZTS25Sword2MetaEngineDetection"
 - func[1033] <_Z29g_SWORD25_DETECTION_getObjectv> -> "_Z29g_SWORD25_DETECTION_getObjectv"
 - global[4038] -> "_ZTV26Sword25MetaEngineDetection"
 - func[1034] <_ZN26Sword25MetaEngineDetectionD0Ev> -> "_ZN26Sword25MetaEngineDetectionD0Ev"
 - func[1035] <_ZNK26Sword25MetaEngineDetection7getNameEv> -> "_ZNK26Sword25MetaEngineDetection7getNameEv"
 - func[1036] <_ZNK26Sword25MetaEngineDetection13getEngineNameEv> -> "_ZNK26Sword25MetaEngineDetection13getEngineNameEv"
 - func[1037] <_ZNK26Sword25MetaEngineDetection20getOriginalCopyrightEv> -> "_ZNK26Sword25MetaEngineDetection20getOriginalCopyrightEv"
 - func[1038] <_ZNK26Sword25MetaEngineDetection16getDebugChannelsEv> -> "_ZNK26Sword25MetaEngineDetection16getDebugChannelsEv"
 - global[4039] -> "g_SWORD25_DETECTION_type"
 - global[4040] -> "_ZTI26Sword25MetaEngineDetection"
 - global[4041] -> "_ZTS26Sword25MetaEngineDetection"
 - func[1039] <_Z31g_TEENAGENT_DETECTION_getObjectv> -> "_Z31g_TEENAGENT_DETECTION_getObjectv"
 - global[4042] -> "_ZTV28TeenAgentMetaEngineDetection"
 - func[1040] <_ZN28TeenAgentMetaEngineDetectionD0Ev> -> "_ZN28TeenAgentMetaEngineDetectionD0Ev"
 - func[1041] <_ZNK28TeenAgentMetaEngineDetection7getNameEv> -> "_ZNK28TeenAgentMetaEngineDetection7getNameEv"
 - func[1042] <_ZNK28TeenAgentMetaEngineDetection13getEngineNameEv> -> "_ZNK28TeenAgentMetaEngineDetection13getEngineNameEv"
 - func[1043] <_ZNK28TeenAgentMetaEngineDetection20getOriginalCopyrightEv> -> "_ZNK28TeenAgentMetaEngineDetection20getOriginalCopyrightEv"
 - func[1044] <_ZNK28TeenAgentMetaEngineDetection16getDebugChannelsEv> -> "_ZNK28TeenAgentMetaEngineDetection16getDebugChannelsEv"
 - global[4043] -> "g_TEENAGENT_DETECTION_type"
 - global[4044] -> "_ZTI28TeenAgentMetaEngineDetection"
 - global[4045] -> "_ZTS28TeenAgentMetaEngineDetection"
 - func[1045] <_Z29g_TESTBED_DETECTION_getObjectv> -> "_Z29g_TESTBED_DETECTION_getObjectv"
 - global[4046] -> "_ZTV26TestbedMetaEngineDetection"
 - func[1046] <_ZN26TestbedMetaEngineDetectionD0Ev> -> "_ZN26TestbedMetaEngineDetectionD0Ev"
 - func[1047] <_ZNK26TestbedMetaEngineDetection7getNameEv> -> "_ZNK26TestbedMetaEngineDetection7getNameEv"
 - func[1048] <_ZNK26TestbedMetaEngineDetection13getEngineNameEv> -> "_ZNK26TestbedMetaEngineDetection13getEngineNameEv"
 - func[1049] <_ZNK26TestbedMetaEngineDetection20getOriginalCopyrightEv> -> "_ZNK26TestbedMetaEngineDetection20getOriginalCopyrightEv"
 - func[1050] <_ZNK26TestbedMetaEngineDetection16getDebugChannelsEv> -> "_ZNK26TestbedMetaEngineDetection16getDebugChannelsEv"
 - global[4047] -> "g_TESTBED_DETECTION_type"
 - global[4048] -> "_ZTI26TestbedMetaEngineDetection"
 - global[4049] -> "_ZTS26TestbedMetaEngineDetection"
 - func[1051] <_ZNK25TinselMetaEngineDetection14fallbackDetectERKN6Common7HashMapINS0_6StringENS0_6FSNodeENS0_15IgnoreCase_HashENS0_18IgnoreCase_EqualToEEERKNS0_6FSListEPP23ADDetectedGameExtraInfo> -> "_ZNK25TinselMetaEngineDetection14fallbackDetectERKN6Common7HashMapINS0_6StringENS0_6FSNodeENS0_15IgnoreCase_HashENS0_18IgnoreCase_EqualToEEERKNS0_6FSListEPP23ADDetectedGameExtraInfo"
 - func[1052] <_ZN6Common7HashMapINS_6StringE7SizeMD5NS_15IgnoreCase_HashENS_18IgnoreCase_EqualToEE24lookupAndCreateIfMissingERKS1_> -> "_ZN6Common7HashMapINS_6StringE7SizeMD5NS_15IgnoreCase_HashENS_18IgnoreCase_EqualToEE24lookupAndCreateIfMissingERKS1_"
 - func[1053] <_ZN6Common7HashMapINS_6StringE7SizeMD5NS_15IgnoreCase_HashENS_18IgnoreCase_EqualToEED2Ev> -> "_ZN6Common7HashMapINS_6StringE7SizeMD5NS_15IgnoreCase_HashENS_18IgnoreCase_EqualToEED2Ev"
 - func[1054] <_Z28g_TINSEL_DETECTION_getObjectv> -> "_Z28g_TINSEL_DETECTION_getObjectv"
 - global[4050] -> "_ZTV25TinselMetaEngineDetection"
 - func[1055] <_ZN25TinselMetaEngineDetectionD0Ev> -> "_ZN25TinselMetaEngineDetectionD0Ev"
 - func[1056] <_ZNK25TinselMetaEngineDetection7getNameEv> -> "_ZNK25TinselMetaEngineDetection7getNameEv"
 - func[1057] <_ZNK25TinselMetaEngineDetection13getEngineNameEv> -> "_ZNK25TinselMetaEngineDetection13getEngineNameEv"
 - func[1058] <_ZNK25TinselMetaEngineDetection20getOriginalCopyrightEv> -> "_ZNK25TinselMetaEngineDetection20getOriginalCopyrightEv"
 - func[1059] <_ZNK25TinselMetaEngineDetection16getDebugChannelsEv> -> "_ZNK25TinselMetaEngineDetection16getDebugChannelsEv"
 - func[1060] <_ZN6Common7HashMapINS_6StringE7SizeMD5NS_15IgnoreCase_HashENS_18IgnoreCase_EqualToEE13expandStorageEj> -> "_ZN6Common7HashMapINS_6StringE7SizeMD5NS_15IgnoreCase_HashENS_18IgnoreCase_EqualToEE13expandStorageEj"
 - global[4051] -> "g_TINSEL_DETECTION_type"
 - global[4052] -> "_ZTI25TinselMetaEngineDetection"
 - global[4053] -> "_ZTS25TinselMetaEngineDetection"
 - func[1061] <_Z29g_TITANIC_DETECTION_getObjectv> -> "_Z29g_TITANIC_DETECTION_getObjectv"
 - global[4054] -> "_ZTV26TitanicMetaEngineDetection"
 - func[1062] <_ZN26TitanicMetaEngineDetectionD0Ev> -> "_ZN26TitanicMetaEngineDetectionD0Ev"
 - func[1063] <_ZNK26TitanicMetaEngineDetection7getNameEv> -> "_ZNK26TitanicMetaEngineDetection7getNameEv"
 - func[1064] <_ZNK26TitanicMetaEngineDetection13getEngineNameEv> -> "_ZNK26TitanicMetaEngineDetection13getEngineNameEv"
 - func[1065] <_ZNK26TitanicMetaEngineDetection20getOriginalCopyrightEv> -> "_ZNK26TitanicMetaEngineDetection20getOriginalCopyrightEv"
 - func[1066] <_ZNK26TitanicMetaEngineDetection16getDebugChannelsEv> -> "_ZNK26TitanicMetaEngineDetection16getDebugChannelsEv"
 - global[4055] -> "g_TITANIC_DETECTION_type"
 - global[4056] -> "_ZTI26TitanicMetaEngineDetection"
 - global[4057] -> "_ZTS26TitanicMetaEngineDetection"
 - func[1067] <_Z29g_TOLTECS_DETECTION_getObjectv> -> "_Z29g_TOLTECS_DETECTION_getObjectv"
 - global[4058] -> "_ZTV26ToltecsMetaEngineDetection"
 - func[1068] <_ZN26ToltecsMetaEngineDetectionD0Ev> -> "_ZN26ToltecsMetaEngineDetectionD0Ev"
 - func[1069] <_ZNK26ToltecsMetaEngineDetection7getNameEv> -> "_ZNK26ToltecsMetaEngineDetection7getNameEv"
 - func[1070] <_ZNK26ToltecsMetaEngineDetection13getEngineNameEv> -> "_ZNK26ToltecsMetaEngineDetection13getEngineNameEv"
 - func[1071] <_ZNK26ToltecsMetaEngineDetection20getOriginalCopyrightEv> -> "_ZNK26ToltecsMetaEngineDetection20getOriginalCopyrightEv"
 - global[4059] -> "g_TOLTECS_DETECTION_type"
 - global[4060] -> "_ZTI26ToltecsMetaEngineDetection"
 - global[4061] -> "_ZTS26ToltecsMetaEngineDetection"
 - func[1072] <_Z26g_TONY_DETECTION_getObjectv> -> "_Z26g_TONY_DETECTION_getObjectv"
 - global[4062] -> "_ZTV23TonyMetaEngineDetection"
 - func[1073] <_ZN23TonyMetaEngineDetectionD0Ev> -> "_ZN23TonyMetaEngineDetectionD0Ev"
 - func[1074] <_ZNK23TonyMetaEngineDetection7getNameEv> -> "_ZNK23TonyMetaEngineDetection7getNameEv"
 - func[1075] <_ZNK23TonyMetaEngineDetection13getEngineNameEv> -> "_ZNK23TonyMetaEngineDetection13getEngineNameEv"
 - func[1076] <_ZNK23TonyMetaEngineDetection20getOriginalCopyrightEv> -> "_ZNK23TonyMetaEngineDetection20getOriginalCopyrightEv"
 - func[1077] <_ZNK23TonyMetaEngineDetection16getDebugChannelsEv> -> "_ZNK23TonyMetaEngineDetection16getDebugChannelsEv"
 - global[4063] -> "g_TONY_DETECTION_type"
 - global[4064] -> "_ZTI23TonyMetaEngineDetection"
 - global[4065] -> "_ZTS23TonyMetaEngineDetection"
 - func[1078] <_Z26g_TOON_DETECTION_getObjectv> -> "_Z26g_TOON_DETECTION_getObjectv"
 - global[4066] -> "_ZTV23ToonMetaEngineDetection"
 - func[1079] <_ZN23ToonMetaEngineDetectionD0Ev> -> "_ZN23ToonMetaEngineDetectionD0Ev"
 - func[1080] <_ZNK23ToonMetaEngineDetection7getNameEv> -> "_ZNK23ToonMetaEngineDetection7getNameEv"
 - func[1081] <_ZNK23ToonMetaEngineDetection13getEngineNameEv> -> "_ZNK23ToonMetaEngineDetection13getEngineNameEv"
 - func[1082] <_ZNK23ToonMetaEngineDetection20getOriginalCopyrightEv> -> "_ZNK23ToonMetaEngineDetection20getOriginalCopyrightEv"
 - func[1083] <_ZNK23ToonMetaEngineDetection16getDebugChannelsEv> -> "_ZNK23ToonMetaEngineDetection16getDebugChannelsEv"
 - func[1084] <_ZNK23ToonMetaEngineDetection14fallbackDetectERKN6Common7HashMapINS0_6StringENS0_6FSNodeENS0_15IgnoreCase_HashENS0_18IgnoreCase_EqualToEEERKNS0_6FSListEPP23ADDetectedGameExtraInfo> -> "_ZNK23ToonMetaEngineDetection14fallbackDetectERKN6Common7HashMapINS0_6StringENS0_6FSNodeENS0_15IgnoreCase_HashENS0_18IgnoreCase_EqualToEEERKNS0_6FSListEPP23ADDetectedGameExtraInfo"
 - global[4067] -> "g_TOON_DETECTION_type"
 - global[4068] -> "_ZTI23ToonMetaEngineDetection"
 - global[4069] -> "_ZTS23ToonMetaEngineDetection"
 - func[1085] <_Z28g_TOUCHE_DETECTION_getObjectv> -> "_Z28g_TOUCHE_DETECTION_getObjectv"
 - global[4070] -> "_ZTV25ToucheMetaEngineDetection"
 - func[1086] <_ZN25ToucheMetaEngineDetectionD0Ev> -> "_ZN25ToucheMetaEngineDetectionD0Ev"
 - func[1087] <_ZNK25ToucheMetaEngineDetection7getNameEv> -> "_ZNK25ToucheMetaEngineDetection7getNameEv"
 - func[1088] <_ZNK25ToucheMetaEngineDetection13getEngineNameEv> -> "_ZNK25ToucheMetaEngineDetection13getEngineNameEv"
 - func[1089] <_ZNK25ToucheMetaEngineDetection20getOriginalCopyrightEv> -> "_ZNK25ToucheMetaEngineDetection20getOriginalCopyrightEv"
 - func[1090] <_ZNK25ToucheMetaEngineDetection16getDebugChannelsEv> -> "_ZNK25ToucheMetaEngineDetection16getDebugChannelsEv"
 - func[1091] <_ZNK25ToucheMetaEngineDetection14fallbackDetectERKN6Common7HashMapINS0_6StringENS0_6FSNodeENS0_15IgnoreCase_HashENS0_18IgnoreCase_EqualToEEERKNS0_6FSListEPP23ADDetectedGameExtraInfo> -> "_ZNK25ToucheMetaEngineDetection14fallbackDetectERKN6Common7HashMapINS0_6StringENS0_6FSNodeENS0_15IgnoreCase_HashENS0_18IgnoreCase_EqualToEEERKNS0_6FSListEPP23ADDetectedGameExtraInfo"
 - global[4071] -> "g_TOUCHE_DETECTION_type"
 - global[4072] -> "_ZTI25ToucheMetaEngineDetection"
 - global[4073] -> "_ZTS25ToucheMetaEngineDetection"
 - func[1092] <_Z31g_TRECISION_DETECTION_getObjectv> -> "_Z31g_TRECISION_DETECTION_getObjectv"
 - global[4074] -> "_ZTV28TrecisionMetaEngineDetection"
 - func[1093] <_ZN28TrecisionMetaEngineDetectionD0Ev> -> "_ZN28TrecisionMetaEngineDetectionD0Ev"
 - func[1094] <_ZNK28TrecisionMetaEngineDetection7getNameEv> -> "_ZNK28TrecisionMetaEngineDetection7getNameEv"
 - func[1095] <_ZNK28TrecisionMetaEngineDetection13getEngineNameEv> -> "_ZNK28TrecisionMetaEngineDetection13getEngineNameEv"
 - func[1096] <_ZNK28TrecisionMetaEngineDetection20getOriginalCopyrightEv> -> "_ZNK28TrecisionMetaEngineDetection20getOriginalCopyrightEv"
 - global[4075] -> "g_TRECISION_DETECTION_type"
 - global[4076] -> "_ZTI28TrecisionMetaEngineDetection"
 - global[4077] -> "_ZTS28TrecisionMetaEngineDetection"
 - func[1097] <_Z27g_TSAGE_DETECTION_getObjectv> -> "_Z27g_TSAGE_DETECTION_getObjectv"
 - global[4078] -> "_ZTV24TSageMetaEngineDetection"
 - func[1098] <_ZN24TSageMetaEngineDetectionD0Ev> -> "_ZN24TSageMetaEngineDetectionD0Ev"
 - func[1099] <_ZNK24TSageMetaEngineDetection7getNameEv> -> "_ZNK24TSageMetaEngineDetection7getNameEv"
 - func[1100] <_ZNK24TSageMetaEngineDetection13getEngineNameEv> -> "_ZNK24TSageMetaEngineDetection13getEngineNameEv"
 - func[1101] <_ZNK24TSageMetaEngineDetection20getOriginalCopyrightEv> -> "_ZNK24TSageMetaEngineDetection20getOriginalCopyrightEv"
 - func[1102] <_ZNK24TSageMetaEngineDetection16getDebugChannelsEv> -> "_ZNK24TSageMetaEngineDetection16getDebugChannelsEv"
 - global[4079] -> "g_TSAGE_DETECTION_type"
 - global[4080] -> "_ZTI24TSageMetaEngineDetection"
 - global[4081] -> "_ZTS24TSageMetaEngineDetection"
 - func[1103] <_Z28g_TUCKER_DETECTION_getObjectv> -> "_Z28g_TUCKER_DETECTION_getObjectv"
 - global[4082] -> "_ZTV25TuckerMetaEngineDetection"
 - func[1104] <_ZN25TuckerMetaEngineDetectionD0Ev> -> "_ZN25TuckerMetaEngineDetectionD0Ev"
 - func[1105] <_ZNK25TuckerMetaEngineDetection7getNameEv> -> "_ZNK25TuckerMetaEngineDetection7getNameEv"
 - func[1106] <_ZNK25TuckerMetaEngineDetection13getEngineNameEv> -> "_ZNK25TuckerMetaEngineDetection13getEngineNameEv"
 - func[1107] <_ZNK25TuckerMetaEngineDetection20getOriginalCopyrightEv> -> "_ZNK25TuckerMetaEngineDetection20getOriginalCopyrightEv"
 - func[1108] <_ZNK25TuckerMetaEngineDetection14fallbackDetectERKN6Common7HashMapINS0_6StringENS0_6FSNodeENS0_15IgnoreCase_HashENS0_18IgnoreCase_EqualToEEERKNS0_6FSListEPP23ADDetectedGameExtraInfo> -> "_ZNK25TuckerMetaEngineDetection14fallbackDetectERKN6Common7HashMapINS0_6StringENS0_6FSNodeENS0_15IgnoreCase_HashENS0_18IgnoreCase_EqualToEEERKNS0_6FSListEPP23ADDetectedGameExtraInfo"
 - global[4083] -> "g_TUCKER_DETECTION_type"
 - global[4084] -> "_ZTI25TuckerMetaEngineDetection"
 - global[4085] -> "_ZTS25TuckerMetaEngineDetection"
 - func[1109] <_Z27g_TWINE_DETECTION_getObjectv> -> "_Z27g_TWINE_DETECTION_getObjectv"
 - global[4086] -> "_ZTV24TwinEMetaEngineDetection"
 - func[1110] <_ZN24TwinEMetaEngineDetectionD0Ev> -> "_ZN24TwinEMetaEngineDetectionD0Ev"
 - func[1111] <_ZNK24TwinEMetaEngineDetection7getNameEv> -> "_ZNK24TwinEMetaEngineDetection7getNameEv"
 - func[1112] <_ZNK24TwinEMetaEngineDetection13getEngineNameEv> -> "_ZNK24TwinEMetaEngineDetection13getEngineNameEv"
 - func[1113] <_ZNK24TwinEMetaEngineDetection20getOriginalCopyrightEv> -> "_ZNK24TwinEMetaEngineDetection20getOriginalCopyrightEv"
 - func[1114] <_ZNK24TwinEMetaEngineDetection16getDebugChannelsEv> -> "_ZNK24TwinEMetaEngineDetection16getDebugChannelsEv"
 - global[4087] -> "g_TWINE_DETECTION_type"
 - global[4088] -> "_ZTI24TwinEMetaEngineDetection"
 - global[4089] -> "_ZTS24TwinEMetaEngineDetection"
 - func[1115] <_ZN25UltimaMetaEngineDetectionC1Ev> -> "_ZN25UltimaMetaEngineDetectionC2Ev"
 - global[4090] -> "_ZTV25UltimaMetaEngineDetection"
 - func[1116] <_Z28g_ULTIMA_DETECTION_getObjectv> -> "_Z28g_ULTIMA_DETECTION_getObjectv"
 - func[1115] <_ZN25UltimaMetaEngineDetectionC1Ev> -> "_ZN25UltimaMetaEngineDetectionC1Ev"
 - func[1117] <_ZN25UltimaMetaEngineDetectionD0Ev> -> "_ZN25UltimaMetaEngineDetectionD0Ev"
 - func[1118] <_ZNK25UltimaMetaEngineDetection7getNameEv> -> "_ZNK25UltimaMetaEngineDetection7getNameEv"
 - func[1119] <_ZNK25UltimaMetaEngineDetection13getEngineNameEv> -> "_ZNK25UltimaMetaEngineDetection13getEngineNameEv"
 - func[1120] <_ZNK25UltimaMetaEngineDetection20getOriginalCopyrightEv> -> "_ZNK25UltimaMetaEngineDetection20getOriginalCopyrightEv"
 - global[4091] -> "_ZTI25UltimaMetaEngineDetection"
 - global[4092] -> "g_ULTIMA_DETECTION_type"
 - global[4093] -> "_ZTS25UltimaMetaEngineDetection"
 - func[1121] <_Z28g_VOYEUR_DETECTION_getObjectv> -> "_Z28g_VOYEUR_DETECTION_getObjectv"
 - global[4094] -> "_ZTV25VoyeurMetaEngineDetection"
 - func[1122] <_ZN25VoyeurMetaEngineDetectionD0Ev> -> "_ZN25VoyeurMetaEngineDetectionD0Ev"
 - func[1123] <_ZNK25VoyeurMetaEngineDetection7getNameEv> -> "_ZNK25VoyeurMetaEngineDetection7getNameEv"
 - func[1124] <_ZNK25VoyeurMetaEngineDetection13getEngineNameEv> -> "_ZNK25VoyeurMetaEngineDetection13getEngineNameEv"
 - func[1125] <_ZNK25VoyeurMetaEngineDetection20getOriginalCopyrightEv> -> "_ZNK25VoyeurMetaEngineDetection20getOriginalCopyrightEv"
 - func[1126] <_ZNK25VoyeurMetaEngineDetection16getDebugChannelsEv> -> "_ZNK25VoyeurMetaEngineDetection16getDebugChannelsEv"
 - global[4095] -> "g_VOYEUR_DETECTION_type"
 - global[4096] -> "_ZTI25VoyeurMetaEngineDetection"
 - global[4097] -> "_ZTS25VoyeurMetaEngineDetection"
 - func[1127] <_Z26g_WAGE_DETECTION_getObjectv> -> "_Z26g_WAGE_DETECTION_getObjectv"
 - global[4098] -> "_ZTV23WageMetaEngineDetection"
 - func[1128] <_ZN23WageMetaEngineDetectionD0Ev> -> "_ZN23WageMetaEngineDetectionD0Ev"
 - func[1129] <_ZNK23WageMetaEngineDetection7getNameEv> -> "_ZNK23WageMetaEngineDetection7getNameEv"
 - func[1130] <_ZNK23WageMetaEngineDetection13getEngineNameEv> -> "_ZNK23WageMetaEngineDetection13getEngineNameEv"
 - func[1131] <_ZNK23WageMetaEngineDetection20getOriginalCopyrightEv> -> "_ZNK23WageMetaEngineDetection20getOriginalCopyrightEv"
 - global[4099] -> "g_WAGE_DETECTION_type"
 - global[4100] -> "_ZTI23WageMetaEngineDetection"
 - global[4101] -> "_ZTS23WageMetaEngineDetection"
 - func[1132] <_Z32g_WINTERMUTE_DETECTION_getObjectv> -> "_Z32g_WINTERMUTE_DETECTION_getObjectv"
 - global[4102] -> "_ZTVN10Wintermute29WintermuteMetaEngineDetectionE"
 - func[1133] <_ZN10Wintermute29WintermuteMetaEngineDetectionD0Ev> -> "_ZN10Wintermute29WintermuteMetaEngineDetectionD0Ev"
 - func[1134] <_ZNK10Wintermute29WintermuteMetaEngineDetection7getNameEv> -> "_ZNK10Wintermute29WintermuteMetaEngineDetection7getNameEv"
 - func[1135] <_ZNK10Wintermute29WintermuteMetaEngineDetection13getEngineNameEv> -> "_ZNK10Wintermute29WintermuteMetaEngineDetection13getEngineNameEv"
 - func[1136] <_ZNK10Wintermute29WintermuteMetaEngineDetection20getOriginalCopyrightEv> -> "_ZNK10Wintermute29WintermuteMetaEngineDetection20getOriginalCopyrightEv"
 - func[1137] <_ZNK10Wintermute29WintermuteMetaEngineDetection16getDebugChannelsEv> -> "_ZNK10Wintermute29WintermuteMetaEngineDetection16getDebugChannelsEv"
 - func[1138] <_ZNK10Wintermute29WintermuteMetaEngineDetection14fallbackDetectERKN6Common7HashMapINS1_6StringENS1_6FSNodeENS1_15IgnoreCase_HashENS1_18IgnoreCase_EqualToEEERKNS1_6FSListEPP23ADDetectedGameExtraInfo> -> "_ZNK10Wintermute29WintermuteMetaEngineDetection14fallbackDetectERKN6Common7HashMapINS1_6StringENS1_6FSNodeENS1_15IgnoreCase_HashENS1_18IgnoreCase_EqualToEEERKNS1_6FSListEPP23ADDetectedGameExtraInfo"
 - global[4103] -> "_ZZNK10Wintermute29WintermuteMetaEngineDetection14fallbackDetectERKN6Common7HashMapINS1_6StringENS1_6FSNodeENS1_15IgnoreCase_HashENS1_18IgnoreCase_EqualToEEERKNS1_6FSListEPP23ADDetectedGameExtraInfoE4warn"
 - global[4104] -> "g_WINTERMUTE_DETECTION_type"
 - global[4105] -> "_ZTIN10Wintermute29WintermuteMetaEngineDetectionE"
 - global[4106] -> "_ZTSN10Wintermute29WintermuteMetaEngineDetectionE"
 - func[1139] <_Z26g_XEEN_DETECTION_getObjectv> -> "_Z26g_XEEN_DETECTION_getObjectv"
 - global[4107] -> "_ZTV23XeenMetaEngineDetection"
 - func[1140] <_ZN23XeenMetaEngineDetectionD0Ev> -> "_ZN23XeenMetaEngineDetectionD0Ev"
 - func[1141] <_ZNK23XeenMetaEngineDetection7getNameEv> -> "_ZNK23XeenMetaEngineDetection7getNameEv"
 - func[1142] <_ZNK23XeenMetaEngineDetection13getEngineNameEv> -> "_ZNK23XeenMetaEngineDetection13getEngineNameEv"
 - func[1143] <_ZNK23XeenMetaEngineDetection20getOriginalCopyrightEv> -> "_ZNK23XeenMetaEngineDetection20getOriginalCopyrightEv"
 - func[1144] <_ZNK23XeenMetaEngineDetection16getDebugChannelsEv> -> "_ZNK23XeenMetaEngineDetection16getDebugChannelsEv"
 - global[4108] -> "g_XEEN_DETECTION_type"
 - global[4109] -> "_ZTI23XeenMetaEngineDetection"
 - global[4110] -> "_ZTS23XeenMetaEngineDetection"
 - func[1145] <_Z29g_ZVISION_DETECTION_getObjectv> -> "_Z29g_ZVISION_DETECTION_getObjectv"
 - global[4111] -> "_ZTV26ZVisionMetaEngineDetection"
 - func[1146] <_ZN26ZVisionMetaEngineDetectionD0Ev> -> "_ZN26ZVisionMetaEngineDetectionD0Ev"
 - func[1147] <_ZNK26ZVisionMetaEngineDetection7getNameEv> -> "_ZNK26ZVisionMetaEngineDetection7getNameEv"
 - func[1148] <_ZNK26ZVisionMetaEngineDetection13getEngineNameEv> -> "_ZNK26ZVisionMetaEngineDetection13getEngineNameEv"
 - func[1149] <_ZNK26ZVisionMetaEngineDetection20getOriginalCopyrightEv> -> "_ZNK26ZVisionMetaEngineDetection20getOriginalCopyrightEv"
 - global[4112] -> "g_ZVISION_DETECTION_type"
 - global[4113] -> "_ZTI26ZVisionMetaEngineDetection"
 - global[4114] -> "_ZTS26ZVisionMetaEngineDetection"
 - func[1150] <_ZN11OSystem_SDLC2Ev> -> "_ZN11OSystem_SDLC2Ev"
 - func[3118] <_ZN19ModularMixerBackendC2Ev> -> "_ZN19ModularMixerBackendC2Ev"
 - func[3005] <_ZN22ModularGraphicsBackendC2Ev> -> "_ZN22ModularGraphicsBackendC2Ev"
 - func[1151] <_ZN11OSystem_SDLC1Ev> -> "_ZN11OSystem_SDLC1Ev"
 - global[4115] -> "_ZTV11BaseBackend"
 - func[12400] <_ZN7OSystemC2Ev> -> "_ZN7OSystemC2Ev"
 - global[4116] -> "_ZTV11OSystem_SDL"
 - global[4117] -> "_ZTT11OSystem_SDL"
 - func[1152] <_ZN11OSystem_SDLD2Ev> -> "_ZN11OSystem_SDLD2Ev"
 - func[15750] <SDL_ShowCursor> -> "SDL_ShowCursor"
 - global[4118] -> "_ZTI18SdlGraphicsManager"
 - global[4119] -> "_ZTI15GraphicsManager"
 - func[3369] <_ZN8Backends3Log3Log5closeEv> -> "_ZN8Backends3Log3Log5closeEv"
 - func[14823] <SDL_Quit> -> "SDL_Quit"
 - func[3006] <_ZN22ModularGraphicsBackendD2Ev> -> "_ZN22ModularGraphicsBackendD2Ev"
 - func[3119] <_ZN19ModularMixerBackendD2Ev> -> "_ZN19ModularMixerBackendD2Ev"
 - func[1153] <_ZN11OSystem_SDL18clearGraphicsModesEv> -> "_ZN11OSystem_SDL18clearGraphicsModesEv"
 - func[1154] <_ZN11OSystem_SDLD1Ev> -> "_ZN11OSystem_SDLD1Ev"
 - func[12401] <_ZN7OSystemD1Ev> -> "_ZN7OSystemD2Ev"
 - func[1155] <_ZThn8_N11OSystem_SDLD1Ev> -> "_ZThn8_N11OSystem_SDLD1Ev"
 - func[1156] <_ZTv0_n12_N11OSystem_SDLD1Ev> -> "_ZTv0_n12_N11OSystem_SDLD1Ev"
 - func[1157] <_ZN11OSystem_SDLD0Ev> -> "_ZN11OSystem_SDLD0Ev"
 - func[1158] <_ZThn8_N11OSystem_SDLD0Ev> -> "_ZThn8_N11OSystem_SDLD0Ev"
 - func[1159] <_ZTv0_n12_N11OSystem_SDLD0Ev> -> "_ZTv0_n12_N11OSystem_SDLD0Ev"
 - func[1160] <_ZN11OSystem_SDL4initEv> -> "_ZN11OSystem_SDL4initEv"
 - func[1295] <_ZN9SdlWindowC2Ev> -> "_ZN9SdlWindowC1Ev"
 - func[1161] <_ZTv0_n16_N11OSystem_SDL4initEv> -> "_ZTv0_n16_N11OSystem_SDL4initEv"
 - func[1162] <_ZN11OSystem_SDL10hasFeatureEN7OSystem7FeatureE> -> "_ZN11OSystem_SDL10hasFeatureEN7OSystem7FeatureE"
 - func[3906] <_ZNK14SdlEventSource19isJoystickConnectedEv> -> "_ZNK14SdlEventSource19isJoystickConnectedEv"
 - func[3011] <_ZN22ModularGraphicsBackend10hasFeatureEN7OSystem7FeatureE> -> "_ZN22ModularGraphicsBackend10hasFeatureEN7OSystem7FeatureE"
 - func[1163] <_ZThn8_N11OSystem_SDL10hasFeatureEN7OSystem7FeatureE> -> "_ZThn8_N11OSystem_SDL10hasFeatureEN7OSystem7FeatureE"
 - func[1164] <_ZTv0_n32_N11OSystem_SDL10hasFeatureEN7OSystem7FeatureE> -> "_ZTv0_n32_N11OSystem_SDL10hasFeatureEN7OSystem7FeatureE"
 - func[1165] <_ZN11OSystem_SDL11initBackendEv> -> "_ZN11OSystem_SDL11initBackendEv"
 - func[3366] <_ZN8Backends3Log3LogC2EP7OSystem> -> "_ZN8Backends3Log3LogC1EP7OSystem"
 - func[3367] <_ZN8Backends3Log3Log4openEPN6Common11WriteStreamE> -> "_ZN8Backends3Log3Log4openEPN6Common11WriteStreamE"
 - func[16326] <SDL_GetCurrentVideoDriver> -> "SDL_GetCurrentVideoDriver"
 - func[16435] <SDL_EnableScreenSaver> -> "SDL_EnableScreenSaver"
 - func[1166] <_ZN11OSystem_SDL25detectAntiAliasingSupportEv> -> "_ZN11OSystem_SDL25detectAntiAliasingSupportEv"
 - func[3874] <_ZN14SdlEventSourceC2Ev> -> "_ZN14SdlEventSourceC1Ev"
 - func[3173] <_ZN19DefaultEventManagerC2EPN6Common11EventSourceE> -> "_ZN19DefaultEventManagerC1EPN6Common11EventSourceE"
 - global[4120] -> "_ZN6Common9SingletonI13ScalerManagerE10_singletonE"
 - global[4121] -> "_ZTV13ScalerManager"
 - func[1461] <_ZN13ScalerManager17updateOldSettingsEv> -> "_ZN13ScalerManager17updateOldSettingsEv"
 - func[1167] <_ZN11OSystem_SDL18setupGraphicsModesEv> -> "_ZN11OSystem_SDL18setupGraphicsModesEv"
 - func[12250] <_ZNK6Common6String19compareToIgnoreCaseEPKc> -> "_ZNK6Common6String19compareToIgnoreCaseEPKc"
 - func[4145] <_ZN24OpenGLSdlGraphicsManagerC1EP14SdlEventSourceP9SdlWindow> -> "_ZN24OpenGLSdlGraphicsManagerC1EP14SdlEventSourceP9SdlWindow"
 - func[3944] <_ZN25SurfaceSdlGraphicsManagerC1EP14SdlEventSourceP9SdlWindow> -> "_ZN25SurfaceSdlGraphicsManagerC1EP14SdlEventSourceP9SdlWindow"
 - func[3443] <_ZN22DefaultSaveFileManagerC2Ev> -> "_ZN22DefaultSaveFileManagerC1Ev"
 - global[4122] -> "_ZTV15SdlMixerManager"
 - func[4079] <_ZN15SdlMixerManager4initEv> -> "_ZN15SdlMixerManager4initEv"
 - func[4102] <_ZN15SdlTimerManagerC2Ev> -> "_ZN15SdlTimerManagerC1Ev"
 - func[11796] <_ZN6Common13ConfigManager15registerDefaultERKNS_6StringES3_> -> "_ZN6Common13ConfigManager15registerDefaultERKNS_6StringES3_"
 - func[2995] <_ZN11BaseBackend11initBackendEv> -> "_ZN11BaseBackend11initBackendEv"
 - func[1168] <_ZN11OSystem_SDL27detectOpenGLFeaturesSupportEv> -> "_ZN11OSystem_SDL27detectOpenGLFeaturesSupportEv"
 - func[16439] <SDL_GL_SetAttribute> -> "SDL_GL_SetAttribute"
 - func[16363] <SDL_CreateWindow> -> "SDL_CreateWindow"
 - func[16441] <SDL_GL_CreateContext> -> "SDL_GL_CreateContext"
 - func[16440] <SDL_GL_GetAttribute> -> "SDL_GL_GetAttribute"
 - func[1169] <_ZN6Common5ArrayIjE10insert_auxEPjPKjS4_> -> "_ZN6Common5ArrayIjE10insert_auxEPjPKjS4_"
 - func[16448] <SDL_GL_DeleteContext> -> "SDL_GL_DeleteContext"
 - func[16321] <SDL_DestroyWindow> -> "SDL_DestroyWindow"
 - func[1170] <_ZN6Common5ArrayIN7OSystem12GraphicsModeEE10insert_auxEPS2_PKS2_S6_> -> "_ZN6Common5ArrayIN7OSystem12GraphicsModeEE10insert_auxEPS2_PKS2_S6_"
 - func[1171] <_ZN6Common5ArrayIiE10insert_auxEPiPKiS4_> -> "_ZN6Common5ArrayIiE10insert_auxEPiPKiS4_"
 - func[1172] <_ZTv0_n20_N11OSystem_SDL11initBackendEv> -> "_ZTv0_n20_N11OSystem_SDL11initBackendEv"
 - func[1173] <_ZN11OSystem_SDL10engineInitEv> -> "_ZN11OSystem_SDL10engineInitEv"
 - func[16324] <SDL_DisableScreenSaver> -> "SDL_DisableScreenSaver"
 - func[3907] <_ZN14SdlEventSource16setEngineRunningEb> -> "_ZN14SdlEventSource16setEngineRunningEb"
 - func[1174] <_ZTv0_n24_N11OSystem_SDL10engineInitEv> -> "_ZTv0_n24_N11OSystem_SDL10engineInitEv"
 - func[1175] <_ZN11OSystem_SDL10engineDoneEv> -> "_ZN11OSystem_SDL10engineDoneEv"
 - func[1176] <_ZTv0_n28_N11OSystem_SDL10engineDoneEv> -> "_ZTv0_n28_N11OSystem_SDL10engineDoneEv"
 - func[1177] <_ZN11OSystem_SDL7initSDLEv> -> "_ZN11OSystem_SDL7initSDLEv"
 - func[14821] <SDL_Init> -> "SDL_Init"
 - func[15378] <SDL_GetError> -> "SDL_GetError"
 - func[1178] <_ZN11OSystem_SDL25addSysArchivesToSearchSetERN6Common9SearchSetEi> -> "_ZN11OSystem_SDL25addSysArchivesToSearchSetERN6Common9SearchSetEi"
 - func[11955] <_ZN6Common6FSNodeC2ERKNS_4PathE> -> "_ZN6Common6FSNodeC1ERKNS_4PathE"
 - func[11958] <_ZNK6Common6FSNode6existsEv> -> "_ZNK6Common6FSNode6existsEv"
 - func[11970] <_ZN6Common11FSDirectoryC2ERKNS_6FSNodeEibbb> -> "_ZN6Common11FSDirectoryC1ERKNS_6FSNodeEibbb"
 - func[11569] <_ZN6Common9SearchSet3addERKNS_6StringEPNS_7ArchiveEib> -> "_ZN6Common9SearchSet3addERKNS_6StringEPNS_7ArchiveEib"
 - func[1179] <_ZTv0_n320_N11OSystem_SDL25addSysArchivesToSearchSetERN6Common9SearchSetEi> -> "_ZTv0_n320_N11OSystem_SDL25addSysArchivesToSearchSetERN6Common9SearchSetEi"
 - func[1180] <_ZN11OSystem_SDL16setWindowCaptionERKN6Common9U32StringE> -> "_ZN11OSystem_SDL16setWindowCaptionERKN6Common9U32StringE"
 - func[12397] <_ZNK6Common9U32String6encodeENS_8CodePageE> -> "_ZNK6Common9U32String6encodeENS_8CodePageE"
 - func[1300] <_ZN9SdlWindow16setWindowCaptionERKN6Common6StringE> -> "_ZN9SdlWindow16setWindowCaptionERKN6Common6StringE"
 - func[1181] <_ZTv0_n296_N11OSystem_SDL16setWindowCaptionERKN6Common9U32StringE> -> "_ZTv0_n296_N11OSystem_SDL16setWindowCaptionERKN6Common9U32StringE"
 - func[1182] <_ZNK11OSystem_SDL30getSupportedAntiAliasingLevelsEv> -> "_ZNK11OSystem_SDL30getSupportedAntiAliasingLevelsEv"
 - func[1183] <_ZTv0_n68_NK11OSystem_SDL30getSupportedAntiAliasingLevelsEv> -> "_ZTv0_n68_NK11OSystem_SDL30getSupportedAntiAliasingLevelsEv"
 - func[1184] <_ZNK11OSystem_SDL20getOpenGLProcAddressEPKc> -> "_ZNK11OSystem_SDL20getOpenGLProcAddressEPKc"
 - func[16436] <SDL_GL_GetProcAddress> -> "SDL_GL_GetProcAddress"
 - func[1185] <_ZTv0_n76_NK11OSystem_SDL20getOpenGLProcAddressEPKc> -> "_ZTv0_n76_NK11OSystem_SDL20getOpenGLProcAddressEPKc"
 - func[1186] <_ZN11OSystem_SDL4quitEv> -> "_ZN11OSystem_SDL4quitEv"
 - func[12404] <_ZN7OSystem7destroyEv> -> "_ZN7OSystem7destroyEv"
 - func[1187] <_ZTv0_n288_N11OSystem_SDL4quitEv> -> "_ZTv0_n288_N11OSystem_SDL4quitEv"
 - func[1188] <_ZN11OSystem_SDL10fatalErrorEv> -> "_ZN11OSystem_SDL10fatalErrorEv"
 - func[1189] <_ZTv0_n292_N11OSystem_SDL10fatalErrorEv> -> "_ZTv0_n292_N11OSystem_SDL10fatalErrorEv"
 - func[1190] <_ZN11OSystem_SDL16getGlobalKeymapsEv> -> "_ZN11OSystem_SDL16getGlobalKeymapsEv"
 - func[3934] <_ZN18SdlGraphicsManager9getKeymapEv> -> "_ZN18SdlGraphicsManager9getKeymapEv"
 - func[1191] <_ZN6Common5ArrayIPNS_6KeymapEE10insert_auxEPS2_PKS2_S6_> -> "_ZN6Common5ArrayIPNS_6KeymapEE10insert_auxEPS2_PKS2_S6_"
 - func[1192] <_ZN7OSystem16getGlobalKeymapsEv> -> "_ZN7OSystem16getGlobalKeymapsEv"
 - func[1193] <_ZTv0_n272_N11OSystem_SDL16getGlobalKeymapsEv> -> "_ZTv0_n272_N11OSystem_SDL16getGlobalKeymapsEv"
 - func[1194] <_ZN11OSystem_SDL19getHardwareInputSetEv> -> "_ZN11OSystem_SDL19getHardwareInputSetEv"
 - global[4123] -> "_ZTVN6Common25CompositeHardwareInputSetE"
 - global[4124] -> "_ZN6Common19defaultMouseButtonsE"
 - func[3245] <_ZN6Common21MouseHardwareInputSetC2EPKNS_23HardwareInputTableEntryE> -> "_ZN6Common21MouseHardwareInputSetC1EPKNS_23HardwareInputTableEntryE"
 - func[3258] <_ZN6Common25CompositeHardwareInputSet19addHardwareInputSetEPNS_16HardwareInputSetE> -> "_ZN6Common25CompositeHardwareInputSet19addHardwareInputSetEPNS_16HardwareInputSetE"
 - global[4125] -> "_ZN6Common16defaultModifiersE"
 - global[4126] -> "_ZN6Common11defaultKeysE"
 - func[3241] <_ZN6Common24KeyboardHardwareInputSetC2EPKNS_13KeyTableEntryEPKNS_18ModifierTableEntryE> -> "_ZN6Common24KeyboardHardwareInputSetC1EPKNS_13KeyTableEntryEPKNS_18ModifierTableEntryE"
 - global[4127] -> "_ZN6Common19defaultJoystickAxesE"
 - global[4128] -> "_ZN6Common22defaultJoystickButtonsE"
 - func[3248] <_ZN6Common24JoystickHardwareInputSetC2EPKNS_23HardwareInputTableEntryEPKNS_14AxisTableEntryE> -> "_ZN6Common24JoystickHardwareInputSetC1EPKNS_23HardwareInputTableEntryEPKNS_14AxisTableEntryE"
 - func[1195] <_ZTv0_n268_N11OSystem_SDL19getHardwareInputSetEv> -> "_ZTv0_n268_N11OSystem_SDL19getHardwareInputSetEv"
 - func[1196] <_ZN11OSystem_SDL10logMessageEN14LogMessageType4TypeEPKc> -> "_ZN11OSystem_SDL10logMessageEN14LogMessageType4TypeEPKc"
 - global[4129] -> "stdout"
 - global[4130] -> "stderr"
 - func[18808] <fputs_unlocked> -> "fputs"
 - func[18720] <fflush_unlocked> -> "fflush"
 - func[3368] <_ZN8Backends3Log3Log5printEPKcb> -> "_ZN8Backends3Log3Log5printEPKcb"
 - func[1197] <_ZTv0_n348_N11OSystem_SDL10logMessageEN14LogMessageType4TypeEPKc> -> "_ZTv0_n348_N11OSystem_SDL10logMessageEN14LogMessageType4TypeEPKc"
 - func[1198] <_ZN11OSystem_SDL13createLogFileEv> -> "_ZN11OSystem_SDL13createLogFileEv"
 - func[11968] <_ZNK6Common6FSNode17createWriteStreamEv> -> "_ZNK6Common6FSNode17createWriteStreamEv"
 - func[1199] <_ZNK11OSystem_SDL17getSystemLanguageEv> -> "_ZNK11OSystem_SDL17getSystemLanguageEv"
 - func[19594] <setlocale> -> "setlocale"
 - func[12412] <_ZNK7OSystem17getSystemLanguageEv> -> "_ZNK7OSystem17getSystemLanguageEv"
 - func[11611] <_ZN6Common10BaseStringIcEC1EPKcj> -> "_ZN6Common10BaseStringIcEC2EPKcj"
 - func[1200] <_ZTv0_n376_NK11OSystem_SDL17getSystemLanguageEv> -> "_ZTv0_n376_NK11OSystem_SDL17getSystemLanguageEv"
 - func[1201] <_ZN11OSystem_SDL18hasTextInClipboardEv> -> "_ZN11OSystem_SDL18hasTextInClipboardEv"
 - func[15236] <SDL_HasClipboardText> -> "SDL_HasClipboardText"
 - func[1202] <_ZTv0_n360_N11OSystem_SDL18hasTextInClipboardEv> -> "_ZTv0_n360_N11OSystem_SDL18hasTextInClipboardEv"
 - func[1203] <_ZN11OSystem_SDL20getTextFromClipboardEv> -> "_ZN11OSystem_SDL20getTextFromClipboardEv"
 - func[15235] <SDL_GetClipboardText> -> "SDL_GetClipboardText"
 - func[12394] <_ZNK6Common6String6decodeENS_8CodePageE> -> "_ZNK6Common6String6decodeENS_8CodePageE"
 - func[15723] <SDL_free> -> "SDL_free"
 - func[1204] <_ZTv0_n364_N11OSystem_SDL20getTextFromClipboardEv> -> "_ZTv0_n364_N11OSystem_SDL20getTextFromClipboardEv"
 - func[1205] <_ZN11OSystem_SDL18setTextInClipboardERKN6Common9U32StringE> -> "_ZN11OSystem_SDL18setTextInClipboardERKN6Common9U32StringE"
 - func[15234] <SDL_SetClipboardText> -> "SDL_SetClipboardText"
 - func[1206] <_ZTv0_n368_N11OSystem_SDL18setTextInClipboardERKN6Common9U32StringE> -> "_ZTv0_n368_N11OSystem_SDL18setTextInClipboardERKN6Common9U32StringE"
 - func[1207] <_ZN11OSystem_SDL10messageBoxEN14LogMessageType4TypeEPKc> -> "_ZN11OSystem_SDL10messageBoxEN14LogMessageType4TypeEPKc"
 - func[16458] <SDL_ShowSimpleMessageBox> -> "SDL_ShowSimpleMessageBox"
 - func[1208] <_ZTv0_n352_N11OSystem_SDL10messageBoxEN14LogMessageType4TypeEPKc> -> "_ZTv0_n352_N11OSystem_SDL10messageBoxEN14LogMessageType4TypeEPKc"
 - func[1209] <_ZN11OSystem_SDL7openUrlERKN6Common6StringE> -> "_ZN11OSystem_SDL7openUrlERKN6Common6StringE"
 - func[16314] <SDL_OpenURL> -> "SDL_OpenURL"
 - func[1210] <_ZTv0_n372_N11OSystem_SDL7openUrlERKN6Common6StringE> -> "_ZTv0_n372_N11OSystem_SDL7openUrlERKN6Common6StringE"
 - func[1211] <_ZN11OSystem_SDL11createMutexEv> -> "_ZN11OSystem_SDL11createMutexEv"
 - func[4086] <_Z22createSdlMutexInternalv> -> "_Z22createSdlMutexInternalv"
 - func[1212] <_ZTv0_n280_N11OSystem_SDL11createMutexEv> -> "_ZTv0_n280_N11OSystem_SDL11createMutexEv"
 - func[1213] <_ZN11OSystem_SDL9getMillisEb> -> "_ZN11OSystem_SDL9getMillisEb"
 - func[16297] <SDL_GetTicks> -> "SDL_GetTicks"
 - func[1214] <_ZTv0_n252_N11OSystem_SDL9getMillisEb> -> "_ZTv0_n252_N11OSystem_SDL9getMillisEb"
 - func[1215] <_ZN11OSystem_SDL11delayMillisEj> -> "_ZN11OSystem_SDL11delayMillisEj"
 - func[16272] <SDL_Delay> -> "SDL_Delay"
 - func[1216] <_ZTv0_n256_N11OSystem_SDL11delayMillisEj> -> "_ZTv0_n256_N11OSystem_SDL11delayMillisEj"
 - func[1217] <_ZNK11OSystem_SDL14getTimeAndDateER8TimeDateb> -> "_ZNK11OSystem_SDL14getTimeAndDateER8TimeDateb"
 - func[25989] <__time> -> "time"
 - func[19176] <localtime> -> "localtime"
 - func[1218] <_ZTv0_n260_NK11OSystem_SDL14getTimeAndDateER8TimeDateb> -> "_ZTv0_n260_NK11OSystem_SDL14getTimeAndDateER8TimeDateb"
 - func[1219] <_ZN11OSystem_SDL15getMixerManagerEv> -> "_ZN11OSystem_SDL15getMixerManagerEv"
 - func[1220] <_ZN11OSystem_SDL15getTimerManagerEv> -> "_ZN11OSystem_SDL15getTimerManagerEv"
 - func[1221] <_ZTv0_n264_N11OSystem_SDL15getTimerManagerEv> -> "_ZTv0_n264_N11OSystem_SDL15getTimerManagerEv"
 - func[1222] <_ZN11OSystem_SDL20createAudioCDManagerEv> -> "_ZN11OSystem_SDL20createAudioCDManagerEv"
 - func[3155] <_ZN21DefaultAudioCDManagerC2Ev> -> "_ZN21DefaultAudioCDManagerC1Ev"
 - func[1223] <_ZN11OSystem_SDL18getSavefileManagerEv> -> "_ZN11OSystem_SDL18getSavefileManagerEv"
 - func[1224] <_ZTv0_n308_N11OSystem_SDL18getSavefileManagerEv> -> "_ZTv0_n308_N11OSystem_SDL18getSavefileManagerEv"
 - func[1225] <_ZN11OSystem_SDL19getDefaultIconsPathEv> -> "_ZN11OSystem_SDL19getDefaultIconsPathEv"
 - func[1226] <_ZN11OSystem_SDL18getScreenshotsPathEv> -> "_ZN11OSystem_SDL18getScreenshotsPathEv"
 - func[1227] <_ZNK11OSystem_SDL25getSupportedGraphicsModesEv> -> "_ZNK11OSystem_SDL25getSupportedGraphicsModesEv"
 - func[1228] <_ZThn8_NK11OSystem_SDL25getSupportedGraphicsModesEv> -> "_ZThn8_NK11OSystem_SDL25getSupportedGraphicsModesEv"
 - func[1229] <_ZTv0_n44_NK11OSystem_SDL25getSupportedGraphicsModesEv> -> "_ZTv0_n44_NK11OSystem_SDL25getSupportedGraphicsModesEv"
 - func[1230] <_ZNK11OSystem_SDL22getDefaultGraphicsModeEv> -> "_ZNK11OSystem_SDL22getDefaultGraphicsModeEv"
 - func[1231] <_ZThn8_NK11OSystem_SDL22getDefaultGraphicsModeEv> -> "_ZThn8_NK11OSystem_SDL22getDefaultGraphicsModeEv"
 - func[1232] <_ZTv0_n48_NK11OSystem_SDL22getDefaultGraphicsModeEv> -> "_ZTv0_n48_NK11OSystem_SDL22getDefaultGraphicsModeEv"
 - func[1233] <_ZN11OSystem_SDL15setGraphicsModeEij> -> "_ZN11OSystem_SDL15setGraphicsModeEij"
 - func[3911] <_ZNK18SdlGraphicsManager8getStateEv> -> "_ZNK18SdlGraphicsManager8getStateEv"
 - func[4182] <_ZN26OpenGLSdlGraphics3dManagerC1EP14SdlEventSourceP9SdlWindowb> -> "_ZN26OpenGLSdlGraphics3dManagerC1EP14SdlEventSourceP9SdlWindowb"
 - func[3912] <_ZN18SdlGraphicsManager8setStateERKNS_5StateE> -> "_ZN18SdlGraphicsManager8setStateERKNS_5StateE"
 - global[4131] -> "_ZN6Common9SingletonIN8Graphics13CursorManagerEE10_singletonE"
 - global[4132] -> "_ZTVN8Graphics13CursorManagerE"
 - func[5754] <_ZN8Graphics13CursorManager10pushCursorEPKvjjiijbPKNS_11PixelFormatE> -> "_ZN8Graphics13CursorManager10pushCursorEPKvjjiijbPKNS_11PixelFormatE"
 - func[5756] <_ZN8Graphics13CursorManager9popCursorEv> -> "_ZN8Graphics13CursorManager9popCursorEv"
 - func[5761] <_ZN8Graphics13CursorManager17pushCursorPaletteEPKhjj> -> "_ZN8Graphics13CursorManager17pushCursorPaletteEPKhjj"
 - func[5765] <_ZN8Graphics13CursorManager16popCursorPaletteEv> -> "_ZN8Graphics13CursorManager16popCursorPaletteEv"
 - func[1234] <_ZThn8_N11OSystem_SDL15setGraphicsModeEij> -> "_ZThn8_N11OSystem_SDL15setGraphicsModeEij"
 - func[1235] <_ZTv0_n52_N11OSystem_SDL15setGraphicsModeEij> -> "_ZTv0_n52_N11OSystem_SDL15setGraphicsModeEij"
 - func[1236] <_ZNK11OSystem_SDL15getGraphicsModeEv> -> "_ZNK11OSystem_SDL15getGraphicsModeEv"
 - func[1237] <_ZThn8_NK11OSystem_SDL15getGraphicsModeEv> -> "_ZThn8_NK11OSystem_SDL15getGraphicsModeEv"
 - func[1238] <_ZTv0_n56_NK11OSystem_SDL15getGraphicsModeEv> -> "_ZTv0_n56_NK11OSystem_SDL15getGraphicsModeEv"
 - func[1239] <_ZN7OSystem4initEv> -> "_ZN7OSystem4initEv"
 - func[1240] <_ZN7OSystem10engineInitEv> -> "_ZN7OSystem10engineInitEv"
 - func[1241] <_ZN7OSystem10engineDoneEv> -> "_ZN7OSystem10engineDoneEv"
 - func[1242] <_ZN7OSystem10hasFeatureENS_7FeatureE> -> "_ZN7OSystem10hasFeatureENS_7FeatureE"
 - func[1243] <_ZN7OSystem15setFeatureStateENS_7FeatureEb> -> "_ZN7OSystem15setFeatureStateENS_7FeatureEb"
 - func[1244] <_ZN7OSystem15getFeatureStateENS_7FeatureE> -> "_ZN7OSystem15getFeatureStateENS_7FeatureE"
 - func[1245] <_ZNK7OSystem25getSupportedGraphicsModesEv> -> "_ZNK7OSystem25getSupportedGraphicsModesEv"
 - global[4133] -> "_ZZNK7OSystem25getSupportedGraphicsModesEvE15noGraphicsModes"
 - func[1246] <_ZNK7OSystem22getDefaultGraphicsModeEv> -> "_ZNK7OSystem22getDefaultGraphicsModeEv"
 - func[1247] <_ZN7OSystem15setGraphicsModeEij> -> "_ZN7OSystem15setGraphicsModeEij"
 - func[1248] <_ZNK7OSystem15getGraphicsModeEv> -> "_ZNK7OSystem15getGraphicsModeEv"
 - func[1249] <_ZNK7OSystem30getSupportedAntiAliasingLevelsEv> -> "_ZNK7OSystem30getSupportedAntiAliasingLevelsEv"
 - func[1250] <_ZNK7OSystem13getOpenGLTypeEv> -> "_ZNK7OSystem13getOpenGLTypeEv"
 - func[1251] <_ZNK7OSystem20getOpenGLProcAddressEPKc> -> "_ZNK7OSystem20getOpenGLProcAddressEPKc"
 - func[1252] <_ZN7OSystem9setShaderERKN6Common6StringE> -> "_ZN7OSystem9setShaderERKN6Common6StringE"
 - func[1253] <_ZNK7OSystem24getSupportedStretchModesEv> -> "_ZNK7OSystem24getSupportedStretchModesEv"
 - global[4134] -> "_ZZNK7OSystem24getSupportedStretchModesEvE14noStretchModes"
 - func[1254] <_ZNK7OSystem21getDefaultStretchModeEv> -> "_ZNK7OSystem21getDefaultStretchModeEv"
 - func[1255] <_ZN7OSystem14setStretchModeEi> -> "_ZN7OSystem14setStretchModeEi"
 - func[1256] <_ZNK7OSystem14getStretchModeEv> -> "_ZNK7OSystem14getStretchModeEv"
 - func[1257] <_ZNK7OSystem16getDefaultScalerEv> -> "_ZNK7OSystem16getDefaultScalerEv"
 - func[1258] <_ZNK7OSystem21getDefaultScaleFactorEv> -> "_ZNK7OSystem21getDefaultScaleFactorEv"
 - func[1259] <_ZN7OSystem9setScalerEji> -> "_ZN7OSystem9setScalerEji"
 - func[1260] <_ZNK7OSystem9getScalerEv> -> "_ZNK7OSystem9getScalerEv"
 - func[1261] <_ZNK7OSystem14getScaleFactorEv> -> "_ZNK7OSystem14getScaleFactorEv"
 - func[1262] <_ZN7OSystem12initSizeHintERKN6Common5ArrayIN8Graphics4ModeEEE> -> "_ZN7OSystem12initSizeHintERKN6Common5ArrayIN8Graphics4ModeEEE"
 - func[1263] <_ZNK7OSystem17getScreenChangeIDEv> -> "_ZNK7OSystem17getScreenChangeIDEv"
 - func[1264] <_ZN7OSystem19beginGFXTransactionEv> -> "_ZN7OSystem19beginGFXTransactionEv"
 - func[1265] <_ZN7OSystem17endGFXTransactionEv> -> "_ZN7OSystem17endGFXTransactionEv"
 - func[1266] <_ZNK7OSystem20getHiDPIScreenFactorEv> -> "_ZNK7OSystem20getHiDPIScreenFactorEv"
 - func[1267] <_ZN7OSystem17setFocusRectangleERKN6Common4RectE> -> "_ZN7OSystem17setFocusRectangleERKN6Common4RectE"
 - func[1268] <_ZN7OSystem19clearFocusRectangleEv> -> "_ZN7OSystem19clearFocusRectangleEv"
 - func[1269] <_ZN7OSystem14saveScreenshotEv> -> "_ZN7OSystem14saveScreenshotEv"
 - func[1270] <_ZN7OSystem9lockMouseEb> -> "_ZN7OSystem9lockMouseEb"
 - func[1271] <_ZN7OSystem16setCursorPaletteEPKhjj> -> "_ZN7OSystem16setCursorPaletteEPKhjj"
 - func[1272] <_ZN7OSystem19getHardwareInputSetEv> -> "_ZN7OSystem19getHardwareInputSetEv"
 - func[1273] <_ZN7OSystem27getKeymapperDefaultBindingsEv> -> "_ZN7OSystem27getKeymapperDefaultBindingsEv"
 - func[1274] <_ZN7OSystem16setWindowCaptionERKN6Common9U32StringE> -> "_ZN7OSystem16setWindowCaptionERKN6Common9U32StringE"
 - func[1275] <_ZN11BaseBackend24displayActivityIconOnOSDEPKN8Graphics7SurfaceE> -> "_ZN11BaseBackend24displayActivityIconOnOSDEPKN8Graphics7SurfaceE"
 - func[1276] <_ZN7OSystem22getTextToSpeechManagerEv> -> "_ZN7OSystem22getTextToSpeechManagerEv"
 - func[1277] <_ZN7OSystem25addSysArchivesToSearchSetERN6Common9SearchSetEi> -> "_ZN7OSystem25addSysArchivesToSearchSetERN6Common9SearchSetEi"
 - func[1278] <_ZNK7OSystem23registerDefaultSettingsERKN6Common6StringE> -> "_ZNK7OSystem23registerDefaultSettingsERKN6Common6StringE"
 - func[1279] <_ZNK7OSystem25buildBackendOptionsWidgetEPN3GUI9GuiObjectERKN6Common6StringES6_> -> "_ZNK7OSystem25buildBackendOptionsWidgetEPN3GUI9GuiObjectERKN6Common6StringES6_"
 - func[1280] <_ZN7OSystem20applyBackendSettingsEv> -> "_ZN7OSystem20applyBackendSettingsEv"
 - func[1281] <_ZN7OSystem10messageBoxEN14LogMessageType4TypeEPKc> -> "_ZN7OSystem10messageBoxEN14LogMessageType4TypeEPKc"
 - func[1282] <_ZN7OSystem14displayLogFileEv> -> "_ZN7OSystem14displayLogFileEv"
 - func[1283] <_ZN7OSystem18hasTextInClipboardEv> -> "_ZN7OSystem18hasTextInClipboardEv"
 - func[1284] <_ZN7OSystem20getTextFromClipboardEv> -> "_ZN7OSystem20getTextFromClipboardEv"
 - func[11679] <_ZN6Common10BaseStringIDiEC1ERKS1_> -> "_ZN6Common10BaseStringIDiEC2ERKS1_"
 - func[1285] <_ZN7OSystem18setTextInClipboardERKN6Common9U32StringE> -> "_ZN7OSystem18setTextInClipboardERKN6Common9U32StringE"
 - func[12499] <_ZN6Common9U32StringaSERKS0_> -> "_ZN6Common9U32StringaSERKS0_"
 - func[1286] <_ZN7OSystem7openUrlERKN6Common6StringE> -> "_ZN7OSystem7openUrlERKN6Common6StringE"
 - func[1287] <_ZNK11OSystem_SDL13getOpenGLTypeEv> -> "_ZNK11OSystem_SDL13getOpenGLTypeEv"
 - func[1288] <_ZN11OSystem_SDL21getDefaultLogFileNameEv> -> "_ZN11OSystem_SDL21getDefaultLogFileNameEv"
 - func[1289] <_ZNK11OSystem_SDL25getDefaultGraphicsManagerEv> -> "_ZNK11OSystem_SDL25getDefaultGraphicsManagerEv"
 - func[1290] <_ZTv0_n72_NK11OSystem_SDL13getOpenGLTypeEv> -> "_ZTv0_n72_NK11OSystem_SDL13getOpenGLTypeEv"
 - func[1291] <_ZN12MixerManagerD2Ev> -> "_ZN12MixerManagerD2Ev"
 - global[4135] -> "_ZTV12MixerManager"
 - func[1292] <_ZN12MixerManagerD0Ev> -> "_ZN12MixerManagerD0Ev"
 - func[1293] <_ZN13ScalerManagerD0Ev> -> "_ZN13ScalerManagerD0Ev"
 - func[1294] <_ZN6Common9SingletonI13ScalerManagerED2Ev> -> "_ZN6Common9SingletonI13ScalerManagerED2Ev"
 - global[4136] -> "_ZTI11OSystem_SDL"
 - func[3125] <_ZN19ModularMixerBackend8getMixerEv> -> "_ZN19ModularMixerBackend8getMixerEv"
 - func[3013] <_ZN22ModularGraphicsBackend15setFeatureStateEN7OSystem7FeatureEb> -> "_ZN22ModularGraphicsBackend15setFeatureStateEN7OSystem7FeatureEb"
 - func[3015] <_ZN22ModularGraphicsBackend15getFeatureStateEN7OSystem7FeatureE> -> "_ZN22ModularGraphicsBackend15getFeatureStateEN7OSystem7FeatureE"
 - func[3026] <_ZN22ModularGraphicsBackend9setShaderERKN6Common6StringE> -> "_ZN22ModularGraphicsBackend9setShaderERKN6Common6StringE"
 - func[3028] <_ZNK22ModularGraphicsBackend24getSupportedStretchModesEv> -> "_ZNK22ModularGraphicsBackend24getSupportedStretchModesEv"
 - func[3030] <_ZNK22ModularGraphicsBackend21getDefaultStretchModeEv> -> "_ZNK22ModularGraphicsBackend21getDefaultStretchModeEv"
 - func[3032] <_ZN22ModularGraphicsBackend14setStretchModeEi> -> "_ZN22ModularGraphicsBackend14setStretchModeEi"
 - func[3034] <_ZNK22ModularGraphicsBackend14getStretchModeEv> -> "_ZNK22ModularGraphicsBackend14getStretchModeEv"
 - func[3036] <_ZNK22ModularGraphicsBackend16getDefaultScalerEv> -> "_ZNK22ModularGraphicsBackend16getDefaultScalerEv"
 - func[3038] <_ZNK22ModularGraphicsBackend21getDefaultScaleFactorEv> -> "_ZNK22ModularGraphicsBackend21getDefaultScaleFactorEv"
 - func[3040] <_ZN22ModularGraphicsBackend9setScalerEji> -> "_ZN22ModularGraphicsBackend9setScalerEji"
 - func[3042] <_ZNK22ModularGraphicsBackend9getScalerEv> -> "_ZNK22ModularGraphicsBackend9getScalerEv"
 - func[3044] <_ZNK22ModularGraphicsBackend14getScaleFactorEv> -> "_ZNK22ModularGraphicsBackend14getScaleFactorEv"
 - func[3046] <_ZNK22ModularGraphicsBackend15getScreenFormatEv> -> "_ZNK22ModularGraphicsBackend15getScreenFormatEv"
 - func[3048] <_ZNK22ModularGraphicsBackend19getSupportedFormatsEv> -> "_ZNK22ModularGraphicsBackend19getSupportedFormatsEv"
 - func[3050] <_ZN22ModularGraphicsBackend8initSizeEjjPKN8Graphics11PixelFormatE> -> "_ZN22ModularGraphicsBackend8initSizeEjjPKN8Graphics11PixelFormatE"
 - func[3052] <_ZN22ModularGraphicsBackend12initSizeHintERKN6Common5ArrayIN8Graphics4ModeEEE> -> "_ZN22ModularGraphicsBackend12initSizeHintERKN6Common5ArrayIN8Graphics4ModeEEE"
 - func[3054] <_ZNK22ModularGraphicsBackend17getScreenChangeIDEv> -> "_ZNK22ModularGraphicsBackend17getScreenChangeIDEv"
 - func[3056] <_ZN22ModularGraphicsBackend19beginGFXTransactionEv> -> "_ZN22ModularGraphicsBackend19beginGFXTransactionEv"
 - func[3058] <_ZN22ModularGraphicsBackend17endGFXTransactionEv> -> "_ZN22ModularGraphicsBackend17endGFXTransactionEv"
 - func[3060] <_ZN22ModularGraphicsBackend9getHeightEv> -> "_ZN22ModularGraphicsBackend9getHeightEv"
 - func[3062] <_ZN22ModularGraphicsBackend8getWidthEv> -> "_ZN22ModularGraphicsBackend8getWidthEv"
 - func[3064] <_ZN22ModularGraphicsBackend17getPaletteManagerEv> -> "_ZN22ModularGraphicsBackend17getPaletteManagerEv"
 - func[3066] <_ZN22ModularGraphicsBackend16copyRectToScreenEPKviiiii> -> "_ZN22ModularGraphicsBackend16copyRectToScreenEPKviiiii"
 - func[3068] <_ZN22ModularGraphicsBackend10lockScreenEv> -> "_ZN22ModularGraphicsBackend10lockScreenEv"
 - func[3070] <_ZN22ModularGraphicsBackend12unlockScreenEv> -> "_ZN22ModularGraphicsBackend12unlockScreenEv"
 - func[3072] <_ZN22ModularGraphicsBackend10fillScreenEj> -> "_ZN22ModularGraphicsBackend10fillScreenEj"
 - func[3074] <_ZN22ModularGraphicsBackend12updateScreenEv> -> "_ZN22ModularGraphicsBackend12updateScreenEv"
 - func[3076] <_ZN22ModularGraphicsBackend11setShakePosEii> -> "_ZN22ModularGraphicsBackend11setShakePosEii"
 - func[3078] <_ZN22ModularGraphicsBackend17setFocusRectangleERKN6Common4RectE> -> "_ZN22ModularGraphicsBackend17setFocusRectangleERKN6Common4RectE"
 - func[3080] <_ZN22ModularGraphicsBackend19clearFocusRectangleEv> -> "_ZN22ModularGraphicsBackend19clearFocusRectangleEv"
 - func[3082] <_ZN22ModularGraphicsBackend11showOverlayEb> -> "_ZN22ModularGraphicsBackend11showOverlayEb"
 - func[3084] <_ZN22ModularGraphicsBackend11hideOverlayEv> -> "_ZN22ModularGraphicsBackend11hideOverlayEv"
 - func[3086] <_ZNK22ModularGraphicsBackend16isOverlayVisibleEv> -> "_ZNK22ModularGraphicsBackend16isOverlayVisibleEv"
 - func[3088] <_ZNK22ModularGraphicsBackend16getOverlayFormatEv> -> "_ZNK22ModularGraphicsBackend16getOverlayFormatEv"
 - func[3090] <_ZN22ModularGraphicsBackend12clearOverlayEv> -> "_ZN22ModularGraphicsBackend12clearOverlayEv"
 - func[3092] <_ZN22ModularGraphicsBackend11grabOverlayERN8Graphics7SurfaceE> -> "_ZN22ModularGraphicsBackend11grabOverlayERN8Graphics7SurfaceE"
 - func[3094] <_ZN22ModularGraphicsBackend17copyRectToOverlayEPKviiiii> -> "_ZN22ModularGraphicsBackend17copyRectToOverlayEPKviiiii"
 - func[3096] <_ZN22ModularGraphicsBackend16getOverlayHeightEv> -> "_ZN22ModularGraphicsBackend16getOverlayHeightEv"
 - func[3098] <_ZN22ModularGraphicsBackend15getOverlayWidthEv> -> "_ZN22ModularGraphicsBackend15getOverlayWidthEv"
 - func[3100] <_ZNK22ModularGraphicsBackend20getHiDPIScreenFactorEv> -> "_ZNK22ModularGraphicsBackend20getHiDPIScreenFactorEv"
 - func[3102] <_ZN22ModularGraphicsBackend9showMouseEb> -> "_ZN22ModularGraphicsBackend9showMouseEb"
 - func[3106] <_ZN22ModularGraphicsBackend9warpMouseEii> -> "_ZN22ModularGraphicsBackend9warpMouseEii"
 - func[3108] <_ZN22ModularGraphicsBackend14setMouseCursorEPKvjjiijbPKN8Graphics11PixelFormatE> -> "_ZN22ModularGraphicsBackend14setMouseCursorEPKvjjiijbPKN8Graphics11PixelFormatE"
 - func[3110] <_ZN22ModularGraphicsBackend16setCursorPaletteEPKhjj> -> "_ZN22ModularGraphicsBackend16setCursorPaletteEPKhjj"
 - func[3104] <_ZN22ModularGraphicsBackend9lockMouseEb> -> "_ZN22ModularGraphicsBackend9lockMouseEb"
 - func[3112] <_ZN22ModularGraphicsBackend19displayMessageOnOSDERKN6Common9U32StringE> -> "_ZN22ModularGraphicsBackend19displayMessageOnOSDERKN6Common9U32StringE"
 - func[3114] <_ZN22ModularGraphicsBackend24displayActivityIconOnOSDEPKN8Graphics7SurfaceE> -> "_ZN22ModularGraphicsBackend24displayActivityIconOnOSDEPKN8Graphics7SurfaceE"
 - func[3116] <_ZN22ModularGraphicsBackend14saveScreenshotEv> -> "_ZN22ModularGraphicsBackend14saveScreenshotEv"
 - func[3014] <_ZTv0_n36_N22ModularGraphicsBackend15setFeatureStateEN7OSystem7FeatureEb> -> "_ZTv0_n36_N22ModularGraphicsBackend15setFeatureStateEN7OSystem7FeatureEb"
 - func[3016] <_ZTv0_n40_N22ModularGraphicsBackend15getFeatureStateEN7OSystem7FeatureE> -> "_ZTv0_n40_N22ModularGraphicsBackend15getFeatureStateEN7OSystem7FeatureE"
 - func[3047] <_ZTv0_n60_NK22ModularGraphicsBackend15getScreenFormatEv> -> "_ZTv0_n60_NK22ModularGraphicsBackend15getScreenFormatEv"
 - func[3049] <_ZTv0_n64_NK22ModularGraphicsBackend19getSupportedFormatsEv> -> "_ZTv0_n64_NK22ModularGraphicsBackend19getSupportedFormatsEv"
 - func[3027] <_ZTv0_n80_N22ModularGraphicsBackend9setShaderERKN6Common6StringE> -> "_ZTv0_n80_N22ModularGraphicsBackend9setShaderERKN6Common6StringE"
 - func[3029] <_ZTv0_n84_NK22ModularGraphicsBackend24getSupportedStretchModesEv> -> "_ZTv0_n84_NK22ModularGraphicsBackend24getSupportedStretchModesEv"
 - func[3031] <_ZTv0_n88_NK22ModularGraphicsBackend21getDefaultStretchModeEv> -> "_ZTv0_n88_NK22ModularGraphicsBackend21getDefaultStretchModeEv"
 - func[3033] <_ZTv0_n92_N22ModularGraphicsBackend14setStretchModeEi> -> "_ZTv0_n92_N22ModularGraphicsBackend14setStretchModeEi"
 - func[3035] <_ZTv0_n96_NK22ModularGraphicsBackend14getStretchModeEv> -> "_ZTv0_n96_NK22ModularGraphicsBackend14getStretchModeEv"
 - func[3037] <_ZTv0_n100_NK22ModularGraphicsBackend16getDefaultScalerEv> -> "_ZTv0_n100_NK22ModularGraphicsBackend16getDefaultScalerEv"
 - func[3039] <_ZTv0_n104_NK22ModularGraphicsBackend21getDefaultScaleFactorEv> -> "_ZTv0_n104_NK22ModularGraphicsBackend21getDefaultScaleFactorEv"
 - func[3041] <_ZTv0_n108_N22ModularGraphicsBackend9setScalerEji> -> "_ZTv0_n108_N22ModularGraphicsBackend9setScalerEji"
 - func[2993] <_ZN11BaseBackend9setScalerEPKci> -> "_ZN11BaseBackend9setScalerEPKci"
 - func[3043] <_ZTv0_n116_NK22ModularGraphicsBackend9getScalerEv> -> "_ZTv0_n116_NK22ModularGraphicsBackend9getScalerEv"
 - func[3045] <_ZTv0_n120_NK22ModularGraphicsBackend14getScaleFactorEv> -> "_ZTv0_n120_NK22ModularGraphicsBackend14getScaleFactorEv"
 - func[3051] <_ZTv0_n124_N22ModularGraphicsBackend8initSizeEjjPKN8Graphics11PixelFormatE> -> "_ZTv0_n124_N22ModularGraphicsBackend8initSizeEjjPKN8Graphics11PixelFormatE"
 - func[3053] <_ZTv0_n128_N22ModularGraphicsBackend12initSizeHintERKN6Common5ArrayIN8Graphics4ModeEEE> -> "_ZTv0_n128_N22ModularGraphicsBackend12initSizeHintERKN6Common5ArrayIN8Graphics4ModeEEE"
 - func[3055] <_ZTv0_n132_NK22ModularGraphicsBackend17getScreenChangeIDEv> -> "_ZTv0_n132_NK22ModularGraphicsBackend17getScreenChangeIDEv"
 - func[3057] <_ZTv0_n136_N22ModularGraphicsBackend19beginGFXTransactionEv> -> "_ZTv0_n136_N22ModularGraphicsBackend19beginGFXTransactionEv"
 - func[3059] <_ZTv0_n140_N22ModularGraphicsBackend17endGFXTransactionEv> -> "_ZTv0_n140_N22ModularGraphicsBackend17endGFXTransactionEv"
 - func[3061] <_ZTv0_n144_N22ModularGraphicsBackend9getHeightEv> -> "_ZTv0_n144_N22ModularGraphicsBackend9getHeightEv"
 - func[3063] <_ZTv0_n148_N22ModularGraphicsBackend8getWidthEv> -> "_ZTv0_n148_N22ModularGraphicsBackend8getWidthEv"
 - func[3065] <_ZTv0_n152_N22ModularGraphicsBackend17getPaletteManagerEv> -> "_ZTv0_n152_N22ModularGraphicsBackend17getPaletteManagerEv"
 - func[3101] <_ZTv0_n156_NK22ModularGraphicsBackend20getHiDPIScreenFactorEv> -> "_ZTv0_n156_NK22ModularGraphicsBackend20getHiDPIScreenFactorEv"
 - func[3067] <_ZTv0_n160_N22ModularGraphicsBackend16copyRectToScreenEPKviiiii> -> "_ZTv0_n160_N22ModularGraphicsBackend16copyRectToScreenEPKviiiii"
 - func[3069] <_ZTv0_n164_N22ModularGraphicsBackend10lockScreenEv> -> "_ZTv0_n164_N22ModularGraphicsBackend10lockScreenEv"
 - func[3071] <_ZTv0_n168_N22ModularGraphicsBackend12unlockScreenEv> -> "_ZTv0_n168_N22ModularGraphicsBackend12unlockScreenEv"
 - func[3073] <_ZTv0_n172_N22ModularGraphicsBackend10fillScreenEj> -> "_ZTv0_n172_N22ModularGraphicsBackend10fillScreenEj"
 - func[3075] <_ZTv0_n176_N22ModularGraphicsBackend12updateScreenEv> -> "_ZTv0_n176_N22ModularGraphicsBackend12updateScreenEv"
 - func[3077] <_ZTv0_n180_N22ModularGraphicsBackend11setShakePosEii> -> "_ZTv0_n180_N22ModularGraphicsBackend11setShakePosEii"
 - func[3079] <_ZTv0_n184_N22ModularGraphicsBackend17setFocusRectangleERKN6Common4RectE> -> "_ZTv0_n184_N22ModularGraphicsBackend17setFocusRectangleERKN6Common4RectE"
 - func[3081] <_ZTv0_n188_N22ModularGraphicsBackend19clearFocusRectangleEv> -> "_ZTv0_n188_N22ModularGraphicsBackend19clearFocusRectangleEv"
 - func[3117] <_ZTv0_n192_N22ModularGraphicsBackend14saveScreenshotEv> -> "_ZTv0_n192_N22ModularGraphicsBackend14saveScreenshotEv"
 - func[3083] <_ZTv0_n196_N22ModularGraphicsBackend11showOverlayEb> -> "_ZTv0_n196_N22ModularGraphicsBackend11showOverlayEb"
 - func[3085] <_ZTv0_n200_N22ModularGraphicsBackend11hideOverlayEv> -> "_ZTv0_n200_N22ModularGraphicsBackend11hideOverlayEv"
 - func[3087] <_ZTv0_n204_NK22ModularGraphicsBackend16isOverlayVisibleEv> -> "_ZTv0_n204_NK22ModularGraphicsBackend16isOverlayVisibleEv"
 - func[3089] <_ZTv0_n208_NK22ModularGraphicsBackend16getOverlayFormatEv> -> "_ZTv0_n208_NK22ModularGraphicsBackend16getOverlayFormatEv"
 - func[3091] <_ZTv0_n212_N22ModularGraphicsBackend12clearOverlayEv> -> "_ZTv0_n212_N22ModularGraphicsBackend12clearOverlayEv"
 - func[3093] <_ZTv0_n216_N22ModularGraphicsBackend11grabOverlayERN8Graphics7SurfaceE> -> "_ZTv0_n216_N22ModularGraphicsBackend11grabOverlayERN8Graphics7SurfaceE"
 - func[3095] <_ZTv0_n220_N22ModularGraphicsBackend17copyRectToOverlayEPKviiiii> -> "_ZTv0_n220_N22ModularGraphicsBackend17copyRectToOverlayEPKviiiii"
 - func[3097] <_ZTv0_n224_N22ModularGraphicsBackend16getOverlayHeightEv> -> "_ZTv0_n224_N22ModularGraphicsBackend16getOverlayHeightEv"
 - func[3099] <_ZTv0_n228_N22ModularGraphicsBackend15getOverlayWidthEv> -> "_ZTv0_n228_N22ModularGraphicsBackend15getOverlayWidthEv"
 - func[3103] <_ZTv0_n232_N22ModularGraphicsBackend9showMouseEb> -> "_ZTv0_n232_N22ModularGraphicsBackend9showMouseEb"
 - func[3105] <_ZTv0_n236_N22ModularGraphicsBackend9lockMouseEb> -> "_ZTv0_n236_N22ModularGraphicsBackend9lockMouseEb"
 - func[3107] <_ZTv0_n240_N22ModularGraphicsBackend9warpMouseEii> -> "_ZTv0_n240_N22ModularGraphicsBackend9warpMouseEii"
 - func[3109] <_ZTv0_n244_N22ModularGraphicsBackend14setMouseCursorEPKvjjiijbPKN8Graphics11PixelFormatE> -> "_ZTv0_n244_N22ModularGraphicsBackend14setMouseCursorEPKvjjiijbPKN8Graphics11PixelFormatE"
 - func[3111] <_ZTv0_n248_N22ModularGraphicsBackend16setCursorPaletteEPKhjj> -> "_ZTv0_n248_N22ModularGraphicsBackend16setCursorPaletteEPKhjj"
 - func[3126] <_ZTv0_n284_N19ModularMixerBackend8getMixerEv> -> "_ZTv0_n284_N19ModularMixerBackend8getMixerEv"
 - func[3113] <_ZTv0_n300_N22ModularGraphicsBackend19displayMessageOnOSDERKN6Common9U32StringE> -> "_ZTv0_n300_N22ModularGraphicsBackend19displayMessageOnOSDERKN6Common9U32StringE"
 - func[3115] <_ZTv0_n304_N22ModularGraphicsBackend24displayActivityIconOnOSDEPKN8Graphics7SurfaceE> -> "_ZTv0_n304_N22ModularGraphicsBackend24displayActivityIconOnOSDEPKN8Graphics7SurfaceE"
 - func[12408] <_ZN7OSystem20getFilesystemFactoryEv> -> "_ZN7OSystem20getFilesystemFactoryEv"
 - func[12409] <_ZN7OSystem22createConfigReadStreamEv> -> "_ZN7OSystem22createConfigReadStreamEv"
 - func[12410] <_ZN7OSystem23createConfigWriteStreamEv> -> "_ZN7OSystem23createConfigWriteStreamEv"
 - func[12411] <_ZN7OSystem24getDefaultConfigFileNameEv> -> "_ZN7OSystem24getDefaultConfigFileNameEv"
 - func[12413] <_ZN7OSystem19isConnectionLimitedEv> -> "_ZN7OSystem19isConnectionLimitedEv"
 - global[4137] -> "_ZTC11OSystem_SDL0_19ModularMixerBackend"
 - global[4138] -> "_ZTC11OSystem_SDL8_22ModularGraphicsBackend"
 - global[4139] -> "_ZTS15GraphicsManager"
 - global[4140] -> "_ZTS14PaletteManager"
 - global[4141] -> "_ZTI14PaletteManager"
 - global[4142] -> "_ZTI19ModularMixerBackend"
 - func[3120] <_ZN19ModularMixerBackendD1Ev> -> "_ZN19ModularMixerBackendD1Ev"
 - func[3122] <_ZN19ModularMixerBackendD0Ev> -> "_ZN19ModularMixerBackendD0Ev"
 - func[3124] <_ZN19ModularMixerBackend15getMixerManagerEv> -> "_ZN19ModularMixerBackend15getMixerManagerEv"
 - func[3121] <_ZTv0_n12_N19ModularMixerBackendD1Ev> -> "_ZTv0_n12_N19ModularMixerBackendD1Ev"
 - func[3123] <_ZTv0_n12_N19ModularMixerBackendD0Ev> -> "_ZTv0_n12_N19ModularMixerBackendD0Ev"
 - func[2996] <_ZN11BaseBackend10fillScreenEj> -> "_ZN11BaseBackend10fillScreenEj"
 - func[12414] <_ZN7OSystem15getTimerManagerEv> -> "_ZN7OSystem15getTimerManagerEv"
 - func[12407] <_ZN7OSystem10fatalErrorEv> -> "_ZN7OSystem10fatalErrorEv"
 - func[2994] <_ZN11BaseBackend19displayMessageOnOSDERKN6Common9U32StringE> -> "_ZN11BaseBackend19displayMessageOnOSDERKN6Common9U32StringE"
 - func[12415] <_ZN7OSystem18getSavefileManagerEv> -> "_ZN7OSystem18getSavefileManagerEv"
 - global[4143] -> "_ZTI22ModularGraphicsBackend"
 - func[3007] <_ZN22ModularGraphicsBackendD1Ev> -> "_ZN22ModularGraphicsBackendD1Ev"
 - func[3009] <_ZN22ModularGraphicsBackendD0Ev> -> "_ZN22ModularGraphicsBackendD0Ev"
 - func[3018] <_ZNK22ModularGraphicsBackend25getSupportedGraphicsModesEv> -> "_ZNK22ModularGraphicsBackend25getSupportedGraphicsModesEv"
 - func[3020] <_ZNK22ModularGraphicsBackend22getDefaultGraphicsModeEv> -> "_ZNK22ModularGraphicsBackend22getDefaultGraphicsModeEv"
 - func[3022] <_ZN22ModularGraphicsBackend15setGraphicsModeEij> -> "_ZN22ModularGraphicsBackend15setGraphicsModeEij"
 - func[3024] <_ZNK22ModularGraphicsBackend15getGraphicsModeEv> -> "_ZNK22ModularGraphicsBackend15getGraphicsModeEv"
 - func[3008] <_ZTv0_n12_N22ModularGraphicsBackendD1Ev> -> "_ZTv0_n12_N22ModularGraphicsBackendD1Ev"
 - func[3010] <_ZTv0_n12_N22ModularGraphicsBackendD0Ev> -> "_ZTv0_n12_N22ModularGraphicsBackendD0Ev"
 - func[3012] <_ZTv0_n32_N22ModularGraphicsBackend10hasFeatureEN7OSystem7FeatureE> -> "_ZTv0_n32_N22ModularGraphicsBackend10hasFeatureEN7OSystem7FeatureE"
 - func[3019] <_ZTv0_n44_NK22ModularGraphicsBackend25getSupportedGraphicsModesEv> -> "_ZTv0_n44_NK22ModularGraphicsBackend25getSupportedGraphicsModesEv"
 - func[3021] <_ZTv0_n48_NK22ModularGraphicsBackend22getDefaultGraphicsModeEv> -> "_ZTv0_n48_NK22ModularGraphicsBackend22getDefaultGraphicsModeEv"
 - func[3023] <_ZTv0_n52_N22ModularGraphicsBackend15setGraphicsModeEij> -> "_ZTv0_n52_N22ModularGraphicsBackend15setGraphicsModeEij"
 - func[3025] <_ZTv0_n56_NK22ModularGraphicsBackend15getGraphicsModeEv> -> "_ZTv0_n56_NK22ModularGraphicsBackend15getGraphicsModeEv"
 - global[4144] -> "_ZTS11OSystem_SDL"
 - global[4145] -> "_ZTI12MixerManager"
 - global[4146] -> "_ZTS12MixerManager"
 - global[4147] -> "_ZTI13ScalerManager"
 - global[4148] -> "_ZTS13ScalerManager"
 - global[4149] -> "_ZTSN6Common9SingletonI13ScalerManagerEE"
 - global[4150] -> "_ZTIN6Common9SingletonI13ScalerManagerEE"
 - func[1295] <_ZN9SdlWindowC2Ev> -> "_ZN9SdlWindowC2Ev"
 - global[4151] -> "_ZTV9SdlWindow"
 - func[1296] <_ZN9SdlWindowD1Ev> -> "_ZN9SdlWindowD2Ev"
 - func[16388] <SDL_GetWindowPosition> -> "SDL_GetWindowPosition"
 - func[1297] <_ZN9SdlWindow13destroyWindowEv> -> "_ZN9SdlWindow13destroyWindowEv"
 - func[1298] <_ZN9SdlWindowD0Ev> -> "_ZN9SdlWindowD0Ev"
 - func[1296] <_ZN9SdlWindowD1Ev> -> "_ZN9SdlWindowD1Ev"
 - func[1299] <_ZN9SdlWindow9setupIconEv> -> "_ZN9SdlWindow9setupIconEv"
 - func[19663] <__isoc99_sscanf> -> "sscanf"
 - func[16165] <SDL_CreateRGBSurfaceFrom> -> "SDL_CreateRGBSurfaceFrom"
 - func[16384] <SDL_SetWindowIcon> -> "SDL_SetWindowIcon"
 - func[16161] <SDL_FreeSurface> -> "SDL_FreeSurface"
 - func[16364] <SDL_SetWindowTitle> -> "SDL_SetWindowTitle"
 - func[1301] <_ZN9SdlWindow9grabMouseEb> -> "_ZN9SdlWindow9grabMouseEb"
 - func[16371] <SDL_SetWindowGrab> -> "SDL_SetWindowGrab"
 - func[16421] <SDL_SetWindowMouseRect> -> "SDL_SetWindowMouseRect"
 - func[1302] <_ZN9SdlWindow12setMouseRectERKN6Common4RectE> -> "_ZN9SdlWindow12setMouseRectERKN6Common4RectE"
 - func[16394] <SDL_GetWindowSize> -> "SDL_GetWindowSize"
 - func[16444] <SDL_GL_GetDrawableSize> -> "SDL_GL_GetDrawableSize"
 - func[1303] <_ZNK9SdlWindow22getSdlDpiScalingFactorEv> -> "_ZNK9SdlWindow22getSdlDpiScalingFactorEv"
 - func[1304] <_ZN9SdlWindow9lockMouseEb> -> "_ZN9SdlWindow9lockMouseEb"
 - func[15748] <SDL_SetRelativeMouseMode> -> "SDL_SetRelativeMouseMode"
 - func[1305] <_ZNK9SdlWindow13hasMouseFocusEv> -> "_ZNK9SdlWindow13hasMouseFocusEv"
 - func[16382] <SDL_GetWindowFlags> -> "SDL_GetWindowFlags"
 - func[1306] <_ZN9SdlWindow17warpMouseInWindowEii> -> "_ZN9SdlWindow17warpMouseInWindowEii"
 - func[15756] <SDL_WarpMouseInWindow> -> "SDL_WarpMouseInWindow"
 - func[1307] <_ZN9SdlWindow13iconifyWindowEv> -> "_ZN9SdlWindow13iconifyWindowEv"
 - func[16373] <SDL_MinimizeWindow> -> "SDL_MinimizeWindow"
 - func[1308] <_ZNK9SdlWindow19getSDLWMInformationEP13SDL_SysWMinfo> -> "_ZNK9SdlWindow19getSDLWMInformationEP13SDL_SysWMinfo"
 - func[16449] <SDL_GetWindowWMInfo> -> "SDL_GetWindowWMInfo"
 - func[1309] <_ZN9SdlWindow20getDesktopResolutionEv> -> "_ZN9SdlWindow20getDesktopResolutionEv"
 - func[16355] <SDL_GetWindowDisplayIndex> -> "SDL_GetWindowDisplayIndex"
 - func[16347] <SDL_GetDesktopDisplayMode> -> "SDL_GetDesktopDisplayMode"
 - func[1310] <_ZNK9SdlWindow15getDisplayIndexEv> -> "_ZNK9SdlWindow15getDisplayIndexEv"
 - func[1311] <_ZNK9SdlWindow13getDisplayDpiEPfS0_> -> "_ZNK9SdlWindow13getDisplayDpiEPfS0_"
 - func[16339] <SDL_GetDisplayDPI> -> "SDL_GetDisplayDPI"
 - func[1312] <_ZNK9SdlWindow19getDpiScalingFactorEv> -> "_ZNK9SdlWindow19getDpiScalingFactorEv"
 - func[1313] <_Z14copySDLSurfaceP11SDL_Surface> -> "_Z14copySDLSurfaceP11SDL_Surface"
 - func[16184] <SDL_LockSurface> -> "SDL_LockSurface"
 - func[16185] <SDL_UnlockSurface> -> "SDL_UnlockSurface"
 - func[1314] <_ZN9SdlWindow20createOrUpdateWindowEiij> -> "_ZN9SdlWindow20createOrUpdateWindowEiij"
 - func[16395] <SDL_GetWindowBordersSize> -> "SDL_GetWindowBordersSize"
 - func[16357] <SDL_SetWindowDisplayMode> -> "SDL_SetWindowDisplayMode"
 - func[16392] <SDL_SetWindowSize> -> "SDL_SetWindowSize"
 - func[16370] <SDL_SetWindowFullscreen> -> "SDL_SetWindowFullscreen"
 - global[4152] -> "_ZTI9SdlWindow"
 - global[4153] -> "_ZTS9SdlWindow"
 - func[1315] <_ZN13OSystem_POSIX4initEv> -> "_ZN13OSystem_POSIX4initEv"
 - global[4154] -> "_ZTV22POSIXFilesystemFactory"
 - func[1316] <_ZTv0_n16_N13OSystem_POSIX4initEv> -> "_ZTv0_n16_N13OSystem_POSIX4initEv"
 - func[1317] <_ZN13OSystem_POSIX11initBackendEv> -> "_ZN13OSystem_POSIX11initBackendEv"
 - func[4372] <_ZN20POSIXSaveFileManagerC2Ev> -> "_ZN20POSIXSaveFileManagerC1Ev"
 - func[1318] <_ZTv0_n20_N13OSystem_POSIX11initBackendEv> -> "_ZTv0_n20_N13OSystem_POSIX11initBackendEv"
 - func[1319] <_ZN13OSystem_POSIX10hasFeatureEN7OSystem7FeatureE> -> "_ZN13OSystem_POSIX10hasFeatureEN7OSystem7FeatureE"
 - func[1320] <_ZThn8_N13OSystem_POSIX10hasFeatureEN7OSystem7FeatureE> -> "_ZThn8_N13OSystem_POSIX10hasFeatureEN7OSystem7FeatureE"
 - func[1321] <_ZTv0_n32_N13OSystem_POSIX10hasFeatureEN7OSystem7FeatureE> -> "_ZTv0_n32_N13OSystem_POSIX10hasFeatureEN7OSystem7FeatureE"
 - func[1322] <_ZN13OSystem_POSIX24getDefaultConfigFileNameEv> -> "_ZN13OSystem_POSIX24getDefaultConfigFileNameEv"
 - func[18865] <getenv> -> "getenv"
 - func[19664] <stat64> -> "stat"
 - func[11608] <_ZN6Common10BaseStringIcEC1EOS1_> -> "_ZN6Common10BaseStringIcEC2EOS1_"
 - func[4301] <_ZN5Posix21assureDirectoryExistsERKN6Common6StringEPKc> -> "_ZN5Posix21assureDirectoryExistsERKN6Common6StringEPKc"
 - func[1323] <_ZTv0_n332_N13OSystem_POSIX24getDefaultConfigFileNameEv> -> "_ZTv0_n332_N13OSystem_POSIX24getDefaultConfigFileNameEv"
 - func[1324] <_ZN13OSystem_POSIX13getXdgUserDirEPKc> -> "_ZN13OSystem_POSIX13getXdgUserDirEPKc"
 - func[11965] <_ZNK6Common6FSNode10isReadableEv> -> "_ZNK6Common6FSNode10isReadableEv"
 - func[11662] <_ZN6Common10BaseStringIcE4trimEv> -> "_ZN6Common10BaseStringIcE4trimEv"
 - func[12207] <_ZNK6Common6String9hasPrefixERKS0_> -> "_ZNK6Common6String9hasPrefixERKS0_"
 - func[1325] <_ZNK6Common10BaseStringIcEixEi> -> "_ZNK6Common10BaseStringIcEixEi"
 - func[12208] <_ZNK6Common6String9hasPrefixEPKc> -> "_ZNK6Common6String9hasPrefixEPKc"
 - func[1326] <_ZN13OSystem_POSIX19getDefaultIconsPathEv> -> "_ZN13OSystem_POSIX19getDefaultIconsPathEv"
 - func[1327] <_ZN13OSystem_POSIX18getScreenshotsPathEv> -> "_ZN13OSystem_POSIX18getScreenshotsPathEv"
 - func[1328] <_ZN13OSystem_POSIX25addSysArchivesToSearchSetERN6Common9SearchSetEi> -> "_ZN13OSystem_POSIX25addSysArchivesToSearchSetERN6Common9SearchSetEi"
 - func[1329] <_ZTv0_n320_N13OSystem_POSIX25addSysArchivesToSearchSetERN6Common9SearchSetEi> -> "_ZTv0_n320_N13OSystem_POSIX25addSysArchivesToSearchSetERN6Common9SearchSetEi"
 - func[1330] <_ZN13OSystem_POSIX21getDefaultLogFileNameEv> -> "_ZN13OSystem_POSIX21getDefaultLogFileNameEv"
 - func[1331] <_ZN13OSystem_POSIX14displayLogFileEv> -> "_ZN13OSystem_POSIX14displayLogFileEv"
 - func[18144] <fork> -> "fork"
 - func[19882] <waitpid> -> "waitpid"
 - func[18644] <execlp> -> "execlp"
 - func[1332] <_ZTv0_n356_N13OSystem_POSIX14displayLogFileEv> -> "_ZTv0_n356_N13OSystem_POSIX14displayLogFileEv"
 - func[1333] <_ZN13OSystem_POSIX20createAudioCDManagerEv> -> "_ZN13OSystem_POSIX20createAudioCDManagerEv"
 - func[1334] <_ZN13OSystem_POSIXD1Ev> -> "_ZN13OSystem_POSIXD1Ev"
 - global[4155] -> "_ZTT13OSystem_POSIX"
 - func[1335] <_ZN13OSystem_POSIXD0Ev> -> "_ZN13OSystem_POSIXD0Ev"
 - func[1336] <_ZThn8_N13OSystem_POSIXD1Ev> -> "_ZThn8_N13OSystem_POSIXD1Ev"
 - func[1337] <_ZThn8_N13OSystem_POSIXD0Ev> -> "_ZThn8_N13OSystem_POSIXD0Ev"
 - func[1338] <_ZTv0_n12_N13OSystem_POSIXD1Ev> -> "_ZTv0_n12_N13OSystem_POSIXD1Ev"
 - func[1339] <_ZTv0_n12_N13OSystem_POSIXD0Ev> -> "_ZTv0_n12_N13OSystem_POSIXD0Ev"
 - global[4156] -> "_ZTV13OSystem_POSIX"
 - global[4157] -> "_ZTI13OSystem_POSIX"
 - global[4158] -> "_ZTC13OSystem_POSIX0_11OSystem_SDL"
 - global[4159] -> "_ZTC13OSystem_POSIX0_19ModularMixerBackend"
 - global[4160] -> "_ZTC13OSystem_POSIX8_22ModularGraphicsBackend"
 - global[4161] -> "_ZTS13OSystem_POSIX"
 - func[1340] <__main_argc_argv> -> "__main_argc_argv"
 - global[4162] -> "_ZTT18OSystem_Emscripten"
 - global[4163] -> "_ZTV18OSystem_Emscripten"
 - global[4164] -> "_ZTV17SDLPluginProvider"
 - func[1421] <_ZN13PluginManager17addPluginProviderEP14PluginProvider> -> "_ZN13PluginManager17addPluginProviderEP14PluginProvider"
 - func[1357] <scummvm_main> -> "scummvm_main"
 - func[1341] <_ZN18OSystem_Emscripten10hasFeatureEN7OSystem7FeatureE> -> "_ZN18OSystem_Emscripten10hasFeatureEN7OSystem7FeatureE"
 - func[1342] <_ZThn8_N18OSystem_Emscripten10hasFeatureEN7OSystem7FeatureE> -> "_ZThn8_N18OSystem_Emscripten10hasFeatureEN7OSystem7FeatureE"
 - func[1343] <_ZTv0_n32_N18OSystem_Emscripten10hasFeatureEN7OSystem7FeatureE> -> "_ZTv0_n32_N18OSystem_Emscripten10hasFeatureEN7OSystem7FeatureE"
 - func[1344] <_ZN18OSystem_Emscripten15getFeatureStateEN7OSystem7FeatureE> -> "_ZN18OSystem_Emscripten15getFeatureStateEN7OSystem7FeatureE"
 - func[1345] <_ZThn8_N18OSystem_Emscripten15getFeatureStateEN7OSystem7FeatureE> -> "_ZThn8_N18OSystem_Emscripten15getFeatureStateEN7OSystem7FeatureE"
 - func[1346] <_ZTv0_n40_N18OSystem_Emscripten15getFeatureStateEN7OSystem7FeatureE> -> "_ZTv0_n40_N18OSystem_Emscripten15getFeatureStateEN7OSystem7FeatureE"
 - func[1347] <_ZN18OSystem_Emscripten15setFeatureStateEN7OSystem7FeatureEb> -> "_ZN18OSystem_Emscripten15setFeatureStateEN7OSystem7FeatureEb"
 - func[1348] <_ZThn8_N18OSystem_Emscripten15setFeatureStateEN7OSystem7FeatureEb> -> "_ZThn8_N18OSystem_Emscripten15setFeatureStateEN7OSystem7FeatureEb"
 - func[1349] <_ZTv0_n36_N18OSystem_Emscripten15setFeatureStateEN7OSystem7FeatureEb> -> "_ZTv0_n36_N18OSystem_Emscripten15setFeatureStateEN7OSystem7FeatureEb"
 - func[1350] <_ZN18OSystem_EmscriptenD1Ev> -> "_ZN18OSystem_EmscriptenD1Ev"
 - func[1351] <_ZN18OSystem_EmscriptenD0Ev> -> "_ZN18OSystem_EmscriptenD0Ev"
 - func[1352] <_ZThn8_N18OSystem_EmscriptenD1Ev> -> "_ZThn8_N18OSystem_EmscriptenD1Ev"
 - func[1353] <_ZThn8_N18OSystem_EmscriptenD0Ev> -> "_ZThn8_N18OSystem_EmscriptenD0Ev"
 - func[1354] <_ZTv0_n12_N18OSystem_EmscriptenD1Ev> -> "_ZTv0_n12_N18OSystem_EmscriptenD1Ev"
 - func[1355] <_ZTv0_n12_N18OSystem_EmscriptenD0Ev> -> "_ZTv0_n12_N18OSystem_EmscriptenD0Ev"
 - global[4165] -> "__em_js__isFullscreen"
 - global[4166] -> "__em_js__toggleFullscreen"
 - global[4167] -> "_ZTI18OSystem_Emscripten"
 - global[4168] -> "_ZTC18OSystem_Emscripten0_13OSystem_POSIX"
 - global[4169] -> "_ZTC18OSystem_Emscripten0_11OSystem_SDL"
 - global[4170] -> "_ZTC18OSystem_Emscripten0_19ModularMixerBackend"
 - global[4171] -> "_ZTC18OSystem_Emscripten8_22ModularGraphicsBackend"
 - global[4172] -> "_ZTS18OSystem_Emscripten"
 - func[1356] <_Z22saveLastLaunchedTargetRKN6Common6StringE> -> "_Z22saveLastLaunchedTargetRKN6Common6StringE"
 - func[11808] <_ZNK6Common13ConfigManager13hasGameDomainERKNS_6StringE> -> "_ZNK6Common13ConfigManager13hasGameDomainERKNS_6StringE"
 - global[4173] -> "_ZN6Common13ConfigManager18kApplicationDomainE"
 - func[11793] <_ZN6Common13ConfigManager3setERKNS_6StringES3_S3_> -> "_ZN6Common13ConfigManager3setERKNS_6StringES3_S3_"
 - func[11771] <_ZN6Common13ConfigManager11flushToDiskEv> -> "_ZN6Common13ConfigManager11flushToDiskEv"
 - func[1365] <_ZN4Base16registerDefaultsEv> -> "_ZN4Base16registerDefaultsEv"
 - func[1368] <_ZN4Base16parseCommandLineERN6Common7HashMapINS0_6StringES2_NS0_15IgnoreCase_HashENS0_18IgnoreCase_EqualToEEEiPKPKc> -> "_ZN4Base16parseCommandLineERN6Common7HashMapINS0_6StringES2_NS0_15IgnoreCase_HashENS0_18IgnoreCase_EqualToEEEiPKPKc"
 - func[11774] <_ZN6Common13ConfigManager14loadConfigFileERKNS_6StringE> -> "_ZN6Common13ConfigManager14loadConfigFileERKNS_6StringE"
 - func[11769] <_ZN6Common13ConfigManager21loadDefaultConfigFileEv> -> "_ZN6Common13ConfigManager21loadDefaultConfigFileEv"
 - global[4174] -> "gScummVMVersion"
 - global[4175] -> "gDebugLevel"
 - func[19726] <__strtol_internal> -> "strtol"
 - func[19386] <iprintf> -> "iprintf"
 - func[1358] <_ZN6Common7HashMapINS_6StringES1_NS_15IgnoreCase_HashENS_18IgnoreCase_EqualToEE5eraseERKS1_> -> "_ZN6Common7HashMapINS_6StringES1_NS_15IgnoreCase_HashENS_18IgnoreCase_EqualToEE5eraseERKS1_"
 - func[11789] <_ZNK6Common13ConfigManager6getIntERKNS_6StringES3_> -> "_ZNK6Common13ConfigManager6getIntERKNS_6StringES3_"
 - global[4176] -> "gDebugChannelsOnly"
 - func[12450] <_ZN6Common15StringTokenizerC2ERKNS_6StringES3_> -> "_ZN6Common15StringTokenizerC1ERKNS_6StringES3_"
 - func[12452] <_ZNK6Common15StringTokenizer5emptyEv> -> "_ZNK6Common15StringTokenizer5emptyEv"
 - func[12453] <_ZN6Common15StringTokenizer9nextTokenEv> -> "_ZN6Common15StringTokenizer9nextTokenEv"
 - global[4177] -> "_ZN6Common9SingletonINS_12DebugManagerEE10_singletonE"
 - func[11847] <_ZN6Common12DebugManagerC2Ev> -> "_ZN6Common12DebugManagerC1Ev"
 - func[11861] <_ZN6Common12DebugManager22enableAllDebugChannelsEv> -> "_ZN6Common12DebugManager22enableAllDebugChannelsEv"
 - func[11855] <_ZN6Common12DebugManager18enableDebugChannelERKNS_6StringE> -> "_ZN6Common12DebugManager18enableDebugChannelERKNS_6StringE"
 - func[9293] <_ZN10MidiDriver15getDeviceHandleERKN6Common6StringE> -> "_ZN10MidiDriver15getDeviceHandleERKN6Common6StringE"
 - func[9290] <_ZN10MidiDriver12getMusicTypeEj> -> "_ZN10MidiDriver12getMusicTypeEj"
 - func[11878] <_ZN6Common5ErrorC2ENS_9ErrorCodeE> -> "_ZN6Common5ErrorC1ENS_9ErrorCodeE"
 - func[1375] <_ZN4Base15processSettingsERN6Common6StringERNS0_7HashMapIS1_S1_NS0_15IgnoreCase_HashENS0_18IgnoreCase_EqualToEEERNS0_5ErrorE> -> "_ZN4Base15processSettingsERN6Common6StringERNS0_7HashMapIS1_S1_NS0_15IgnoreCase_HashENS0_18IgnoreCase_EqualToEEERNS0_5ErrorE"
 - func[1423] <_ZN13PluginManager16unloadAllPluginsEv> -> "_ZN13PluginManager16unloadAllPluginsEv"
 - global[4178] -> "_ZN13PluginManager9_instanceE"
 - func[11794] <_ZN6Common13ConfigManager6setIntERKNS_6StringEiS3_> -> "_ZN6Common13ConfigManager6setIntERKNS_6StringEiS3_"
 - global[4179] -> "_ZN6Common13ConfigManager16kTransientDomainE"
 - global[4180] -> "_ZN6Common9SingletonI12MusicManagerE10_singletonE"
 - global[4181] -> "_ZTV12MusicManager"
 - global[4182] -> "_ZN6Common9SingletonINS_15OSDMessageQueueEE10_singletonE"
 - func[12086] <_ZN6Common15OSDMessageQueueC2Ev> -> "_ZN6Common15OSDMessageQueueC1Ev"
 - func[12091] <_ZN6Common15OSDMessageQueue19registerEventSourceEv> -> "_ZN6Common15OSDMessageQueue19registerEventSourceEv"
 - func[1454] <_ZNK13EngineManager24upgradeTargetIfNecessaryERKN6Common6StringE> -> "_ZNK13EngineManager24upgradeTargetIfNecessaryERKN6Common6StringE"
 - func[11853] <_ZN6Common12DebugManager19addAllDebugChannelsEPK15DebugChannelDef> -> "_ZN6Common12DebugManager19addAllDebugChannelsEPK15DebugChannelDef"
 - func[1430] <_ZN13PluginManager19unloadPluginsExceptE10PluginTypePK6Pluginb> -> "_ZN13PluginManager19unloadPluginsExceptE10PluginTypePK6Pluginb"
 - func[12427] <_ZN6Common19TextToSpeechManager9pushStateEv> -> "_ZN6Common19TextToSpeechManager9pushStateEv"
 - func[12428] <_ZN6Common19TextToSpeechManager8popStateEv> -> "_ZN6Common19TextToSpeechManager8popStateEv"
 - func[11763] <_ZN6Common13ConfigManager10defragmentEv> -> "_ZN6Common13ConfigManager10defragmentEv"
 - func[1941] <_ZN3GUI18displayErrorDialogERKN6Common5ErrorERKNS0_9U32StringE> -> "_ZN3GUI18displayErrorDialogERKN6Common5ErrorERKNS0_9U32StringE"
 - func[11800] <_ZN6Common13ConfigManager15setActiveDomainERKNS_6StringE> -> "_ZN6Common13ConfigManager15setActiveDomainERKNS_6StringE"
 - global[4183] -> "_ZN6Common9SingletonI19ChainedGamesManagerE10_singletonE"
 - func[1630] <_ZN19ChainedGamesManagerC2Ev> -> "_ZN19ChainedGamesManagerC1Ev"
 - func[1633] <_ZN19ChainedGamesManager3popERN6Common6StringERi> -> "_ZN19ChainedGamesManager3popERN6Common6StringERi"
 - func[11783] <_ZN6Common13ConfigManager9getDomainERKNS_6StringE> -> "_ZN6Common13ConfigManager9getDomainERKNS_6StringE"
 - global[4184] -> "_ZN6Common9SingletonIN3GUI10GuiManagerEE10_singletonE"
 - global[4185] -> "_ZN6Common9SingletonIN8Graphics11FontManagerEE10_singletonE"
 - func[5881] <_ZN8Graphics11shutdownTTFEv> -> "_ZN8Graphics11shutdownTTFEv"
 - global[4186] -> "_ZN6Common9SingletonIN8Graphics15YUVToRGBManagerEE10_singletonE"
 - func[12405] <_ZN7OSystem15setGraphicsModeEPKc> -> "_ZN7OSystem15setGraphicsModeEPKc"
 - func[12406] <_ZN7OSystem14setStretchModeEPKc> -> "_ZN7OSystem14setStretchModeEPKc"
 - global[4187] -> "gScummVMFullVersion"
 - func[12494] <_ZN6Common9U32StringC2EPKcNS_8CodePageE> -> "_ZN6Common9U32StringC1EPKcNS_8CodePageE"
 - func[3311] <_ZN6Common9Keymapper5clearEv> -> "_ZN6Common9Keymapper5clearEv"
 - func[3314] <_ZN6Common9Keymapper24registerHardwareInputSetEPNS_16HardwareInputSetEPNS_24KeymapperDefaultBindingsE> -> "_ZN6Common9Keymapper24registerHardwareInputSetEPNS_16HardwareInputSetEPNS_24KeymapperDefaultBindingsE"
 - func[3316] <_ZN6Common9Keymapper15addGlobalKeymapEPNS_6KeymapE> -> "_ZN6Common9Keymapper15addGlobalKeymapEPNS_6KeymapE"
 - func[2015] <_ZN3GUI15LauncherChooserC2Ev> -> "_ZN3GUI15LauncherChooserC1Ev"
 - func[2019] <_ZN3GUI15LauncherChooser14selectLauncherEv> -> "_ZN3GUI15LauncherChooser14selectLauncherEv"
 - func[2020] <_ZN3GUI15LauncherChooser8runModalEv> -> "_ZN3GUI15LauncherChooser8runModalEv"
 - func[2017] <_ZN3GUI15LauncherChooserD2Ev> -> "_ZN3GUI15LauncherChooserD1Ev"
 - global[4188] -> "_ZTI10MetaEngine"
 - func[11803] <_ZN6Common13ConfigManager16removeGameDomainERKNS_6StringE> -> "_ZN6Common13ConfigManager16removeGameDomainERKNS_6StringE"
 - func[11854] <_ZN6Common12DebugManager22removeAllDebugChannelsEv> -> "_ZN6Common12DebugManager22removeAllDebugChannelsEv"
 - func[11785] <_ZNK6Common13ConfigManager6hasKeyERKNS_6StringES3_> -> "_ZNK6Common13ConfigManager6hasKeyERKNS_6StringES3_"
 - func[11575] <_ZNK6Common9SearchSet10hasArchiveERKNS_6StringE> -> "_ZNK6Common9SearchSet10hasArchiveERKNS_6StringE"
 - func[12470] <_ZNK6Common18TranslationManager18getCurrentLanguageEv> -> "_ZNK6Common18TranslationManager18getCurrentLanguageEv"
 - func[12461] <_ZN6Common18TranslationManager11setLanguageERKNS_6StringE> -> "_ZN6Common18TranslationManager11setLanguageERKNS_6StringE"
 - func[3318] <_ZN6Common9Keymapper13addGameKeymapEPNS_6KeymapE> -> "_ZN6Common9Keymapper13addGameKeymapEPNS_6KeymapE"
 - func[11795] <_ZN6Common13ConfigManager7setBoolERKNS_6StringEbS3_> -> "_ZN6Common13ConfigManager7setBoolERKNS_6StringEbS3_"
 - func[3320] <_ZN6Common9Keymapper18cleanupGameKeymapsEv> -> "_ZN6Common9Keymapper18cleanupGameKeymapsEv"
 - func[1363] <_ZN6Common9SingletonI12MusicManagerED2Ev> -> "_ZN6Common9SingletonI12MusicManagerED2Ev"
 - func[1364] <_ZN12MusicManagerD0Ev> -> "_ZN12MusicManagerD0Ev"
 - global[4189] -> "_ZTI12MusicManager"
 - global[4190] -> "_ZTS12MusicManager"
 - global[4191] -> "_ZTSN6Common9SingletonI12MusicManagerEE"
 - global[4192] -> "_ZTIN6Common9SingletonI12MusicManagerEE"
 - func[11797] <_ZN6Common13ConfigManager15registerDefaultERKNS_6StringEPKc> -> "_ZN6Common13ConfigManager15registerDefaultERKNS_6StringEPKc"
 - func[1366] <_ZN6Common9SingletonINS_13ConfigManagerEE8instanceEv> -> "_ZN6Common9SingletonINS_13ConfigManagerEE8instanceEv"
 - func[1367] <_ZN6Common6StringC2EPKc> -> "_ZN6Common6StringC2EPKc"
 - func[19794] <tolower> -> "tolower"
 - func[1370] <_ZN6Common7HashMapINS_6StringES1_NS_15IgnoreCase_HashENS_18IgnoreCase_EqualToEEixERKS1_> -> "_ZN6Common7HashMapINS_6StringES1_NS_15IgnoreCase_HashENS_18IgnoreCase_EqualToEEixERKS1_"
 - func[11966] <_ZNK6Common6FSNode10isWritableEv> -> "_ZNK6Common6FSNode10isWritableEv"
 - func[1371] <_ZN6Common6FSNodeD2Ev> -> "_ZN6Common6FSNodeD2Ev"
 - func[12528] <_ZN6Common7isLowerEi> -> "_ZN6Common7isLowerEi"
 - func[12193] <_ZN6Common15parseRenderModeERKNS_6StringE> -> "_ZN6Common15parseRenderModeERKNS_6StringE"
 - func[6619] <_ZN8Graphics8Renderer13parseTypeCodeERKN6Common6StringE> -> "_ZN8Graphics8Renderer13parseTypeCodeERKN6Common6StringE"
 - func[19866] <vsnprintf> -> "vsnprintf"
 - func[1372] <_ZN4Base14upgradeTargetsEv> -> "_ZN4Base14upgradeTargetsEv"
 - func[19447] <puts> -> "puts"
 - func[1373] <_ZNK6Common7HashMapINS_6StringENS_13ConfigManager6DomainENS_15IgnoreCase_HashENS_18IgnoreCase_EqualToEE12IteratorImplINS6_4NodeEE5derefEv> -> "_ZNK6Common7HashMapINS_6StringENS_13ConfigManager6DomainENS_15IgnoreCase_HashENS_18IgnoreCase_EqualToEE12IteratorImplINS6_4NodeEE5derefEv"
 - func[1374] <_ZN6Common7HashMapINS_6StringES1_NS_15IgnoreCase_HashENS_18IgnoreCase_EqualToEE6getValERKS1_> -> "_ZN6Common7HashMapINS_6StringES1_NS_15IgnoreCase_HashENS_18IgnoreCase_EqualToEE6getValERKS1_"
 - func[1445] <_ZN13EngineManager11detectGamesERKN6Common6FSListEjb> -> "_ZN13EngineManager11detectGamesERKN6Common6FSListEjb"
 - func[1716] <_ZNK16DetectionResults19listRecognizedGamesEv> -> "_ZNK16DetectionResults19listRecognizedGamesEv"
 - func[12123] <_ZN6Common15getPlatformCodeENS_8PlatformE> -> "_ZN6Common15getPlatformCodeENS_8PlatformE"
 - func[1377] <_ZN6Common5ArrayINS_6StringEE7reserveEj> -> "_ZN6Common5ArrayINS_6StringEE7reserveEj"
 - func[1378] <_ZNK6Common7HashMapINS_6StringENS_13ConfigManager6DomainENS_15IgnoreCase_HashENS_18IgnoreCase_EqualToEE12IteratorImplIKNS6_4NodeEE5derefEv> -> "_ZNK6Common7HashMapINS_6StringENS_13ConfigManager6DomainENS_15IgnoreCase_HashENS_18IgnoreCase_EqualToEE12IteratorImplIKNS6_4NodeEE5derefEv"
 - func[1453] <_ZNK13EngineManager10findTargetERKN6Common6StringEPPK6Plugin> -> "_ZNK13EngineManager10findTargetERKN6Common6StringEPPK6Plugin"
 - func[1379] <_ZN6Common4sortIPNS_6StringENS_4LessIS1_EEEEvT_S5_T0_> -> "_ZN6Common4sortIPNS_6StringENS_4LessIS1_EEEEvT_S5_T0_"
 - func[1444] <_ZNK13EngineManager10getPluginsE10PluginType> -> "_ZNK13EngineManager10getPluginsE10PluginType"
 - global[4193] -> "gDebugChannels"
 - global[4194] -> "gScummVMFeatures"
 - func[12017] <_ZN6Common15getLanguageListEv> -> "_ZN6Common15getLanguageListEv"
 - func[1385] <_ZN6Common4ListINS_6StringEE9pop_frontEv> -> "_ZN6Common4ListINS_6StringEE9pop_frontEv"
 - func[1388] <_ZNK6Common7HashMapINS_6StringES1_NS_15IgnoreCase_HashENS_18IgnoreCase_EqualToEE15getValOrDefaultERKS1_S6_> -> "_ZNK6Common7HashMapINS_6StringES1_NS_15IgnoreCase_HashENS_18IgnoreCase_EqualToEE15getValOrDefaultERKS1_S6_"
 - func[1389] <_ZNK6Common7HashMapINS_6StringES1_NS_15IgnoreCase_HashENS_18IgnoreCase_EqualToEE8containsERKS1_> -> "_ZNK6Common7HashMapINS_6StringES1_NS_15IgnoreCase_HashENS_18IgnoreCase_EqualToEE8containsERKS1_"
 - func[1390] <_ZNK6Plugin3getI19MetaEngineDetectionEERT_v> -> "_ZNK6Plugin3getI19MetaEngineDetectionEERT_v"
 - func[1394] <_ZN23QualifiedGameDescriptoraSEOS_> -> "_ZN23QualifiedGameDescriptoraSEOS_"
 - func[1395] <_ZN23QualifiedGameDescriptorD2Ev> -> "_ZN23QualifiedGameDescriptorD2Ev"
 - global[4195] -> "_ZN6Common13ConfigManager14kSessionDomainE"
 - func[1397] <_ZNK6Common7HashMapINS_6StringES1_NS_15IgnoreCase_HashENS_18IgnoreCase_EqualToEE12IteratorImplIKNS4_4NodeEE5derefEv> -> "_ZNK6Common7HashMapINS_6StringES1_NS_15IgnoreCase_HashENS_18IgnoreCase_EqualToEE12IteratorImplIKNS4_4NodeEE5derefEv"
 - func[1398] <_ZN6Common7HashMapINS_6StringES1_NS_15IgnoreCase_HashENS_18IgnoreCase_EqualToEE12IteratorImplIKNS4_4NodeEEppEv> -> "_ZN6Common7HashMapINS_6StringES1_NS_15IgnoreCase_HashENS_18IgnoreCase_EqualToEE12IteratorImplIKNS4_4NodeEEppEv"
 - func[12126] <_ZN6Common15getPlatformListEv> -> "_ZN6Common15getPlatformListEv"
 - func[1399] <_ZN6Common4ListINS_6StringEED2Ev> -> "_ZN6Common4ListINS_6StringEED2Ev"
 - func[1440] <_ZNK13EngineManager17findGamesMatchingERKN6Common6StringES3_> -> "_ZNK13EngineManager17findGamesMatchingERKN6Common6StringES3_"
 - func[11880] <_ZN6Common5ErrorC2ENS_9ErrorCodeERKNS_6StringE> -> "_ZN6Common5ErrorC1ENS_9ErrorCodeERKNS_6StringE"
 - func[19438] <putchar> -> "putchar"
 - func[1400] <_ZN6Common5ArrayI19SaveStateDescriptorE11freeStorageEPS1_j> -> "_ZN6Common5ArrayI19SaveStateDescriptorE11freeStorageEPS1_j"
 - func[2293] <_ZN3GUI11ThemeEngine16listUsableThemesERN6Common4ListINS0_15ThemeDescriptorEEE> -> "_ZN3GUI11ThemeEngine16listUsableThemesERN6Common4ListINS0_15ThemeDescriptorEEE"
 - func[1456] <_ZNK12MusicManager10getPluginsEv> -> "_ZNK12MusicManager10getPluginsEv"
 - global[4196] -> "_ZTI17MusicPluginObject"
 - func[9663] <_ZN11MusicDevice13getCompleteIdEv> -> "_ZN11MusicDevice13getCompleteIdEv"
 - func[9662] <_ZN11MusicDevice15getCompleteNameEv> -> "_ZN11MusicDevice15getCompleteNameEv"
 - global[4197] -> "_ZTVN6Common9SearchSetE"
 - func[12102] <_ZNK6Common4Path9getParentEv> -> "_ZNK6Common4Path9getParentEv"
 - func[12103] <_ZNK6Common4Path16getLastComponentEv> -> "_ZNK6Common4Path16getLastComponentEv"
 - func[12028] <_ZN6Common13MacResManagerC2Ev> -> "_ZN6Common13MacResManagerC1Ev"
 - func[12035] <_ZN6Common13MacResManager4openERKNS_4PathERNS_7ArchiveE> -> "_ZN6Common13MacResManager4openERKNS_4PathERNS_7ArchiveE"
 - func[12044] <_ZN6Common13MacResManager18openFileOrDataForkERKNS_4PathERNS_7ArchiveE> -> "_ZN6Common13MacResManager18openFileOrDataForkERKNS_4PathERNS_7ArchiveE"
 - func[12031] <_ZNK6Common13MacResManager10hasResForkEv> -> "_ZNK6Common13MacResManager10hasResForkEv"
 - func[12097] <_ZN6Common4PathC2ERKS0_> -> "_ZN6Common4PathC1ERKS0_"
 - func[12033] <_ZNK6Common13MacResManager25computeResForkMD5AsStringEjb> -> "_ZNK6Common13MacResManager25computeResForkMD5AsStringEjb"
 - func[12032] <_ZNK6Common13MacResManager18getResForkDataSizeEv> -> "_ZNK6Common13MacResManager18getResForkDataSizeEv"
 - func[12030] <_ZN6Common13MacResManager5closeEv> -> "_ZN6Common13MacResManager5closeEv"
 - func[12029] <_ZN6Common13MacResManagerD2Ev> -> "_ZN6Common13MacResManagerD1Ev"
 - func[1403] <_ZNK6Common7HashMapINS_6StringES1_NS_15IgnoreCase_HashENS_18IgnoreCase_EqualToEE6getValERKS1_> -> "_ZNK6Common7HashMapINS_6StringES1_NS_15IgnoreCase_HashENS_18IgnoreCase_EqualToEE6getValERKS1_"
 - func[1449] <_ZN13EngineManager20generateUniqueDomainEN6Common6StringE> -> "_ZN13EngineManager20generateUniqueDomainEN6Common6StringE"
 - func[11801] <_ZN6Common13ConfigManager13addGameDomainERKNS_6StringE> -> "_ZN6Common13ConfigManager13addGameDomainERKNS_6StringE"
 - func[1404] <_ZN6Common13sortPartitionIPNS_6StringENS_4LessIS1_EEEET_S5_S5_S5_RT0_> -> "_ZN6Common13sortPartitionIPNS_6StringENS_4LessIS1_EEEET_S5_S5_S5_RT0_"
 - func[11619] <_ZNK6Common10BaseStringIcEltERKS1_> -> "_ZNK6Common10BaseStringIcEltERKS1_"
 - func[1715] <_ZNK16DetectionResults17foundUnknownGamesEv> -> "_ZNK16DetectionResults17foundUnknownGamesEv"
 - func[1718] <_ZNK16DetectionResults25generateUnknownGameReportEbj> -> "_ZNK16DetectionResults25generateUnknownGameReportEbj"
 - func[11617] <_ZNK6Common10BaseStringIcEneERKS1_> -> "_ZNK6Common10BaseStringIcEneERKS1_"
 - func[1450] <_ZN13EngineManager19createTargetForGameERK12DetectedGame> -> "_ZN13EngineManager19createTargetForGameERK12DetectedGame"
 - global[4198] -> "_ZTS17MusicPluginObject"
 - func[1406] <_ZNK6Plugin7getTypeEv> -> "_ZNK6Plugin7getTypeEv"
 - func[1408] <_ZN12StaticPluginC1EP12PluginObject10PluginType> -> "_ZN12StaticPluginC2EP12PluginObject10PluginType"
 - global[4199] -> "_ZTV12StaticPlugin"
 - func[1409] <_ZN12StaticPluginD1Ev> -> "_ZN12StaticPluginD2Ev"
 - func[1410] <_ZN12StaticPluginD0Ev> -> "_ZN12StaticPluginD0Ev"
 - func[1409] <_ZN12StaticPluginD1Ev> -> "_ZN12StaticPluginD1Ev"
 - func[1411] <_ZN12StaticPlugin10loadPluginEv> -> "_ZN12StaticPlugin10loadPluginEv"
 - func[1412] <_ZN12StaticPlugin12unloadPluginEv> -> "_ZN12StaticPlugin12unloadPluginEv"
 - func[1413] <_ZN18FilePluginProvider10getPluginsEv> -> "_ZN18FilePluginProvider10getPluginsEv"
 - func[1414] <_ZN6Common5ArrayINS_6FSNodeEE10insert_auxEPS1_PKS1_S5_> -> "_ZN6Common5ArrayINS_6FSNodeEE10insert_auxEPS1_PKS1_S5_"
 - func[1415] <_ZN6Common5ArrayIP6PluginE10insert_auxEPS2_PKS2_S6_> -> "_ZN6Common5ArrayIP6PluginE10insert_auxEPS2_PKS2_S6_"
 - func[1416] <_ZNK18FilePluginProvider16isPluginFilenameERKN6Common6FSNodeE> -> "_ZNK18FilePluginProvider16isPluginFilenameERKN6Common6FSNodeE"
 - func[1417] <_ZNK18FilePluginProvider20addCustomDirectoriesERN6Common6FSListE> -> "_ZNK18FilePluginProvider20addCustomDirectoriesERN6Common6FSListE"
 - global[4200] -> "_ZTV13PluginManager"
 - global[4201] -> "_ZTV20StaticPluginProvider"
 - func[1419] <_ZN6Common5ArrayIP14PluginProviderE10insert_auxEPS2_PKS2_S6_> -> "_ZN6Common5ArrayIP14PluginProviderE10insert_auxEPS2_PKS2_S6_"
 - global[4202] -> "_ZTV21PluginManagerUncached"
 - func[1420] <_ZN13PluginManagerC1Ev> -> "_ZN13PluginManagerC2Ev"
 - func[1422] <_ZN13PluginManagerD1Ev> -> "_ZN13PluginManagerD2Ev"
 - func[1424] <_ZN13PluginManagerD0Ev> -> "_ZN13PluginManagerD0Ev"
 - func[1422] <_ZN13PluginManagerD1Ev> -> "_ZN13PluginManagerD1Ev"
 - func[1426] <_ZN13PluginManager16findEnginePluginERKN6Common6StringE> -> "_ZN13PluginManager16findEnginePluginERKN6Common6StringE"
 - func[1427] <_ZN13PluginManager23getMetaEngineFromEngineEPK6Plugin> -> "_ZN13PluginManager23getMetaEngineFromEngineEPK6Plugin"
 - func[1428] <_ZN21PluginManagerUncached4initEv> -> "_ZN21PluginManagerUncached4initEv"
 - func[1429] <_ZN13PluginManager21addToPluginsInMemListEP6Plugin> -> "_ZN13PluginManager21addToPluginsInMemListEP6Plugin"
 - func[1431] <_ZN21PluginManagerUncached22loadPluginFromEngineIdERKN6Common6StringE> -> "_ZN21PluginManagerUncached22loadPluginFromEngineIdERKN6Common6StringE"
 - func[1432] <_ZN21PluginManagerUncached20loadPluginByFileNameERKN6Common6StringE> -> "_ZN21PluginManagerUncached20loadPluginByFileNameERKN6Common6StringE"
 - func[12213] <_ZNK6Common6String19hasSuffixIgnoreCaseERKS0_> -> "_ZNK6Common6String19hasSuffixIgnoreCaseERKS0_"
 - func[1433] <_ZN21PluginManagerUncached24updateConfigWithFileNameERKN6Common6StringE> -> "_ZN21PluginManagerUncached24updateConfigWithFileNameERKN6Common6StringE"
 - func[11809] <_ZNK6Common13ConfigManager13hasMiscDomainERKNS_6StringE> -> "_ZNK6Common13ConfigManager13hasMiscDomainERKNS_6StringE"
 - func[11802] <_ZN6Common13ConfigManager13addMiscDomainERKNS_6StringE> -> "_ZN6Common13ConfigManager13addMiscDomainERKNS_6StringE"
 - func[1434] <_ZN6Common13ConfigManager6Domain6setValERKNS_6StringES4_> -> "_ZN6Common13ConfigManager6Domain6setValERKNS_6StringES4_"
 - func[1435] <_ZN21PluginManagerUncached15loadFirstPluginEv> -> "_ZN21PluginManagerUncached15loadFirstPluginEv"
 - func[1436] <_ZN21PluginManagerUncached14loadNextPluginEv> -> "_ZN21PluginManagerUncached14loadNextPluginEv"
 - func[1437] <_ZN13PluginManager14loadAllPluginsEv> -> "_ZN13PluginManager14loadAllPluginsEv"
 - func[1438] <_ZN13PluginManager13tryLoadPluginEP6Plugin> -> "_ZN13PluginManager13tryLoadPluginEP6Plugin"
 - func[1439] <_ZN13PluginManager20loadAllPluginsOfTypeE10PluginType> -> "_ZN13PluginManager20loadAllPluginsOfTypeE10PluginType"
 - func[1707] <_ZN23QualifiedGameDescriptorC2EPKcRK19PlainGameDescriptor> -> "_ZN23QualifiedGameDescriptorC1EPKcRK19PlainGameDescriptor"
 - func[1442] <_ZN6Common5ArrayI23QualifiedGameDescriptorE10insert_auxEPS1_PKS1_S5_> -> "_ZN6Common5ArrayI23QualifiedGameDescriptorE10insert_auxEPS1_PKS1_S5_"
 - func[1443] <_ZNK13EngineManager23findGameInLoadedPluginsERKN6Common6StringE> -> "_ZNK13EngineManager23findGameInLoadedPluginsERKN6Common6StringE"
 - global[4203] -> "_ZN6Common9SingletonI15MD5CacheManagerE10_singletonE"
 - func[1446] <_ZN15MD5CacheManagerC2Ev> -> "_ZN15MD5CacheManagerC2Ev"
 - func[1447] <_ZN6Common7HashMapINS_6StringES1_NS_15IgnoreCase_HashENS_18IgnoreCase_EqualToEE5clearEb> -> "_ZN6Common7HashMapINS_6StringES1_NS_15IgnoreCase_HashENS_18IgnoreCase_EqualToEE5clearEb"
 - func[1448] <_ZN6Common7HashMapINS_6StringExNS_15IgnoreCase_HashENS_18IgnoreCase_EqualToEE5clearEb> -> "_ZN6Common7HashMapINS_6StringExNS_15IgnoreCase_HashENS_18IgnoreCase_EqualToEE5clearEb"
 - func[11961] <_ZNK6Common6FSNode14getDisplayNameEv> -> "_ZNK6Common6FSNode14getDisplayNameEv"
 - func[12199] <_ZN6Common6StringC2ERKNS_9U32StringENS_8CodePageE> -> "_ZN6Common6StringC1ERKNS_9U32StringENS_8CodePageE"
 - func[1714] <_ZN16DetectionResultsC2ERKN6Common5ArrayI12DetectedGameEE> -> "_ZN16DetectionResultsC1ERKN6Common5ArrayI12DetectedGameEE"
 - func[1451] <_ZNK6Common7HashMapINS_6StringES1_NS_15IgnoreCase_HashENS_18IgnoreCase_EqualToEE12IteratorImplINS4_4NodeEE5derefEv> -> "_ZNK6Common7HashMapINS_6StringES1_NS_15IgnoreCase_HashENS_18IgnoreCase_EqualToEE12IteratorImplINS4_4NodeEE5derefEv"
 - func[1452] <_ZN13PluginManager16findLoadedPluginERKN6Common6StringE> -> "_ZN13PluginManager16findLoadedPluginERKN6Common6StringE"
 - func[1455] <_ZNK13EngineManager24upgradeTargetForEngineIdERKN6Common6StringE> -> "_ZNK13EngineManager24upgradeTargetForEngineIdERKN6Common6StringE"
 - func[11616] <_ZNK6Common10BaseStringIcE6equalsEPKc> -> "_ZNK6Common10BaseStringIcE6equalsEPKc"
 - func[11866] <_Z5debugPKcz> -> "_Z5debugPKcz"
 - func[1457] <_ZNK13ScalerManager10getPluginsEv> -> "_ZNK13ScalerManager10getPluginsEv"
 - func[1458] <_ZNK13ScalerManager17getMaxExtraPixelsEv> -> "_ZNK13ScalerManager17getMaxExtraPixelsEv"
 - global[4204] -> "_ZTI18ScalerPluginObject"
 - func[1459] <_ZNK13ScalerManager16findScalerPluginEPKc> -> "_ZNK13ScalerManager16findScalerPluginEPKc"
 - func[1460] <_ZNK13ScalerManager21findScalerPluginIndexEPKc> -> "_ZNK13ScalerManager21findScalerPluginIndexEPKc"
 - func[11791] <_ZN6Common13ConfigManager3setERKNS_6StringES3_> -> "_ZN6Common13ConfigManager3setERKNS_6StringES3_"
 - func[11778] <_ZNK6Common13ConfigManager6Domain16getDomainCommentEv> -> "_ZNK6Common13ConfigManager6Domain16getDomainCommentEv"
 - func[1462] <_ZN21PluginManagerUncachedD2Ev> -> "_ZN21PluginManagerUncachedD2Ev"
 - func[1463] <_ZN21PluginManagerUncachedD0Ev> -> "_ZN21PluginManagerUncachedD0Ev"
 - func[1464] <_ZN13PluginManager19loadDetectionPluginEv> -> "_ZN13PluginManager19loadDetectionPluginEv"
 - func[1465] <_ZN13PluginManager21unloadDetectionPluginEv> -> "_ZN13PluginManager21unloadDetectionPluginEv"
 - func[1466] <_ZN21PluginManagerUncached14loadAllPluginsEv> -> "_ZN21PluginManagerUncached14loadAllPluginsEv"
 - func[1467] <_ZN21PluginManagerUncached20loadAllPluginsOfTypeE10PluginType> -> "_ZN21PluginManagerUncached20loadAllPluginsOfTypeE10PluginType"
 - func[1468] <_ZNK6Plugin11getFileNameEv> -> "_ZNK6Plugin11getFileNameEv"
 - func[1469] <_ZN14PluginProviderD2Ev> -> "_ZN14PluginProviderD2Ev"
 - func[1470] <_ZN18FilePluginProviderD0Ev> -> "_ZN18FilePluginProviderD0Ev"
 - func[1471] <_ZN18FilePluginProvider20isFilePluginProviderEv> -> "_ZN18FilePluginProvider20isFilePluginProviderEv"
 - func[1472] <_ZN13PluginManager4initEv> -> "_ZN13PluginManager4initEv"
 - func[1473] <_ZN13PluginManager15loadFirstPluginEv> -> "_ZN13PluginManager15loadFirstPluginEv"
 - func[1474] <_ZN13PluginManager14loadNextPluginEv> -> "_ZN13PluginManager14loadNextPluginEv"
 - func[1475] <_ZN13PluginManager22loadPluginFromEngineIdERKN6Common6StringE> -> "_ZN13PluginManager22loadPluginFromEngineIdERKN6Common6StringE"
 - func[1476] <_ZN13PluginManager24updateConfigWithFileNameERKN6Common6StringE> -> "_ZN13PluginManager24updateConfigWithFileNameERKN6Common6StringE"
 - func[1477] <_ZN6PluginD2Ev> -> "_ZN6PluginD2Ev"
 - func[1478] <_ZN6PluginD0Ev> -> "_ZN6PluginD0Ev"
 - func[1479] <_ZN20StaticPluginProviderD0Ev> -> "_ZN20StaticPluginProviderD0Ev"
 - func[1480] <_ZN20StaticPluginProvider10getPluginsEv> -> "_ZN20StaticPluginProvider10getPluginsEv"
 - func[1408] <_ZN12StaticPluginC1EP12PluginObject10PluginType> -> "_ZN12StaticPluginC1EP12PluginObject10PluginType"
 - global[4205] -> "g_AUTO_type"
 - func[9668] <_Z16g_AUTO_getObjectv> -> "_Z16g_AUTO_getObjectv"
 - global[4206] -> "g_NULL_type"
 - func[9669] <_Z16g_NULL_getObjectv> -> "_Z16g_NULL_getObjectv"
 - global[4207] -> "g_SEQ_type"
 - func[3378] <_Z15g_SEQ_getObjectv> -> "_Z15g_SEQ_getObjectv"
 - global[4208] -> "g_MT32_type"
 - func[11042] <_Z16g_MT32_getObjectv> -> "_Z16g_MT32_getObjectv"
 - global[4209] -> "g_ADLIB_type"
 - func[9029] <_Z17g_ADLIB_getObjectv> -> "_Z17g_ADLIB_getObjectv"
 - global[4210] -> "g_PCSPK_type"
 - func[11114] <_Z17g_PCSPK_getObjectv> -> "_Z17g_PCSPK_getObjectv"
 - global[4211] -> "g_PCJR_type"
 - func[11115] <_Z16g_PCJR_getObjectv> -> "_Z16g_PCJR_getObjectv"
 - global[4212] -> "g_CMS_type"
 - func[10425] <_Z15g_CMS_getObjectv> -> "_Z15g_CMS_getObjectv"
 - global[4213] -> "g_C64_type"
 - func[11174] <_Z15g_C64_getObjectv> -> "_Z15g_C64_getObjectv"
 - global[4214] -> "g_AMIGA_type"
 - func[10350] <_Z17g_AMIGA_getObjectv> -> "_Z17g_AMIGA_getObjectv"
 - global[4215] -> "g_APPLEIIGS_type"
 - func[11011] <_Z21g_APPLEIIGS_getObjectv> -> "_Z21g_APPLEIIGS_getObjectv"
 - global[4216] -> "g_TOWNS_type"
 - func[10998] <_Z17g_TOWNS_getObjectv> -> "_Z17g_TOWNS_getObjectv"
 - global[4217] -> "g_PC98_type"
 - func[10999] <_Z16g_PC98_getObjectv> -> "_Z16g_PC98_getObjectv"
 - global[4218] -> "g_SEGACD_type"
 - func[11000] <_Z18g_SEGACD_getObjectv> -> "_Z18g_SEGACD_getObjectv"
 - global[4219] -> "g_TIMIDITY_type"
 - func[3411] <_Z20g_TIMIDITY_getObjectv> -> "_Z20g_TIMIDITY_getObjectv"
 - global[4220] -> "g_NORMAL_type"
 - func[6672] <_Z18g_NORMAL_getObjectv> -> "_Z18g_NORMAL_getObjectv"
 - global[4221] -> "g_HQ_type"
 - func[8916] <_Z14g_HQ_getObjectv> -> "_Z14g_HQ_getObjectv"
 - global[4222] -> "g_EDGE_type"
 - func[8954] <_Z16g_EDGE_getObjectv> -> "_Z16g_EDGE_getObjectv"
 - global[4223] -> "g_ADVMAME_type"
 - func[8876] <_Z19g_ADVMAME_getObjectv> -> "_Z19g_ADVMAME_getObjectv"
 - global[4224] -> "g_SAI_type"
 - func[8807] <_Z15g_SAI_getObjectv> -> "_Z15g_SAI_getObjectv"
 - global[4225] -> "g_SUPERSAI_type"
 - func[8819] <_Z20g_SUPERSAI_getObjectv> -> "_Z20g_SUPERSAI_getObjectv"
 - global[4226] -> "g_SUPEREAGLE_type"
 - func[8831] <_Z22g_SUPEREAGLE_getObjectv> -> "_Z22g_SUPEREAGLE_getObjectv"
 - global[4227] -> "g_PM_type"
 - func[8855] <_Z14g_PM_getObjectv> -> "_Z14g_PM_getObjectv"
 - global[4228] -> "g_DOTMATRIX_type"
 - func[8791] <_Z21g_DOTMATRIX_getObjectv> -> "_Z21g_DOTMATRIX_getObjectv"
 - global[4229] -> "g_TV_type"
 - func[8892] <_Z14g_TV_getObjectv> -> "_Z14g_TV_getObjectv"
 - func[1481] <_ZN14PluginProvider20isFilePluginProviderEv> -> "_ZN14PluginProvider20isFilePluginProviderEv"
 - global[4230] -> "_ZTV15MD5CacheManager"
 - func[1482] <_ZN15MD5CacheManagerD2Ev> -> "_ZN15MD5CacheManagerD2Ev"
 - func[1483] <_ZN15MD5CacheManagerD0Ev> -> "_ZN15MD5CacheManagerD0Ev"
 - global[4231] -> "pluginTypeVersions"
 - global[4232] -> "_ZTI12StaticPlugin"
 - global[4233] -> "_ZTI13PluginManager"
 - global[4234] -> "_ZTI21PluginManagerUncached"
 - global[4235] -> "_ZTS21PluginManagerUncached"
 - global[4236] -> "_ZTS13PluginManager"
 - global[4237] -> "_ZTS12StaticPlugin"
 - global[4238] -> "_ZTS6Plugin"
 - global[4239] -> "_ZTI6Plugin"
 - global[4240] -> "_ZTV18FilePluginProvider"
 - global[4241] -> "_ZTI18FilePluginProvider"
 - global[4242] -> "_ZTS18FilePluginProvider"
 - global[4243] -> "_ZTS14PluginProvider"
 - global[4244] -> "_ZTI14PluginProvider"
 - global[4245] -> "_ZTV6Plugin"
 - global[4246] -> "_ZTI20StaticPluginProvider"
 - global[4247] -> "_ZTS20StaticPluginProvider"
 - global[4248] -> "_ZTI15MD5CacheManager"
 - global[4249] -> "_ZTS15MD5CacheManager"
 - global[4250] -> "_ZTSN6Common9SingletonI15MD5CacheManagerEE"
 - global[4251] -> "_ZTIN6Common9SingletonI15MD5CacheManagerEE"
 - global[4252] -> "_ZTS18ScalerPluginObject"
 - func[1420] <_ZN13PluginManagerC1Ev> -> "_ZN13PluginManagerC1Ev"
 - global[4253] -> "gScummVMBuildDate"
 - global[4254] -> "gScummVMVersionDate"
 - global[4255] -> "gScummVMCompiler"
 - func[1484] <_ZN6Common19AchievementsManagerC1Ev> -> "_ZN6Common19AchievementsManagerC2Ev"
 - global[4256] -> "_ZTVN6Common19AchievementsManagerE"
 - func[1485] <_ZN6Common19AchievementsManager17unsetActiveDomainEv> -> "_ZN6Common19AchievementsManager17unsetActiveDomainEv"
 - func[1486] <_ZN6Common4ListINS_7INIFile7SectionEE5clearEv> -> "_ZN6Common4ListINS_7INIFile7SectionEE5clearEv"
 - func[1487] <_ZN6Common10ObjectPoolINS_7HashMapINS_6StringENS_5ArrayINS_22AchievementDescriptionEEENS_4HashIS2_EENS_7EqualToIS2_EEE4NodeELm10EE11deleteChunkEPSB_> -> "_ZN6Common10ObjectPoolINS_7HashMapINS_6StringENS_5ArrayINS_22AchievementDescriptionEEENS_4HashIS2_EENS_7EqualToIS2_EEE4NodeELm10EE11deleteChunkEPSB_"
 - func[1488] <_ZN6Common19AchievementsManagerD1Ev> -> "_ZN6Common19AchievementsManagerD2Ev"
 - func[1489] <_ZN6Common7HashMapINS_6StringENS_5ArrayINS_22AchievementDescriptionEEENS_4HashIS1_EENS_7EqualToIS1_EEED2Ev> -> "_ZN6Common7HashMapINS_6StringENS_5ArrayINS_22AchievementDescriptionEEENS_4HashIS1_EENS_7EqualToIS1_EEED2Ev"
 - func[1490] <_ZN6Common19AchievementsManagerD0Ev> -> "_ZN6Common19AchievementsManagerD0Ev"
 - func[1488] <_ZN6Common19AchievementsManagerD1Ev> -> "_ZN6Common19AchievementsManagerD1Ev"
 - func[1491] <_ZN6Common19AchievementsManager15setActiveDomainERKNS_16AchievementsInfoE> -> "_ZN6Common19AchievementsManager15setActiveDomainERKNS_16AchievementsInfoE"
 - func[12810] <_ZN6Common7INIFile16loadFromSaveFileERKNS_6StringE> -> "_ZN6Common7INIFile16loadFromSaveFileERKNS_6StringE"
 - func[1492] <_ZN6Common19AchievementsManager20loadAchievementsDataEPKcS2_> -> "_ZN6Common19AchievementsManager20loadAchievementsDataEPKcS2_"
 - func[12822] <_ZNK6Common7INIFile6hasKeyERKNS_6StringES3_> -> "_ZNK6Common7INIFile6hasKeyERKNS_6StringES3_"
 - func[12828] <_ZN6Common7INIFile6setKeyERKNS_6StringES3_S3_> -> "_ZN6Common7INIFile6setKeyERKNS_6StringES3_S3_"
 - func[12813] <_ZN6Common7INIFile14saveToSaveFileERKNS_6StringE> -> "_ZN6Common7INIFile14saveToSaveFileERKNS_6StringE"
 - func[12735] <_ZN6Common14makeZipArchiveERKNS_6StringE> -> "_ZN6Common14makeZipArchiveERKNS_6StringE"
 - func[1493] <_ZN6Common4ListINS_7INIFile7SectionEEC2ERKS3_> -> "_ZN6Common4ListINS_7INIFile7SectionEEC2ERKS3_"
 - func[12241] <_ZNK6Common6String6substrEmm> -> "_ZNK6Common6String6substrEmm"
 - func[12827] <_ZNK6Common7INIFile7Section6getKeyERKNS_6StringE> -> "_ZNK6Common7INIFile7Section6getKeyERKNS_6StringE"
 - func[1494] <_ZN6Common7HashMapINS_6StringENS_5ArrayINS_22AchievementDescriptionEEENS_4HashIS1_EENS_7EqualToIS1_EEE24lookupAndCreateIfMissingERKS1_> -> "_ZN6Common7HashMapINS_6StringENS_5ArrayINS_22AchievementDescriptionEEENS_4HashIS1_EENS_7EqualToIS1_EEE24lookupAndCreateIfMissingERKS1_"
 - func[1495] <_ZN6Common5ArrayINS_22AchievementDescriptionEE10insert_auxEPS1_PKS1_S5_> -> "_ZN6Common5ArrayINS_22AchievementDescriptionEE10insert_auxEPS1_PKS1_S5_"
 - func[1496] <_ZN6Common5ArrayINS_15StatDescriptionEE10insert_auxEPS1_PKS1_S5_> -> "_ZN6Common5ArrayINS_15StatDescriptionEE10insert_auxEPS1_PKS1_S5_"
 - func[1497] <_ZN6Common19AchievementsManager16setSpecialStringERKNS_6StringES3_> -> "_ZN6Common19AchievementsManager16setSpecialStringERKNS_6StringES3_"
 - func[1498] <_ZNK6Common19AchievementsManager14getCurrentLangEv> -> "_ZNK6Common19AchievementsManager14getCurrentLangEv"
 - func[1499] <_ZN6Common19AchievementsManager14setAchievementERKNS_6StringE> -> "_ZN6Common19AchievementsManager14setAchievementERKNS_6StringE"
 - func[12517] <_ZN6Common9U32String6formatEPKcz> -> "_ZN6Common9U32String6formatEPKcz"
 - func[12500] <_ZN6Common9U32StringaSEOS0_> -> "_ZN6Common9U32StringaSEOS0_"
 - func[1500] <_ZNK6Common19AchievementsManager10isAchievedERKNS_6StringE> -> "_ZNK6Common19AchievementsManager10isAchievedERKNS_6StringE"
 - func[1501] <_ZN6Common19AchievementsManager16clearAchievementERKNS_6StringE> -> "_ZN6Common19AchievementsManager16clearAchievementERKNS_6StringE"
 - func[12824] <_ZN6Common7INIFile9removeKeyERKNS_6StringES3_> -> "_ZN6Common7INIFile9removeKeyERKNS_6StringES3_"
 - func[1502] <_ZNK6Common19AchievementsManager14setStatFloatExERKNS_6StringEfS3_> -> "_ZNK6Common19AchievementsManager14setStatFloatExERKNS_6StringEfS3_"
 - func[1503] <_ZNK6Common19AchievementsManager14getStatFloatExERKNS_6StringES3_> -> "_ZNK6Common19AchievementsManager14getStatFloatExERKNS_6StringES3_"
 - func[18323] <atof> -> "atof"
 - func[1504] <_ZN6Common19AchievementsManager12setStatFloatERKNS_6StringEf> -> "_ZN6Common19AchievementsManager12setStatFloatERKNS_6StringEf"
 - func[1505] <_ZNK6Common19AchievementsManager12getStatFloatERKNS_6StringE> -> "_ZNK6Common19AchievementsManager12getStatFloatERKNS_6StringE"
 - func[1506] <_ZN6Common19AchievementsManager26updateAverageRateStatFloatERKNS_6StringEff> -> "_ZN6Common19AchievementsManager26updateAverageRateStatFloatERKNS_6StringEff"
 - func[1507] <_ZNK6Common19AchievementsManager23getAverageRateStatFloatERKNS_6StringE> -> "_ZNK6Common19AchievementsManager23getAverageRateStatFloatERKNS_6StringE"
 - func[1508] <_ZN6Common19AchievementsManager10setStatIntERKNS_6StringEi> -> "_ZN6Common19AchievementsManager10setStatIntERKNS_6StringEi"
 - func[1509] <_ZNK6Common19AchievementsManager10getStatIntERKNS_6StringE> -> "_ZNK6Common19AchievementsManager10getStatIntERKNS_6StringE"
 - func[18325] <atol> -> "atol"
 - func[1510] <_ZNK6Common19AchievementsManager10getStatRawERKNS_6StringE> -> "_ZNK6Common19AchievementsManager10getStatRawERKNS_6StringE"
 - func[1511] <_ZN6Common19AchievementsManager20resetAllAchievementsEv> -> "_ZN6Common19AchievementsManager20resetAllAchievementsEv"
 - func[12816] <_ZN6Common7INIFile13removeSectionERKNS_6StringE> -> "_ZN6Common7INIFile13removeSectionERKNS_6StringE"
 - func[1512] <_ZN6Common19AchievementsManager13resetAllStatsEv> -> "_ZN6Common19AchievementsManager13resetAllStatsEv"
 - func[1513] <_ZNK6Common19AchievementsManager19getAchievementCountEv> -> "_ZNK6Common19AchievementsManager19getAchievementCountEv"
 - func[1514] <_ZNK6Common7HashMapINS_6StringENS_5ArrayINS_22AchievementDescriptionEEENS_4HashIS1_EENS_7EqualToIS1_EEE6getValERKS1_> -> "_ZNK6Common7HashMapINS_6StringENS_5ArrayINS_22AchievementDescriptionEEENS_4HashIS1_EENS_7EqualToIS1_EEE6getValERKS1_"
 - func[1515] <_ZNK6Common19AchievementsManager25getAchievementDescriptionEt> -> "_ZNK6Common19AchievementsManager25getAchievementDescriptionEt"
 - func[1516] <_ZNK6Common19AchievementsManager12getStatCountEv> -> "_ZNK6Common19AchievementsManager12getStatCountEv"
 - func[1517] <_ZNK6Common19AchievementsManager18getStatDescriptionEt> -> "_ZNK6Common19AchievementsManager18getStatDescriptionEt"
 - func[1518] <_ZN6Common4ListINS_7INIFile8KeyValueEEC2ERKS3_> -> "_ZN6Common4ListINS_7INIFile8KeyValueEEC2ERKS3_"
 - func[1519] <_ZN6Common7HashMapINS_6StringENS_5ArrayINS_22AchievementDescriptionEEENS_4HashIS1_EENS_7EqualToIS1_EEE13expandStorageEj> -> "_ZN6Common7HashMapINS_6StringENS_5ArrayINS_22AchievementDescriptionEEENS_4HashIS1_EENS_7EqualToIS1_EEE13expandStorageEj"
 - global[4257] -> "_ZN6Common9SingletonINS_19AchievementsManagerEE10_singletonE"
 - global[4258] -> "_ZTIN6Common19AchievementsManagerE"
 - global[4259] -> "_ZTSN6Common19AchievementsManagerE"
 - global[4260] -> "_ZTSN6Common9SingletonINS_19AchievementsManagerEEE"
 - global[4261] -> "_ZTIN6Common9SingletonINS_19AchievementsManagerEEE"
 - func[1484] <_ZN6Common19AchievementsManagerC1Ev> -> "_ZN6Common19AchievementsManagerC1Ev"
 - func[1521] <_ZNK6Common7HashMapINS_6StringE14FilePropertiesNS_15IgnoreCase_HashENS_18IgnoreCase_EqualToEE12IteratorImplINS5_4NodeEE5derefEv> -> "_ZNK6Common7HashMapINS_6StringE14FilePropertiesNS_15IgnoreCase_HashENS_18IgnoreCase_EqualToEE12IteratorImplINS5_4NodeEE5derefEv"
 - func[12524] <_ZN6Common7isAlnumEi> -> "_ZN6Common7isAlnumEi"
 - func[1524] <_ZN6Common5ArrayI14ADDetectedGameE9remove_atEj> -> "_ZN6Common5ArrayI14ADDetectedGameE9remove_atEj"
 - func[2073] <_ZN3GUI13MessageDialogC2ERKN6Common9U32StringES4_S4_N8Graphics9TextAlignEPKcS4_> -> "_ZN3GUI13MessageDialogC1ERKN6Common9U32StringES4_S4_N8Graphics9TextAlignEPKcS4_"
 - func[1900] <_ZN3GUI6Dialog8runModalEv> -> "_ZN3GUI6Dialog8runModalEv"
 - func[2129] <_ZN3GUI9GuiObjectD1Ev> -> "_ZN3GUI9GuiObjectD2Ev"
 - func[1526] <_ZN27AdvancedMetaEngineDetection22preprocessDescriptionsEv> -> "_ZN27AdvancedMetaEngineDetection22preprocessDescriptionsEv"
 - func[1528] <_ZNK27AdvancedMetaEngineDetection17isEntryGrayListedEPK17ADGameDescription> -> "_ZNK27AdvancedMetaEngineDetection17isEntryGrayListedEPK17ADGameDescription"
 - func[1529] <_ZNK27AdvancedMetaEngineDetection13detectClashesEv> -> "_ZNK27AdvancedMetaEngineDetection13detectClashesEv"
 - func[12263] <_ZN6Common19firstPathComponentsERKNS_6StringEc> -> "_ZN6Common19firstPathComponentsERKNS_6StringEc"
 - func[1530] <_ZNK18AdvancedMetaEngine18getExtraGuiOptionsERKN6Common6StringE> -> "_ZNK18AdvancedMetaEngine18getExtraGuiOptionsERKN6Common6StringE"
 - func[1531] <_ZN6Common5ArrayI14ExtraGuiOptionE10insert_auxEPS1_PKS1_S5_> -> "_ZN6Common5ArrayI14ExtraGuiOptionE10insert_auxEPS1_PKS1_S5_"
 - func[1532] <_ZN27AdvancedMetaEngineDetection14createInstanceEP7OSystemPP6Engine> -> "_ZN27AdvancedMetaEngineDetection14createInstanceEP7OSystemPP6Engine"
 - func[1533] <_ZN14ADDetectedGameC2Ev> -> "_ZN14ADDetectedGameC2Ev"
 - func[11792] <_ZN6Common13ConfigManager11setAndFlushERKNS_6StringES3_> -> "_ZN6Common13ConfigManager11setAndFlushERKNS_6StringES3_"
 - func[1669] <_ZN6Engine28warnUserAboutUnsupportedGameEN6Common6StringE> -> "_ZN6Engine28warnUserAboutUnsupportedGameEN6Common6StringE"
 - func[1670] <_ZN6Engine20errorUnsupportedGameEN6Common6StringE> -> "_ZN6Engine20errorUnsupportedGameEN6Common6StringE"
 - func[1534] <_ZN6Common5ArrayIP6PluginEC2ERKS3_> -> "_ZN6Common5ArrayIP6PluginEC2ERKS3_"
 - func[1535] <_ZN27AdvancedMetaEngineDetection17getPathsFromEntryEPK17ADGameDescription> -> "_ZN27AdvancedMetaEngineDetection17getPathsFromEntryEPK17ADGameDescription"
 - func[11572] <_ZN6Common9SearchSet25addSubDirectoriesMatchingERKNS_6FSNodeENS_6StringEbiib> -> "_ZN6Common9SearchSet25addSubDirectoriesMatchingERKNS_6FSNodeENS_6StringEbiib"
 - func[1536] <_ZN6Common5ArrayINS_6StringEED2Ev> -> "_ZN6Common5ArrayINS_6StringEED2Ev"
 - func[1537] <_ZNK6Plugin3getI18AdvancedMetaEngineEERT_v> -> "_ZNK6Plugin3getI18AdvancedMetaEngineEERT_v"
 - func[1538] <_ZNK27AdvancedMetaEngineDetection14initSubSystemsEPK17ADGameDescription> -> "_ZNK27AdvancedMetaEngineDetection14initSubSystemsEPK17ADGameDescription"
 - func[1540] <_ZN15MD5CacheManager8containsEN6Common6StringE> -> "_ZN15MD5CacheManager8containsEN6Common6StringE"
 - func[1541] <_ZN6Common7HashMapINS_6StringExNS_15IgnoreCase_HashENS_18IgnoreCase_EqualToEE6getValERKS1_> -> "_ZN6Common7HashMapINS_6StringExNS_15IgnoreCase_HashENS_18IgnoreCase_EqualToEE6getValERKS1_"
 - func[1543] <_ZN6Common7HashMapINS_6StringExNS_15IgnoreCase_HashENS_18IgnoreCase_EqualToEE24lookupAndCreateIfMissingERKS1_> -> "_ZN6Common7HashMapINS_6StringExNS_15IgnoreCase_HashENS_18IgnoreCase_EqualToEE24lookupAndCreateIfMissingERKS1_"
 - global[4262] -> "_ZTV14FileMapArchive"
 - func[1544] <_ZNK18AdvancedMetaEngine23getFilePropertiesExternEjRKN6Common7HashMapINS0_6StringENS0_6FSNodeENS0_15IgnoreCase_HashENS0_18IgnoreCase_EqualToEEERK17ADGameDescriptionRKS2_R14FileProperties> -> "_ZNK18AdvancedMetaEngine23getFilePropertiesExternEjRKN6Common7HashMapINS0_6StringENS0_6FSNodeENS0_15IgnoreCase_HashENS0_18IgnoreCase_EqualToEEERK17ADGameDescriptionRKS2_R14FileProperties"
 - func[11872] <_Z6debugCjPKcz> -> "_Z6debugCjPKcz"
 - func[1550] <_ZN6Common7HashMapINS_6StringEiNS_15IgnoreCase_HashENS_18IgnoreCase_EqualToEE24lookupAndCreateIfMissingERKS1_> -> "_ZN6Common7HashMapINS_6StringEiNS_15IgnoreCase_HashENS_18IgnoreCase_EqualToEE24lookupAndCreateIfMissingERKS1_"
 - func[1551] <_ZNK6Common7HashMapINS_6StringEiNS_15IgnoreCase_HashENS_18IgnoreCase_EqualToEE12IteratorImplINS4_4NodeEE5derefEv> -> "_ZNK6Common7HashMapINS_6StringEiNS_15IgnoreCase_HashENS_18IgnoreCase_EqualToEE12IteratorImplINS4_4NodeEE5derefEv"
 - func[1552] <_ZN18AdvancedMetaEngine14createInstanceEP7OSystemPP6Engine> -> "_ZN18AdvancedMetaEngine14createInstanceEP7OSystemPP6Engine"
 - func[1553] <_ZNK18AdvancedMetaEngine18checkExtendedSavesEN10MetaEngine17MetaEngineFeatureE> -> "_ZNK18AdvancedMetaEngine18checkExtendedSavesEN10MetaEngine17MetaEngineFeatureE"
 - func[1554] <_ZN27AdvancedMetaEngineDetectionD0Ev> -> "_ZN27AdvancedMetaEngineDetectionD0Ev"
 - func[1555] <_ZN18AdvancedMetaEngineD0Ev> -> "_ZN18AdvancedMetaEngineD0Ev"
 - func[1556] <_ZNK10MetaEngine15getAutosaveSlotEv> -> "_ZNK10MetaEngine15getAutosaveSlotEv"
 - func[1557] <_ZNK10MetaEngine18getMaximumSaveSlotEv> -> "_ZNK10MetaEngine18getMaximumSaveSlotEv"
 - func[1558] <_ZNK10MetaEngine29getAchievementDescriptionListEv> -> "_ZNK10MetaEngine29getAchievementDescriptionListEv"
 - func[1559] <_ZNK18AdvancedMetaEngine20fallbackDetectExternEjRKN6Common7HashMapINS0_6StringENS0_6FSNodeENS0_15IgnoreCase_HashENS0_18IgnoreCase_EqualToEEERKNS0_6FSListEPP23ADDetectedGameExtraInfo> -> "_ZNK18AdvancedMetaEngine20fallbackDetectExternEjRKN6Common7HashMapINS0_6StringENS0_6FSNodeENS0_15IgnoreCase_HashENS0_18IgnoreCase_EqualToEEERKNS0_6FSListEPP23ADDetectedGameExtraInfo"
 - func[1560] <_ZNK18AdvancedMetaEngine26getAdvancedExtraGuiOptionsEv> -> "_ZNK18AdvancedMetaEngine26getAdvancedExtraGuiOptionsEv"
 - func[1561] <_ZN6Common7HashMapINS_6StringExNS_15IgnoreCase_HashENS_18IgnoreCase_EqualToEE13expandStorageEj> -> "_ZN6Common7HashMapINS_6StringExNS_15IgnoreCase_HashENS_18IgnoreCase_EqualToEE13expandStorageEj"
 - func[1562] <_ZN6Common7ArchiveD2Ev> -> "_ZN6Common7ArchiveD2Ev"
 - func[1563] <_ZN14FileMapArchiveD0Ev> -> "_ZN14FileMapArchiveD0Ev"
 - func[1564] <_ZNK14FileMapArchive7hasFileERKN6Common4PathE> -> "_ZNK14FileMapArchive7hasFileERKN6Common4PathE"
 - func[1565] <_ZNK14FileMapArchive11listMembersERN6Common4ListINS0_9SharedPtrINS0_13ArchiveMemberEEEEE> -> "_ZNK14FileMapArchive11listMembersERN6Common4ListINS0_9SharedPtrINS0_13ArchiveMemberEEEEE"
 - func[1566] <_ZNK6Common7HashMapINS_6StringENS_6FSNodeENS_15IgnoreCase_HashENS_18IgnoreCase_EqualToEE12IteratorImplIKNS5_4NodeEE5derefEv> -> "_ZNK6Common7HashMapINS_6StringENS_6FSNodeENS_15IgnoreCase_HashENS_18IgnoreCase_EqualToEE12IteratorImplIKNS5_4NodeEE5derefEv"
 - global[4263] -> "_ZTVN6Common18BasePtrTrackerImplINS_6FSNodeEEE"
 - func[1567] <_ZNK14FileMapArchive9getMemberERKN6Common4PathE> -> "_ZNK14FileMapArchive9getMemberERKN6Common4PathE"
 - func[1568] <_ZNK14FileMapArchive25createReadStreamForMemberERKN6Common4PathE> -> "_ZNK14FileMapArchive25createReadStreamForMemberERKN6Common4PathE"
 - func[1569] <_ZN6Common18BasePtrTrackerImplINS_6FSNodeEED0Ev> -> "_ZN6Common18BasePtrTrackerImplINS_6FSNodeEED0Ev"
 - func[1570] <_ZN6Common18BasePtrTrackerImplINS_6FSNodeEE14destructObjectEv> -> "_ZN6Common18BasePtrTrackerImplINS_6FSNodeEE14destructObjectEv"
 - func[1571] <_ZN6Common7HashMapINS_6StringEiNS_15IgnoreCase_HashENS_18IgnoreCase_EqualToEE13expandStorageEj> -> "_ZN6Common7HashMapINS_6StringEiNS_15IgnoreCase_HashENS_18IgnoreCase_EqualToEE13expandStorageEj"
 - global[4264] -> "_ZTS27AdvancedMetaEngineDetection"
 - global[4265] -> "_ZTV18AdvancedMetaEngine"
 - func[1729] <_ZN10MetaEngine20getSavegameThumbnailERN8Graphics7SurfaceE> -> "_ZN10MetaEngine20getSavegameThumbnailERN8Graphics7SurfaceE"
 - func[1733] <_ZNK10MetaEngine9listSavesEPKc> -> "_ZNK10MetaEngine9listSavesEPKc"
 - func[1741] <_ZNK10MetaEngine15removeSaveStateEPKci> -> "_ZNK10MetaEngine15removeSaveStateEPKci"
 - func[1742] <_ZNK10MetaEngine18querySaveMetaInfosEPKci> -> "_ZNK10MetaEngine18querySaveMetaInfosEPKci"
 - func[1721] <_ZNK10MetaEngine15getSavegameFileEiPKc> -> "_ZNK10MetaEngine15getSavegameFileEiPKc"
 - func[1722] <_ZNK10MetaEngine11initKeymapsEPKc> -> "_ZNK10MetaEngine11initKeymapsEPKc"
 - func[1739] <_ZNK10MetaEngine23registerDefaultSettingsERKN6Common6StringE> -> "_ZNK10MetaEngine23registerDefaultSettingsERKN6Common6StringE"
 - func[1740] <_ZNK10MetaEngine24buildEngineOptionsWidgetEPN3GUI9GuiObjectERKN6Common6StringES6_> -> "_ZNK10MetaEngine24buildEngineOptionsWidgetEPN3GUI9GuiObjectERKN6Common6StringES6_"
 - func[1723] <_ZNK10MetaEngine19getAchievementsInfoERKN6Common6StringE> -> "_ZNK10MetaEngine19getAchievementsInfoERKN6Common6StringE"
 - func[1724] <_ZNK10MetaEngine10hasFeatureENS_17MetaEngineFeatureE> -> "_ZNK10MetaEngine10hasFeatureENS_17MetaEngineFeatureE"
 - global[4266] -> "_ZTS18AdvancedMetaEngine"
 - global[4267] -> "_ZTI14FileMapArchive"
 - global[4268] -> "_ZTS14FileMapArchive"
 - global[4269] -> "_ZTIN6Common18BasePtrTrackerImplINS_6FSNodeEEE"
 - global[4270] -> "_ZTSN6Common18BasePtrTrackerImplINS_6FSNodeEEE"
 - func[1572] <_ZN14MainMenuDialogC1EP6Engine> -> "_ZN14MainMenuDialogC2EP6Engine"
 - func[1899] <_ZN3GUI6DialogC1ERKN6Common6StringE> -> "_ZN3GUI6DialogC2ERKN6Common6StringE"
 - global[4271] -> "_ZTV14MainMenuDialog"
 - func[1950] <_ZN3GUI10GuiManagerC2Ev> -> "_ZN3GUI10GuiManagerC1Ev"
 - func[1573] <_ZN3GUI9ThemeEval6getVarERKN6Common6StringEi> -> "_ZN3GUI9ThemeEval6getVarERKN6Common6StringEi"
 - func[2614] <_ZN3GUI14GraphicsWidgetC2EPNS_9GuiObjectERKN6Common6StringERKNS3_9U32StringE> -> "_ZN3GUI14GraphicsWidgetC1EPNS_9GuiObjectERKN6Common6StringERKNS3_9U32StringE"
 - global[4272] -> "_ZN3GUI11ThemeEngine15kImageLogoSmallE"
 - func[1574] <_ZNK6Common7HashMapINS_6StringEPN8Graphics14ManagedSurfaceENS_4HashIS1_EENS_7EqualToIS1_EEE6getValERKS1_> -> "_ZNK6Common7HashMapINS_6StringEPN8Graphics14ManagedSurfaceENS_4HashIS1_EENS_7EqualToIS1_EEE6getValERKS1_"
 - func[2617] <_ZN3GUI14GraphicsWidget6setGfxEPKN8Graphics14ManagedSurfaceEb> -> "_ZN3GUI14GraphicsWidget6setGfxEPKN8Graphics14ManagedSurfaceEb"
 - func[2544] <_ZN3GUI16StaticTextWidgetC2EPNS_9GuiObjectERKN6Common6StringERKNS3_9U32StringES9_NS_11ThemeEngine9FontStyleENS3_8LanguageEb> -> "_ZN3GUI16StaticTextWidgetC1EPNS_9GuiObjectERKN6Common6StringERKNS3_9U32StringES9_NS_11ThemeEngine9FontStyleENS3_8LanguageEb"
 - func[2547] <_ZN3GUI16StaticTextWidget8setAlignEN8Graphics9TextAlignE> -> "_ZN3GUI16StaticTextWidget8setAlignEN8Graphics9TextAlignE"
 - func[2551] <_ZN3GUI12ButtonWidgetC2EPNS_9GuiObjectERKN6Common6StringERKNS3_9U32StringES9_jhS9_> -> "_ZN3GUI12ButtonWidgetC1EPNS_9GuiObjectERKN6Common6StringERKNS3_9U32StringES9_jhS9_"
 - func[2536] <_ZN3GUI6Widget10setVisibleEb> -> "_ZN3GUI6Widget10setVisibleEb"
 - func[2534] <_ZN3GUI6Widget10setEnabledEb> -> "_ZN3GUI6Widget10setEnabledEb"
 - func[12469] <_ZNK6Common18TranslationManager14getTranslationEPKcS2_> -> "_ZNK6Common18TranslationManager14getTranslationEPKcS2_"
 - func[1764] <_ZN3GUI11AboutDialogC2Ev> -> "_ZN3GUI11AboutDialogC1Ev"
 - func[2225] <_ZN3GUI15SaveLoadChooserC2ERKN6Common9U32StringES4_b> -> "_ZN3GUI15SaveLoadChooserC1ERKN6Common9U32StringES4_b"
 - func[1575] <_ZN14MainMenuDialogD1Ev> -> "_ZN14MainMenuDialogD2Ev"
 - func[2226] <_ZN3GUI15SaveLoadChooserD2Ev> -> "_ZN3GUI15SaveLoadChooserD1Ev"
 - func[1576] <_ZN14MainMenuDialogD0Ev> -> "_ZN14MainMenuDialogD0Ev"
 - func[1575] <_ZN14MainMenuDialogD1Ev> -> "_ZN14MainMenuDialogD1Ev"
 - func[1577] <_ZN14MainMenuDialog13handleCommandEPN3GUI13CommandSenderEjj> -> "_ZN14MainMenuDialog13handleCommandEPN3GUI13CommandSenderEjj"
 - func[2229] <_ZN3GUI15SaveLoadChooser25runModalWithCurrentTargetEv> -> "_ZN3GUI15SaveLoadChooser25runModalWithCurrentTargetEv"
 - func[1668] <_ZN6Engine17setGameToLoadSlotEi> -> "_ZN6Engine17setGameToLoadSlotEi"
 - func[1578] <_ZN14MainMenuDialog4saveEv> -> "_ZN14MainMenuDialog4saveEv"
 - func[1581] <_ZN3GUI12ConfigDialogC2Ev> -> "_ZN3GUI12ConfigDialogC1Ev"
 - func[1582] <_ZN3GUI12ConfigDialogD2Ev> -> "_ZN3GUI12ConfigDialogD1Ev"
 - func[1919] <_ZN3GUI6Dialog13handleCommandEPNS_13CommandSenderEjj> -> "_ZN3GUI6Dialog13handleCommandEPNS_13CommandSenderEjj"
 - func[1579] <_ZN14MainMenuDialog4loadEv> -> "_ZN14MainMenuDialog4loadEv"
 - func[2231] <_ZNK3GUI15SaveLoadChooser15getResultStringEv> -> "_ZNK3GUI15SaveLoadChooser15getResultStringEv"
 - func[2228] <_ZNK3GUI15SaveLoadChooser28createDefaultSaveDescriptionEi> -> "_ZNK3GUI15SaveLoadChooser28createDefaultSaveDescriptionEi"
 - func[12515] <_ZN6Common9U32String14formatInternalEPKS0_z> -> "_ZN6Common9U32String14formatInternalEPKS0_z"
 - func[1580] <_ZN14MainMenuDialog12reflowLayoutEv> -> "_ZN14MainMenuDialog12reflowLayoutEv"
 - func[2540] <_ZN3GUI6Widget13cleanupHotkeyERKN6Common9U32StringE> -> "_ZN3GUI6Widget13cleanupHotkeyERKN6Common9U32StringE"
 - func[2559] <_ZN3GUI12ButtonWidget8setLabelERKN6Common9U32StringE> -> "_ZN3GUI12ButtonWidget8setLabelERKN6Common9U32StringE"
 - func[1920] <_ZN3GUI6Dialog10findWidgetEPKc> -> "_ZN3GUI6Dialog10findWidgetEPKc"
 - func[1904] <_ZN3GUI6Dialog12reflowLayoutEv> -> "_ZN3GUI6Dialog12reflowLayoutEv"
 - func[1581] <_ZN3GUI12ConfigDialogC2Ev> -> "_ZN3GUI12ConfigDialogC2Ev"
 - func[2140] <_ZN3GUI13OptionsDialogC1ERKN6Common6StringES4_> -> "_ZN3GUI13OptionsDialogC2ERKN6Common6StringES4_"
 - global[4273] -> "_ZTVN3GUI12ConfigDialogE"
 - global[4274] -> "g_engine"
 - func[2965] <_ZN3GUI9TabWidgetC2EPNS_9GuiObjectERKN6Common6StringE> -> "_ZN3GUI9TabWidgetC1EPNS_9GuiObjectERKN6Common6StringE"
 - func[2970] <_ZN3GUI9TabWidget6addTabERKN6Common9U32StringERKNS1_6StringEb> -> "_ZN3GUI9TabWidget6addTabERKN6Common9U32StringERKNS1_6StringEb"
 - func[2975] <_ZN3GUI9TabWidget9removeTabEi> -> "_ZN3GUI9TabWidget9removeTabEi"
 - func[2175] <_ZN3GUI13OptionsDialog17addVolumeControlsEPNS_9GuiObjectERKN6Common6StringE> -> "_ZN3GUI13OptionsDialog17addVolumeControlsEPNS_9GuiObjectERKN6Common6StringE"
 - func[2157] <_ZN3GUI13OptionsDialog22setVolumeSettingsStateEb> -> "_ZN3GUI13OptionsDialog22setVolumeSettingsStateEb"
 - func[2174] <_ZN3GUI13OptionsDialog19addSubtitleControlsEPNS_9GuiObjectERKN6Common6StringEi> -> "_ZN3GUI13OptionsDialog19addSubtitleControlsEPNS_9GuiObjectERKN6Common6StringEi"
 - func[2165] <_ZN3GUI13OptionsDialog24setSubtitleSettingsStateEb> -> "_ZN3GUI13OptionsDialog24setSubtitleSettingsStateEb"
 - func[2167] <_ZN3GUI13OptionsDialog20addKeyMapperControlsEPNS_9GuiObjectERKN6Common6StringERKNS3_5ArrayIPNS3_6KeymapEEES6_> -> "_ZN3GUI13OptionsDialog20addKeyMapperControlsEPNS_9GuiObjectERKN6Common6StringERKNS3_5ArrayIPNS3_6KeymapEEES6_"
 - func[2168] <_ZN3GUI13OptionsDialog23addAchievementsControlsEPNS_9GuiObjectERKN6Common6StringE> -> "_ZN3GUI13OptionsDialog23addAchievementsControlsEPNS_9GuiObjectERKN6Common6StringE"
 - func[2169] <_ZN3GUI13OptionsDialog21addStatisticsControlsEPNS_9GuiObjectERKN6Common6StringE> -> "_ZN3GUI13OptionsDialog21addStatisticsControlsEPNS_9GuiObjectERKN6Common6StringE"
 - func[2972] <_ZN3GUI9TabWidget12setActiveTabEi> -> "_ZN3GUI9TabWidget12setActiveTabEi"
 - func[1582] <_ZN3GUI12ConfigDialogD2Ev> -> "_ZN3GUI12ConfigDialogD2Ev"
 - func[2141] <_ZN3GUI13OptionsDialogD1Ev> -> "_ZN3GUI13OptionsDialogD2Ev"
 - func[1583] <_ZN3GUI12ConfigDialogD0Ev> -> "_ZN3GUI12ConfigDialogD0Ev"
 - func[1584] <_ZN3GUI12ConfigDialog5buildEv> -> "_ZN3GUI12ConfigDialog5buildEv"
 - func[2143] <_ZN3GUI13OptionsDialog5buildEv> -> "_ZN3GUI13OptionsDialog5buildEv"
 - func[1585] <_ZN3GUI12ConfigDialog5applyEv> -> "_ZN3GUI12ConfigDialog5applyEv"
 - func[2150] <_ZN3GUI13OptionsDialog5applyEv> -> "_ZN3GUI13OptionsDialog5applyEv"
 - func[1586] <_ZN3GUI21ExtraGuiOptionsWidgetC1EPNS_9GuiObjectERKN6Common6StringES6_RKNS3_5ArrayI14ExtraGuiOptionEE> -> "_ZN3GUI21ExtraGuiOptionsWidgetC2EPNS_9GuiObjectERKN6Common6StringES6_RKNS3_5ArrayI14ExtraGuiOptionEE"
 - func[11614] <_ZNK6Common10BaseStringIcE6equalsERKS1_> -> "_ZNK6Common10BaseStringIcE6equalsERKS1_"
 - func[2631] <_ZN3GUI22OptionsContainerWidgetC2EPNS_9GuiObjectERKN6Common6StringES6_bS6_> -> "_ZN3GUI22OptionsContainerWidgetC2EPNS_9GuiObjectERKN6Common6StringES6_bS6_"
 - global[4275] -> "_ZTVN3GUI21ExtraGuiOptionsWidgetE"
 - func[2638] <_ZN3GUI22OptionsContainerWidget11widgetsBossEv> -> "_ZN3GUI22OptionsContainerWidget11widgetsBossEv"
 - func[2589] <_ZN3GUI14CheckboxWidgetC2EPNS_9GuiObjectERKN6Common6StringERKNS3_9U32StringES9_jh> -> "_ZN3GUI14CheckboxWidgetC1EPNS_9GuiObjectERKN6Common6StringERKNS3_9U32StringES9_jh"
 - func[1587] <_ZN6Common5ArrayIPN3GUI14CheckboxWidgetEE10insert_auxEPS3_PKS3_S7_> -> "_ZN6Common5ArrayIPN3GUI14CheckboxWidgetEE10insert_auxEPS3_PKS3_S7_"
 - func[1588] <_ZN3GUI21ExtraGuiOptionsWidget12dialogLayoutERKN6Common6StringE> -> "_ZN3GUI21ExtraGuiOptionsWidget12dialogLayoutERKN6Common6StringE"
 - func[1589] <_ZN3GUI21ExtraGuiOptionsWidgetD1Ev> -> "_ZN3GUI21ExtraGuiOptionsWidgetD2Ev"
 - func[2632] <_ZN3GUI22OptionsContainerWidgetD1Ev> -> "_ZN3GUI22OptionsContainerWidgetD2Ev"
 - func[1590] <_ZN3GUI21ExtraGuiOptionsWidgetD0Ev> -> "_ZN3GUI21ExtraGuiOptionsWidgetD0Ev"
 - func[1589] <_ZN3GUI21ExtraGuiOptionsWidgetD1Ev> -> "_ZN3GUI21ExtraGuiOptionsWidgetD1Ev"
 - func[1591] <_ZN3GUI21ExtraGuiOptionsWidget13handleCommandEPNS_13CommandSenderEjj> -> "_ZN3GUI21ExtraGuiOptionsWidget13handleCommandEPNS_13CommandSenderEjj"
 - func[1592] <_ZN3GUI21ExtraGuiOptionsWidget4loadEv> -> "_ZN3GUI21ExtraGuiOptionsWidget4loadEv"
 - func[2591] <_ZN3GUI14CheckboxWidget8setStateEb> -> "_ZN3GUI14CheckboxWidget8setStateEb"
 - func[1593] <_ZN3GUI21ExtraGuiOptionsWidget4saveEv> -> "_ZN3GUI21ExtraGuiOptionsWidget4saveEv"
 - func[2535] <_ZNK3GUI6Widget9isEnabledEv> -> "_ZNK3GUI6Widget9isEnabledEv"
 - func[1594] <_ZNK3GUI21ExtraGuiOptionsWidget12defineLayoutERNS_9ThemeEvalERKN6Common6StringES6_> -> "_ZNK3GUI21ExtraGuiOptionsWidget12defineLayoutERNS_9ThemeEvalERKN6Common6StringES6_"
 - func[2394] <_ZN3GUI9ThemeEval9addDialogERKN6Common6StringES4_ssi> -> "_ZN3GUI9ThemeEval9addDialogERKN6Common6StringES4_ssi"
 - func[2395] <_ZN3GUI9ThemeEval9addLayoutENS_11ThemeLayout10LayoutTypeEiNS1_9ItemAlignE> -> "_ZN3GUI9ThemeEval9addLayoutENS_11ThemeLayout10LayoutTypeEiNS1_9ItemAlignE"
 - func[2397] <_ZN3GUI9ThemeEval10addPaddingEssss> -> "_ZN3GUI9ThemeEval10addPaddingEssss"
 - func[2392] <_ZN3GUI9ThemeEval9addWidgetERKN6Common6StringES4_iiN8Graphics9TextAlignEb> -> "_ZN3GUI9ThemeEval9addWidgetERKN6Common6StringES4_iiN8Graphics9TextAlignEb"
 - func[1595] <_ZN3GUI9GuiObject19setTextDrawableAreaERKN6Common4RectE> -> "_ZN3GUI9GuiObject19setTextDrawableAreaERKN6Common4RectE"
 - func[1596] <_ZNK3GUI9GuiObject7getRelXEv> -> "_ZNK3GUI9GuiObject7getRelXEv"
 - func[1597] <_ZNK3GUI9GuiObject7getRelYEv> -> "_ZNK3GUI9GuiObject7getRelYEv"
 - func[1598] <_ZNK3GUI9GuiObject7getAbsXEv> -> "_ZNK3GUI9GuiObject7getAbsXEv"
 - func[1599] <_ZNK3GUI9GuiObject7getAbsYEv> -> "_ZNK3GUI9GuiObject7getAbsYEv"
 - func[1600] <_ZNK3GUI9GuiObject9getChildXEv> -> "_ZNK3GUI9GuiObject9getChildXEv"
 - func[1601] <_ZNK3GUI9GuiObject9getChildYEv> -> "_ZNK3GUI9GuiObject9getChildYEv"
 - func[1602] <_ZNK3GUI9GuiObject8getWidthEv> -> "_ZNK3GUI9GuiObject8getWidthEv"
 - func[1603] <_ZNK3GUI9GuiObject9getHeightEv> -> "_ZNK3GUI9GuiObject9getHeightEv"
 - func[1604] <_ZNK3GUI6Dialog9isVisibleEv> -> "_ZNK3GUI6Dialog9isVisibleEv"
 - func[1605] <_ZN3GUI9GuiObject9isPointInEii> -> "_ZN3GUI9GuiObject9isPointInEii"
 - func[1606] <_ZN3GUI6Dialog13receivedFocusEii> -> "_ZN3GUI6Dialog13receivedFocusEii"
 - func[1607] <_ZN3GUI6Dialog15handleMouseLeftEi> -> "_ZN3GUI6Dialog15handleMouseLeftEi"
 - func[1608] <_ZN3GUI6Dialog16handleOtherEventERKN6Common5EventE> -> "_ZN3GUI6Dialog16handleOtherEventERKN6Common5EventE"
 - func[1609] <_ZNK3GUI6Widget7getAbsXEv> -> "_ZNK3GUI6Widget7getAbsXEv"
 - func[1610] <_ZNK3GUI6Widget7getAbsYEv> -> "_ZNK3GUI6Widget7getAbsYEv"
 - func[1611] <_ZN3GUI6Widget16handleMouseWheelEiii> -> "_ZN3GUI6Widget16handleMouseWheelEiii"
 - func[1612] <_ZN3GUI6Widget12releaseFocusEv> -> "_ZN3GUI6Widget12releaseFocusEv"
 - func[1613] <_ZN3GUI6Widget6setPosEii> -> "_ZN3GUI6Widget6setPosEii"
 - func[1614] <_ZN3GUI6Widget7setSizeEii> -> "_ZN3GUI6Widget7setSizeEii"
 - func[1615] <_ZN3GUI6Widget10getMinSizeERiS1_> -> "_ZN3GUI6Widget10getMinSizeERiS1_"
 - func[1616] <_ZN3GUI6Widget15handleMouseDownEiiii> -> "_ZN3GUI6Widget15handleMouseDownEiiii"
 - func[1617] <_ZN3GUI6Widget13handleMouseUpEiiii> -> "_ZN3GUI6Widget13handleMouseUpEiiii"
 - func[1618] <_ZN3GUI6Widget18handleMouseEnteredEi> -> "_ZN3GUI6Widget18handleMouseEnteredEi"
 - func[1619] <_ZN3GUI6Widget15handleMouseLeftEi> -> "_ZN3GUI6Widget15handleMouseLeftEi"
 - func[1620] <_ZN3GUI6Widget16handleMouseMovedEiii> -> "_ZN3GUI6Widget16handleMouseMovedEiii"
 - func[1621] <_ZN3GUI6Widget13handleKeyDownEN6Common8KeyStateE> -> "_ZN3GUI6Widget13handleKeyDownEN6Common8KeyStateE"
 - func[1622] <_ZN3GUI6Widget11handleKeyUpEN6Common8KeyStateE> -> "_ZN3GUI6Widget11handleKeyUpEN6Common8KeyStateE"
 - func[1623] <_ZN3GUI6Widget12handleTickleEv> -> "_ZN3GUI6Widget12handleTickleEv"
 - func[1624] <_ZN3GUI6Widget10wantsFocusEv> -> "_ZN3GUI6Widget10wantsFocusEv"
 - func[1625] <_ZN3GUI22OptionsContainerWidget10drawWidgetEv> -> "_ZN3GUI22OptionsContainerWidget10drawWidgetEv"
 - func[1626] <_ZN3GUI6Widget19receivedFocusWidgetEv> -> "_ZN3GUI6Widget19receivedFocusWidgetEv"
 - func[1627] <_ZN3GUI6Widget15lostFocusWidgetEv> -> "_ZN3GUI6Widget15lostFocusWidgetEv"
 - func[1628] <_ZN3GUI22OptionsContainerWidget7hasKeysEv> -> "_ZN3GUI22OptionsContainerWidget7hasKeysEv"
 - func[1629] <_ZN3GUI22OptionsContainerWidget10setEnabledEb> -> "_ZN3GUI22OptionsContainerWidget10setEnabledEb"
 - global[4276] -> "_ZTI14MainMenuDialog"
 - func[2131] <_ZN3GUI9GuiObject6resizeEiiiib> -> "_ZN3GUI9GuiObject6resizeEiiiib"
 - func[2132] <_ZN3GUI9GuiObject8addChildEPNS_6WidgetE> -> "_ZN3GUI9GuiObject8addChildEPNS_6WidgetE"
 - func[1921] <_ZN3GUI6Dialog12removeWidgetEPNS_6WidgetE> -> "_ZN3GUI6Dialog12removeWidgetEPNS_6WidgetE"
 - func[2135] <_ZNK3GUI9GuiObject11getClipRectEv> -> "_ZNK3GUI9GuiObject11getClipRectEv"
 - func[1914] <_ZN3GUI6Dialog16handleMouseWheelEiii> -> "_ZN3GUI6Dialog16handleMouseWheelEiii"
 - func[1907] <_ZN3GUI6Dialog12releaseFocusEv> -> "_ZN3GUI6Dialog12releaseFocusEv"
 - func[1905] <_ZN3GUI6Dialog9lostFocusEv> -> "_ZN3GUI6Dialog9lostFocusEv"
 - func[1901] <_ZN3GUI6Dialog4openEv> -> "_ZN3GUI6Dialog4openEv"
 - func[1903] <_ZN3GUI6Dialog5closeEv> -> "_ZN3GUI6Dialog5closeEv"
 - func[1909] <_ZN3GUI6Dialog10drawDialogENS_9DrawLayerE> -> "_ZN3GUI6Dialog10drawDialogENS_9DrawLayerE"
 - func[1918] <_ZN3GUI6Dialog12handleTickleEv> -> "_ZN3GUI6Dialog12handleTickleEv"
 - func[1911] <_ZN3GUI6Dialog15handleMouseDownEiiii> -> "_ZN3GUI6Dialog15handleMouseDownEiiii"
 - func[1913] <_ZN3GUI6Dialog13handleMouseUpEiiii> -> "_ZN3GUI6Dialog13handleMouseUpEiiii"
 - func[1915] <_ZN3GUI6Dialog13handleKeyDownEN6Common8KeyStateE> -> "_ZN3GUI6Dialog13handleKeyDownEN6Common8KeyStateE"
 - func[1916] <_ZN3GUI6Dialog11handleKeyUpEN6Common8KeyStateE> -> "_ZN3GUI6Dialog11handleKeyUpEN6Common8KeyStateE"
 - func[1917] <_ZN3GUI6Dialog16handleMouseMovedEiii> -> "_ZN3GUI6Dialog16handleMouseMovedEiii"
 - global[4277] -> "_ZTIN3GUI12ConfigDialogE"
 - func[2154] <_ZN3GUI13OptionsDialog13handleCommandEPNS_13CommandSenderEjj> -> "_ZN3GUI13OptionsDialog13handleCommandEPNS_13CommandSenderEjj"
 - func[2176] <_ZN3GUI13OptionsDialog12reflowLayoutEv> -> "_ZN3GUI13OptionsDialog12reflowLayoutEv"
 - func[2149] <_ZN3GUI13OptionsDialog4openEv> -> "_ZN3GUI13OptionsDialog4openEv"
 - func[2153] <_ZN3GUI13OptionsDialog5closeEv> -> "_ZN3GUI13OptionsDialog5closeEv"
 - func[2159] <_ZN3GUI13OptionsDialog12handleTickleEv> -> "_ZN3GUI13OptionsDialog12handleTickleEv"
 - func[2160] <_ZN3GUI13OptionsDialog16handleOtherEventERKN6Common5EventE> -> "_ZN3GUI13OptionsDialog16handleOtherEventERKN6Common5EventE"
 - func[2147] <_ZN3GUI13OptionsDialog5cleanEv> -> "_ZN3GUI13OptionsDialog5cleanEv"
 - func[2177] <_ZN3GUI13OptionsDialog16setupGraphicsTabEv> -> "_ZN3GUI13OptionsDialog16setupGraphicsTabEv"
 - global[4278] -> "_ZTIN3GUI21ExtraGuiOptionsWidgetE"
 - func[2537] <_ZNK3GUI6Widget9isVisibleEv> -> "_ZNK3GUI6Widget9isVisibleEv"
 - func[2634] <_ZN3GUI22OptionsContainerWidget12reflowLayoutEv> -> "_ZN3GUI22OptionsContainerWidget12reflowLayoutEv"
 - func[2637] <_ZN3GUI22OptionsContainerWidget12removeWidgetEPNS_6WidgetE> -> "_ZN3GUI22OptionsContainerWidget12removeWidgetEPNS_6WidgetE"
 - func[2529] <_ZN3GUI6Widget11markAsDirtyEv> -> "_ZN3GUI6Widget11markAsDirtyEv"
 - func[2530] <_ZN3GUI6Widget4drawEv> -> "_ZN3GUI6Widget4drawEv"
 - func[2635] <_ZNK3GUI22OptionsContainerWidget14containsWidgetEPNS_6WidgetE> -> "_ZNK3GUI22OptionsContainerWidget14containsWidgetEPNS_6WidgetE"
 - func[2636] <_ZN3GUI22OptionsContainerWidget10findWidgetEii> -> "_ZN3GUI22OptionsContainerWidget10findWidgetEii"
 - global[4279] -> "_ZTS14MainMenuDialog"
 - global[4280] -> "_ZTIN3GUI6DialogE"
 - global[4281] -> "_ZTSN3GUI12ConfigDialogE"
 - global[4282] -> "_ZTIN3GUI13OptionsDialogE"
 - global[4283] -> "_ZTSN3GUI21ExtraGuiOptionsWidgetE"
 - global[4284] -> "_ZTIN3GUI22OptionsContainerWidgetE"
 - func[1572] <_ZN14MainMenuDialogC1EP6Engine> -> "_ZN14MainMenuDialogC1EP6Engine"
 - func[1586] <_ZN3GUI21ExtraGuiOptionsWidgetC1EPNS_9GuiObjectERKN6Common6StringES6_RKNS3_5ArrayI14ExtraGuiOptionEE> -> "_ZN3GUI21ExtraGuiOptionsWidgetC1EPNS_9GuiObjectERKN6Common6StringES6_RKNS3_5ArrayI14ExtraGuiOptionEE"
 - func[1630] <_ZN19ChainedGamesManagerC2Ev> -> "_ZN19ChainedGamesManagerC2Ev"
 - global[4285] -> "_ZTV19ChainedGamesManager"
 - func[1631] <_ZN19ChainedGamesManager5clearEv> -> "_ZN19ChainedGamesManager5clearEv"
 - func[1632] <_ZN19ChainedGamesManager4pushEN6Common6StringEi> -> "_ZN19ChainedGamesManager4pushEN6Common6StringEi"
 - func[1634] <_ZN6EngineC2EP7OSystem> -> "_ZN6EngineC2EP7OSystem"
 - global[4286] -> "_ZTV6Engine"
 - func[12417] <_ZN6Common23setErrorOutputFormatterEPFvPcPKcmE> -> "_ZN6Common23setErrorOutputFormatterEPFvPcPKcmE"
 - func[12418] <_ZN6Common15setErrorHandlerEPFbPKcE> -> "_ZN6Common15setErrorHandlerEPFbPKcE"
 - func[1851] <_ZN3GUI8DebuggerC2Ev> -> "_ZN3GUI8DebuggerC1Ev"
 - func[1637] <_ZN6EngineD1Ev> -> "_ZN6EngineD2Ev"
 - func[1638] <_ZN6EngineD0Ev> -> "_ZN6EngineD0Ev"
 - func[1639] <_ZN6Engine14initializePathERKN6Common6FSNodeE> -> "_ZN6Engine14initializePathERKN6Common6FSNodeE"
 - func[1640] <_Z13initCommonGFXv> -> "_Z13initCommonGFXv"
 - func[1641] <_Z12splashScreenv> -> "_Z12splashScreenv"
 - global[4287] -> "logo_data"
 - func[5274] <_ZN5Image13BitmapDecoderC2Ev> -> "_ZN5Image13BitmapDecoderC1Ev"
 - func[5278] <_ZN5Image13BitmapDecoder10loadStreamERN6Common18SeekableReadStreamE> -> "_ZN5Image13BitmapDecoder10loadStreamERN6Common18SeekableReadStreamE"
 - func[6722] <_ZN8Graphics7Surface6createEssRKNS_11PixelFormatE> -> "_ZN8Graphics7Surface6createEssRKNS_11PixelFormatE"
 - func[6735] <_ZN8Graphics7Surface8fillRectEN6Common4RectEj> -> "_ZN8Graphics7Surface8fillRectEN6Common4RectEj"
 - func[5793] <_ZN8Graphics11FontManagerC2Ev> -> "_ZN8Graphics11FontManagerC1Ev"
 - func[5807] <_ZNK8Graphics11FontManager14getFontByUsageENS0_9FontUsageE> -> "_ZNK8Graphics11FontManager14getFontByUsageENS0_9FontUsageE"
 - func[5780] <_ZNK8Graphics4Font14getStringWidthERKN6Common6StringE> -> "_ZNK8Graphics4Font14getStringWidthERKN6Common6StringE"
 - func[5783] <_ZNK8Graphics4Font10drawStringEPNS_7SurfaceERKN6Common6StringEiiijNS_9TextAlignEib> -> "_ZNK8Graphics4Font10drawStringEPNS_7SurfaceERKN6Common6StringEiiijNS_9TextAlignEib"
 - func[6739] <_ZNK8Graphics7Surface5scaleEssb> -> "_ZNK8Graphics7Surface5scaleEssb"
 - func[6723] <_ZN8Graphics7Surface4freeEv> -> "_ZN8Graphics7Surface4freeEv"
 - func[6742] <_ZNK8Graphics7Surface9convertToERKNS_11PixelFormatEPKhiS5_iNS_12DitherMethodE> -> "_ZNK8Graphics7Surface9convertToERKNS_11PixelFormatEPKhiS5_iNS_12DitherMethodE"
 - global[4288] -> "splash"
 - func[5275] <_ZN5Image13BitmapDecoderD2Ev> -> "_ZN5Image13BitmapDecoderD1Ev"
 - func[1642] <_Z17initGraphicsModesRKN6Common5ArrayIN8Graphics4ModeEEE> -> "_Z17initGraphicsModesRKN6Common5ArrayIN8Graphics4ModeEEE"
 - func[1643] <_Z12initGraphicsiiPKN8Graphics11PixelFormatE> -> "_Z12initGraphicsiiPKN8Graphics11PixelFormatE"
 - func[1644] <_ZN6Common9SingletonINS_22MainTranslationManagerEE8instanceEv> -> "_ZN6Common9SingletonINS_22MainTranslationManagerEE8instanceEv"
 - func[1645] <_ZN6Common9U32String6formatIJiiEEES0_RKS0_DpT_> -> "_ZN6Common9U32String6formatIJiiEEES0_RKS0_DpT_"
 - func[1646] <_Z15GUIErrorMessageRKN6Common9U32StringEPKc> -> "_Z15GUIErrorMessageRKN6Common9U32StringEPKc"
 - func[2082] <_ZN3GUI20MessageDialogWithURLC2ERKN6Common9U32StringEPKcS4_N8Graphics9TextAlignE> -> "_ZN3GUI20MessageDialogWithURLC1ERKN6Common9U32StringEPKcS4_N8Graphics9TextAlignE"
 - func[1647] <_Z12initGraphicsiiRKN6Common4ListIN8Graphics11PixelFormatEEE> -> "_Z12initGraphicsiiRKN6Common4ListIN8Graphics11PixelFormatEEE"
 - func[1648] <_Z20findCompatibleFormatRKN6Common4ListIN8Graphics11PixelFormatEEES5_> -> "_Z20findCompatibleFormatRKN6Common4ListIN8Graphics11PixelFormatEEES5_"
 - func[1649] <_Z12initGraphicsii> -> "_Z12initGraphicsii"
 - func[1650] <_Z14initGraphics3dii> -> "_Z14initGraphics3dii"
 - func[1651] <_Z22GUIErrorMessageWithURLRKN6Common9U32StringEPKc> -> "_Z22GUIErrorMessageWithURLRKN6Common9U32StringEPKc"
 - func[1652] <_Z22GUIErrorMessageWithURLRKN6Common6StringEPKc> -> "_Z22GUIErrorMessageWithURLRKN6Common6StringEPKc"
 - func[1653] <_Z15GUIErrorMessageRKN6Common6StringEPKc> -> "_Z15GUIErrorMessageRKN6Common6StringEPKc"
 - func[1654] <_Z21GUIErrorMessageFormatPKcz> -> "_Z21GUIErrorMessageFormatPKcz"
 - func[12230] <_ZN6Common6String7vformatEPKcPv> -> "_ZN6Common6String7vformatEPKcPv"
 - func[1655] <_Z33GUIErrorMessageFormatU32StringPtrPKN6Common9U32StringEz> -> "_Z33GUIErrorMessageFormatU32StringPtrPKN6Common9U32StringEz"
 - func[12516] <_ZN6Common9U32String7vformatEPKDiS2_RS0_Pv> -> "_ZN6Common9U32String7vformatEPKDiS2_RS0_Pv"
 - func[1656] <_ZN6Engine26existExtractedCDAudioFilesEj> -> "_ZN6Engine26existExtractedCDAudioFilesEj"
 - func[1657] <_ZN6Engine30isDataAndCDAudioReadFromSameCDEv> -> "_ZN6Engine30isDataAndCDAudioReadFromSameCDEv"
 - func[1658] <_ZN6Engine27warnMissingExtractedCDAudioEv> -> "_ZN6Engine27warnMissingExtractedCDAudioEv"
 - func[1659] <_ZN6Engine14handleAutoSaveEv> -> "_ZN6Engine14handleAutoSaveEv"
 - func[1660] <_ZN6Engine21saveAutosaveIfEnabledEv> -> "_ZN6Engine21saveAutosaveIfEnabledEv"
 - func[12396] <_ZN6Common20convertFromU32StringERKNS_9U32StringENS_8CodePageE> -> "_ZN6Common20convertFromU32StringERKNS_9U32StringENS_8CodePageE"
 - func[1661] <_ZN6Engine29warnBeforeOverwritingAutosaveEv> -> "_ZN6Engine29warnBeforeOverwritingAutosaveEv"
 - func[1761] <_ZNK19SaveStateDescriptor7isValidEv> -> "_ZNK19SaveStateDescriptor7isValidEv"
 - func[1759] <_ZNK19SaveStateDescriptor10isAutosaveEv> -> "_ZNK19SaveStateDescriptor10isAutosaveEv"
 - func[1662] <_ZN6Common5ArrayINS_9U32StringEE10insert_auxEPS1_PKS1_S5_> -> "_ZN6Common5ArrayINS_9U32StringEE10insert_auxEPS1_PKS1_S5_"
 - func[2075] <_ZN3GUI13MessageDialogC2ERKN6Common9U32StringES4_RKNS1_5ArrayIS2_EEN8Graphics9TextAlignE> -> "_ZN3GUI13MessageDialogC1ERKN6Common9U32StringES4_RKNS1_5ArrayIS2_EEN8Graphics9TextAlignE"
 - func[1727] <_ZN10MetaEngine22copySaveFileToFreeSlotEPKci> -> "_ZN10MetaEngine22copySaveFileToFreeSlotEPKci"
 - func[1663] <_ZN6Engine11errorStringEPKcPci> -> "_ZN6Engine11errorStringEPKcPci"
 - func[1664] <_ZN6Engine11pauseEngineEv> -> "_ZN6Engine11pauseEngineEv"
 - func[1689] <_ZN10PauseTokenC2EP6Engine> -> "_ZN10PauseTokenC1EP6Engine"
 - func[1665] <_ZN6Engine12resumeEngineEv> -> "_ZN6Engine12resumeEngineEv"
 - func[1666] <_ZN6Engine17pauseEngineInternEb> -> "_ZN6Engine17pauseEngineInternEb"
 - func[1667] <_ZN6Engine18openMainMenuDialogEv> -> "_ZN6Engine18openMainMenuDialogEv"
 - func[1953] <_ZN3GUI10GuiManager16initTextToSpeechEv> -> "_ZN3GUI10GuiManager16initTextToSpeechEv"
 - func[12510] <_ZN6CommonplERKNS_9U32StringES2_> -> "_ZN6CommonplERKNS_9U32StringES2_"
 - func[12472] <_ZNK6Common18TranslationManager14getTranslationERKNS_6StringE> -> "_ZNK6Common18TranslationManager14getTranslationERKNS_6StringE"
 - func[2074] <_ZN3GUI13MessageDialogC2ERKN6Common6StringES4_S4_N8Graphics9TextAlignEPKc> -> "_ZN3GUI13MessageDialogC1ERKN6Common6StringES4_S4_N8Graphics9TextAlignEPKc"
 - func[1671] <_ZNK6Engine16getTotalPlayTimeEv> -> "_ZNK6Engine16getTotalPlayTimeEv"
 - func[1672] <_ZN6Engine16setTotalPlayTimeEj> -> "_ZN6Engine16setTotalPlayTimeEj"
 - func[1673] <_ZN6Engine9runDialogERN3GUI6DialogE> -> "_ZN6Engine9runDialogERN3GUI6DialogE"
 - func[1693] <_ZN10PauseTokenD2Ev> -> "_ZN10PauseTokenD1Ev"
 - func[1674] <_ZN6Engine17syncSoundSettingsEv> -> "_ZN6Engine17syncSoundSettingsEv"
 - func[1675] <_ZN6Engine8flipMuteEv> -> "_ZN6Engine8flipMuteEv"
 - func[1676] <_ZN6Engine13loadGameStateEi> -> "_ZN6Engine13loadGameStateEi"
 - func[1732] <_ZN10MetaEngine18readSavegameHeaderEPN6Common18SeekableReadStreamEP22ExtendedSavegameHeaderb> -> "_ZN10MetaEngine18readSavegameHeaderEPN6Common18SeekableReadStreamEP22ExtendedSavegameHeaderb"
 - func[1677] <_ZN6Engine14loadGameStreamEPN6Common18SeekableReadStreamE> -> "_ZN6Engine14loadGameStreamEPN6Common18SeekableReadStreamE"
 - func[1678] <_ZN6Engine25canLoadGameStateCurrentlyEv> -> "_ZN6Engine25canLoadGameStateCurrentlyEv"
 - func[1679] <_ZN6Engine13saveGameStateEiRKN6Common6StringEb> -> "_ZN6Engine13saveGameStateEiRKN6Common6StringEb"
 - func[1725] <_ZN10MetaEngine18appendExtendedSaveEPN6Common11OutSaveFileEjNS0_6StringEb> -> "_ZN10MetaEngine18appendExtendedSaveEPN6Common11OutSaveFileEjNS0_6StringEb"
 - func[1680] <_ZN6Engine14saveGameStreamEPN6Common11WriteStreamEb> -> "_ZN6Engine14saveGameStreamEPN6Common11WriteStreamEb"
 - func[1681] <_ZN6Engine25canSaveGameStateCurrentlyEv> -> "_ZN6Engine25canSaveGameStateCurrentlyEv"
 - func[1682] <_ZN6Engine14loadGameDialogEv> -> "_ZN6Engine14loadGameDialogEv"
 - func[1683] <_ZN6Engine14saveGameDialogEv> -> "_ZN6Engine14saveGameDialogEv"
 - func[1684] <_ZN6Engine8quitGameEv> -> "_ZN6Engine8quitGameEv"
 - func[1685] <_ZN6Engine10shouldQuitEv> -> "_ZN6Engine10shouldQuitEv"
 - func[1686] <_ZN6Engine19getOrCreateDebuggerEv> -> "_ZN6Engine19getOrCreateDebuggerEv"
 - func[1687] <_ZN6Engine22getMetaEngineDetectionEv> -> "_ZN6Engine22getMetaEngineDetectionEv"
 - func[1688] <_ZN10PauseTokenC1Ev> -> "_ZN10PauseTokenC2Ev"
 - func[1689] <_ZN10PauseTokenC2EP6Engine> -> "_ZN10PauseTokenC2EP6Engine"
 - func[1690] <_ZN10PauseTokenaSERKS_> -> "_ZN10PauseTokenaSERKS_"
 - func[1691] <_ZN10PauseTokenC1ERKS_> -> "_ZN10PauseTokenC2ERKS_"
 - func[1692] <_ZN10PauseToken5clearEv> -> "_ZN10PauseToken5clearEv"
 - func[1693] <_ZN10PauseTokenD2Ev> -> "_ZN10PauseTokenD2Ev"
 - func[1694] <_ZN10PauseTokenC1EOS_> -> "_ZN10PauseTokenC2EOS_"
 - func[1695] <_ZN10PauseTokenaSEOS_> -> "_ZN10PauseTokenaSEOS_"
 - func[1696] <_ZN6Engine11getDebuggerEv> -> "_ZN6Engine11getDebuggerEv"
 - func[1697] <_ZNK6Engine10hasFeatureENS_13EngineFeatureE> -> "_ZNK6Engine10hasFeatureENS_13EngineFeatureE"
 - func[1698] <_ZN6Engine17applyGameSettingsEv> -> "_ZN6Engine17applyGameSettingsEv"
 - func[1699] <_ZNK6Engine16getSaveStateNameEi> -> "_ZNK6Engine16getSaveStateNameEi"
 - func[1700] <_ZN6Engine24canSaveAutosaveCurrentlyEv> -> "_ZN6Engine24canSaveAutosaveCurrentlyEv"
 - func[1701] <_ZNK6Engine15getAutosaveSlotEv> -> "_ZNK6Engine15getAutosaveSlotEv"
 - func[1702] <_ZN19ChainedGamesManagerD2Ev> -> "_ZN19ChainedGamesManagerD2Ev"
 - func[1703] <_ZN19ChainedGamesManagerD0Ev> -> "_ZN19ChainedGamesManagerD0Ev"
 - global[4289] -> "_ZTI19ChainedGamesManager"
 - global[4290] -> "_ZTI6Engine"
 - func[1637] <_ZN6EngineD1Ev> -> "_ZN6EngineD1Ev"
 - global[4291] -> "_ZTS6Engine"
 - global[4292] -> "_ZTS19ChainedGamesManager"
 - global[4293] -> "_ZTSN6Common9SingletonI19ChainedGamesManagerEE"
 - global[4294] -> "_ZTIN6Common9SingletonI19ChainedGamesManagerEE"
 - func[1688] <_ZN10PauseTokenC1Ev> -> "_ZN10PauseTokenC1Ev"
 - func[1691] <_ZN10PauseTokenC1ERKS_> -> "_ZN10PauseTokenC1ERKS_"
 - func[1694] <_ZN10PauseTokenC1EOS_> -> "_ZN10PauseTokenC1EOS_"
 - func[1706] <_ZN19PlainGameDescriptor2ofEPKcS1_> -> "_ZN19PlainGameDescriptor2ofEPKcS1_"
 - func[1707] <_ZN23QualifiedGameDescriptorC2EPKcRK19PlainGameDescriptor> -> "_ZN23QualifiedGameDescriptorC2EPKcRK19PlainGameDescriptor"
 - func[1708] <_ZN12DetectedGameC2Ev> -> "_ZN12DetectedGameC2Ev"
 - func[1709] <_ZN12DetectedGameC1ERKN6Common6StringERK19PlainGameDescriptor> -> "_ZN12DetectedGameC2ERKN6Common6StringERK19PlainGameDescriptor"
 - func[1711] <_ZNK12DetectedGame10updateDescEb> -> "_ZNK12DetectedGame10updateDescEb"
 - func[11993] <_ZN6Common28getGameGUIOptionsDescriptionERKNS_6StringE> -> "_ZN6Common28getGameGUIOptionsDescriptionERKNS_6StringE"
 - func[1714] <_ZN16DetectionResultsC2ERKN6Common5ArrayI12DetectedGameEE> -> "_ZN16DetectionResultsC2ERKN6Common5ArrayI12DetectedGameEE"
 - func[1717] <_ZNK16DetectionResults17listDetectedGamesEv> -> "_ZNK16DetectionResults17listDetectedGamesEv"
 - func[1719] <_Z25generateUnknownGameReportRKN6Common5ArrayI12DetectedGameEEbbj> -> "_Z25generateUnknownGameReportRKN6Common5ArrayI12DetectedGameEEbbj"
 - func[12504] <_ZN6Common9U32StringpLERKS0_> -> "_ZN6Common9U32StringpLERKS0_"
 - func[11730] <_ZN6Common10BaseStringIDiE8wordWrapEj> -> "_ZN6Common10BaseStringIDiE8wordWrapEj"
 - func[1720] <_Z25generateUnknownGameReportRK12DetectedGamebbj> -> "_Z25generateUnknownGameReportRK12DetectedGamebbj"
 - func[1709] <_ZN12DetectedGameC1ERKN6Common6StringERK19PlainGameDescriptor> -> "_ZN12DetectedGameC1ERKN6Common6StringERK19PlainGameDescriptor"
 - func[3273] <_ZN6Common6KeymapC2ENS0_10KeymapTypeERKNS_6StringERKNS_9U32StringE> -> "_ZN6Common6KeymapC1ENS0_10KeymapTypeERKNS_6StringERKNS_9U32StringE"
 - global[4295] -> "_ZN6Common24kStandardActionLeftClickE"
 - func[3238] <_ZN6Common6ActionC2EPKcRKNS_9U32StringE> -> "_ZN6Common6ActionC1EPKcRKNS_9U32StringE"
 - func[3239] <_ZN6Common6Action22addDefaultInputMappingERKNS_6StringE> -> "_ZN6Common6Action22addDefaultInputMappingERKNS_6StringE"
 - func[3277] <_ZN6Common6Keymap9addActionEPNS_6ActionE> -> "_ZN6Common6Keymap9addActionEPNS_6ActionE"
 - global[4296] -> "_ZN6Common26kStandardActionMiddleClickE"
 - global[4297] -> "_ZN6Common25kStandardActionRightClickE"
 - global[4298] -> "_ZN6Common20kStandardActionPauseE"
 - global[4299] -> "_ZN6Common27kStandardActionOpenMainMenuE"
 - global[4300] -> "_ZN6Common19kStandardActionSkipE"
 - global[4301] -> "_ZN6Common21kStandardActionMoveUpE"
 - global[4302] -> "_ZN6Common23kStandardActionMoveDownE"
 - global[4303] -> "_ZN6Common23kStandardActionMoveLeftE"
 - global[4304] -> "_ZN6Common24kStandardActionMoveRightE"
 - func[1726] <_ZN10MetaEngine26appendExtendedSaveToStreamEPN6Common11WriteStreamEjNS0_6StringEbj> -> "_ZN10MetaEngine26appendExtendedSaveToStreamEPN6Common11WriteStreamEjNS0_6StringEbj"
 - func[12280] <_ZN6Common11WriteStream11writeStringERKNS_6StringE> -> "_ZN6Common11WriteStream11writeStringERKNS_6StringE"
 - func[6835] <_ZN8Graphics13saveThumbnailERN6Common11WriteStreamERKNS_7SurfaceE> -> "_ZN8Graphics13saveThumbnailERN6Common11WriteStreamERKNS_7SurfaceE"
 - func[1728] <_ZN10MetaEngine17findEmptySaveSlotEPKc> -> "_ZN10MetaEngine17findEmptySaveSlotEPKc"
 - func[6636] <_Z25createThumbnailFromScreenPN8Graphics7SurfaceE> -> "_Z25createThumbnailFromScreenPN8Graphics7SurfaceE"
 - func[1730] <_ZN10MetaEngine19parseSavegameHeaderEP22ExtendedSavegameHeaderP19SaveStateDescriptor> -> "_ZN10MetaEngine19parseSavegameHeaderEP22ExtendedSavegameHeaderP19SaveStateDescriptor"
 - func[1754] <_ZN19SaveStateDescriptor11setSaveDateEiii> -> "_ZN19SaveStateDescriptor11setSaveDateEiii"
 - func[1755] <_ZN19SaveStateDescriptor11setSaveTimeEii> -> "_ZN19SaveStateDescriptor11setSaveTimeEii"
 - func[1757] <_ZN19SaveStateDescriptor11setPlayTimeEj> -> "_ZN19SaveStateDescriptor11setPlayTimeEj"
 - func[1731] <_ZN10MetaEngine15fillDummyHeaderEP22ExtendedSavegameHeader> -> "_ZN10MetaEngine15fillDummyHeaderEP22ExtendedSavegameHeader"
 - func[12283] <_ZN6Common10ReadStream16readPascalStringEb> -> "_ZN6Common10ReadStream16readPascalStringEb"
 - func[1749] <_ZN19SaveStateDescriptorC2Ev> -> "_ZN19SaveStateDescriptorC1Ev"
 - func[6832] <_ZN8Graphics13loadThumbnailERN6Common18SeekableReadStreamERPNS_7SurfaceEb> -> "_ZN8Graphics13loadThumbnailERN6Common18SeekableReadStreamERPNS_7SurfaceEb"
 - func[1734] <_ZN6Common5ArrayI19SaveStateDescriptorE9push_backERKS1_> -> "_ZN6Common5ArrayI19SaveStateDescriptorE9push_backERKS1_"
 - func[1735] <_ZN6Common4sortIP19SaveStateDescriptor33SaveStateDescriptorSlotComparatorEEvT_S4_T0_> -> "_ZN6Common4sortIP19SaveStateDescriptor33SaveStateDescriptorSlotComparatorEEvT_S4_T0_"
 - func[1736] <_ZN6Common5ArrayI19SaveStateDescriptorE10insert_auxEPS1_PKS1_S5_> -> "_ZN6Common5ArrayI19SaveStateDescriptorE10insert_auxEPS1_PKS1_S5_"
 - func[1737] <_Z4SWAPI19SaveStateDescriptorEvRT_S2_> -> "_Z4SWAPI19SaveStateDescriptorEvRT_S2_"
 - func[1738] <_ZNK10MetaEngine9listSavesEPKcb> -> "_ZNK10MetaEngine9listSavesEPKcb"
 - func[1750] <_ZN19SaveStateDescriptorC2EPK10MetaEngineiRKN6Common9U32StringE> -> "_ZN19SaveStateDescriptorC1EPK10MetaEngineiRKN6Common9U32StringE"
 - func[1753] <_ZN19SaveStateDescriptor12setThumbnailEPN8Graphics7SurfaceE> -> "_ZN19SaveStateDescriptor12setThumbnailEPN8Graphics7SurfaceE"
 - func[1743] <_ZN10MetaEngineD0Ev> -> "_ZN10MetaEngineD0Ev"
 - func[1744] <_ZNK10MetaEngine18getExtraGuiOptionsERKN6Common6StringE> -> "_ZNK10MetaEngine18getExtraGuiOptionsERKN6Common6StringE"
 - func[1745] <_ZN6Common13copy_backwardIP19SaveStateDescriptorS2_EET0_T_S4_S3_> -> "_ZN6Common13copy_backwardIP19SaveStateDescriptorS2_EET0_T_S4_S3_"
 - func[1746] <_ZN6Common4copyIPK19SaveStateDescriptorPS1_EET0_T_S6_S5_> -> "_ZN6Common4copyIPK19SaveStateDescriptorPS1_EET0_T_S6_S5_"
 - global[4305] -> "_ZTV10MetaEngine"
 - global[4306] -> "_ZTS10MetaEngine"
 - func[1747] <_ZN7Engines24upgradeTargetIfNecessaryEPKNS_14ObsoleteGameIDE> -> "_ZN7Engines24upgradeTargetIfNecessaryEPKNS_14ObsoleteGameIDE"
 - func[1749] <_ZN19SaveStateDescriptorC2Ev> -> "_ZN19SaveStateDescriptorC2Ev"
 - func[1750] <_ZN19SaveStateDescriptorC2EPK10MetaEngineiRKN6Common9U32StringE> -> "_ZN19SaveStateDescriptorC2EPK10MetaEngineiRKN6Common9U32StringE"
 - func[1751] <_ZN19SaveStateDescriptor12initSaveTypeEPK10MetaEngine> -> "_ZN19SaveStateDescriptor12initSaveTypeEPK10MetaEngine"
 - func[1752] <_ZN19SaveStateDescriptorC1EPK10MetaEngineiRKN6Common6StringE> -> "_ZN19SaveStateDescriptorC2EPK10MetaEngineiRKN6Common6StringE"
 - global[4307] -> "_ZTVN6Common26BasePtrTrackerDeletionImplIN8Graphics7SurfaceENS1_14SurfaceDeleterEEE"
 - func[1756] <_ZN19SaveStateDescriptor11setPlayTimeEii> -> "_ZN19SaveStateDescriptor11setPlayTimeEii"
 - func[1758] <_ZN19SaveStateDescriptor11setAutosaveEb> -> "_ZN19SaveStateDescriptor11setAutosaveEb"
 - func[1760] <_ZNK19SaveStateDescriptor15hasAutosaveNameEv> -> "_ZNK19SaveStateDescriptor15hasAutosaveNameEv"
 - func[12512] <_ZNK6Common9U32String6substrEmm> -> "_ZNK6Common9U32String6substrEmm"
 - func[11686] <_ZNK6Common10BaseStringIDiEeqERKS1_> -> "_ZNK6Common10BaseStringIDiEeqERKS1_"
 - func[1762] <_ZN6Common26BasePtrTrackerDeletionImplIN8Graphics7SurfaceENS1_14SurfaceDeleterEED0Ev> -> "_ZN6Common26BasePtrTrackerDeletionImplIN8Graphics7SurfaceENS1_14SurfaceDeleterEED0Ev"
 - func[1763] <_ZN6Common26BasePtrTrackerDeletionImplIN8Graphics7SurfaceENS1_14SurfaceDeleterEE14destructObjectEv> -> "_ZN6Common26BasePtrTrackerDeletionImplIN8Graphics7SurfaceENS1_14SurfaceDeleterEE14destructObjectEv"
 - global[4308] -> "_ZTIN6Common26BasePtrTrackerDeletionImplIN8Graphics7SurfaceENS1_14SurfaceDeleterEEE"
 - global[4309] -> "_ZTSN6Common26BasePtrTrackerDeletionImplIN8Graphics7SurfaceENS1_14SurfaceDeleterEEE"
 - func[1752] <_ZN19SaveStateDescriptorC1EPK10MetaEngineiRKN6Common6StringE> -> "_ZN19SaveStateDescriptorC1EPK10MetaEngineiRKN6Common6StringE"
 - func[1764] <_ZN3GUI11AboutDialogC2Ev> -> "_ZN3GUI11AboutDialogC2Ev"
 - func[1898] <_ZN3GUI6DialogC1Eiiii> -> "_ZN3GUI6DialogC2Eiiii"
 - global[4310] -> "_ZTVN3GUI11AboutDialogE"
 - func[1765] <_ZN3GUI11AboutDialog12reflowLayoutEv> -> "_ZN3GUI11AboutDialog12reflowLayoutEv"
 - func[1766] <_ZN3GUI11AboutDialog7addLineERKN6Common9U32StringE> -> "_ZN3GUI11AboutDialog7addLineERKN6Common9U32StringE"
 - func[11685] <_ZN6Common10BaseStringIDiEC1EPKDiS3_> -> "_ZN6Common10BaseStringIDiEC2EPKDiS3_"
 - func[2364] <_ZNK3GUI11ThemeEngine7getFontENS0_9FontStyleE> -> "_ZNK3GUI11ThemeEngine7getFontENS0_9FontStyleE"
 - func[5788] <_ZNK8Graphics4Font12wordWrapTextERKN6Common9U32StringEiRNS1_5ArrayIS2_EEij> -> "_ZNK8Graphics4Font12wordWrapTextERKN6Common9U32StringEiRNS1_5ArrayIS2_EEij"
 - func[1767] <_ZN3GUI11AboutDialog4openEv> -> "_ZN3GUI11AboutDialog4openEv"
 - func[1768] <_ZN3GUI11AboutDialog5closeEv> -> "_ZN3GUI11AboutDialog5closeEv"
 - func[1769] <_ZN3GUI11AboutDialog10drawDialogENS_9DrawLayerE> -> "_ZN3GUI11AboutDialog10drawDialogENS_9DrawLayerE"
 - func[11707] <_ZN6Common10BaseStringIDiE10makeUniqueEv> -> "_ZN6Common10BaseStringIDiE10makeUniqueEv"
 - func[1770] <_ZNK6Common10BaseStringIDiEixEi> -> "_ZNK6Common10BaseStringIDiEixEi"
 - func[2345] <_ZNK3GUI11ThemeEngine13getFontHeightENS0_9FontStyleE> -> "_ZNK3GUI11ThemeEngine13getFontHeightENS0_9FontStyleE"
 - func[2355] <_ZN3GUI11ThemeEngine8drawTextERKN6Common4RectERKNS1_9U32StringENS0_5StateEN8Graphics9TextAlignENS0_18TextInversionStateEibNS0_9FontStyleENS0_9FontColorEbS4_> -> "_ZN3GUI11ThemeEngine8drawTextERKN6Common4RectERKNS1_9U32StringENS0_5StateEN8Graphics9TextAlignENS0_18TextInversionStateEibNS0_9FontStyleENS0_9FontColorEbS4_"
 - func[1771] <_ZN3GUI11AboutDialog12handleTickleEv> -> "_ZN3GUI11AboutDialog12handleTickleEv"
 - func[1772] <_ZN3GUI11AboutDialog13handleMouseUpEiiii> -> "_ZN3GUI11AboutDialog13handleMouseUpEiiii"
 - func[1773] <_ZN3GUI11AboutDialog13handleKeyDownEN6Common8KeyStateE> -> "_ZN3GUI11AboutDialog13handleKeyDownEN6Common8KeyStateE"
 - func[1774] <_ZN3GUI9EEHandler13handleKeyDownERN6Common8KeyStateE> -> "_ZN3GUI9EEHandler13handleKeyDownERN6Common8KeyStateE"
 - func[1783] <_ZN3GUI2EEC2Ev> -> "_ZN3GUI2EEC1Ev"
 - func[1775] <_ZN3GUI2EE3runEv> -> "_ZN3GUI2EE3runEv"
 - func[1784] <_ZN3GUI2EED2Ev> -> "_ZN3GUI2EED1Ev"
 - func[1967] <_ZN3GUI10GuiManager10redrawFullEv> -> "_ZN3GUI10GuiManager10redrawFullEv"
 - func[1776] <_ZN3GUI11AboutDialog11handleKeyUpEN6Common8KeyStateE> -> "_ZN3GUI11AboutDialog11handleKeyUpEN6Common8KeyStateE"
 - func[1777] <_ZN3GUI9ThemeEval6getVarERKN6Common6StringE> -> "_ZN3GUI9ThemeEval6getVarERKN6Common6StringE"
 - func[2365] <_ZNK3GUI11ThemeEngine14getStringWidthERKN6Common9U32StringENS0_9FontStyleE> -> "_ZNK3GUI11ThemeEngine14getStringWidthERKN6Common9U32StringENS0_9FontStyleE"
 - func[1778] <_ZN3GUI2EE13setupGraphicsEv> -> "_ZN3GUI2EE13setupGraphicsEv"
 - func[1779] <_ZN3GUI2EE4initEv> -> "_ZN3GUI2EE4initEv"
 - func[1978] <_ZN3GUI10GuiManager17checkScreenChangeEv> -> "_ZN3GUI10GuiManager17checkScreenChangeEv"
 - func[1780] <_ZN3GUI2EE14processKeyDownERN6Common5EventE> -> "_ZN3GUI2EE14processKeyDownERN6Common5EventE"
 - func[1781] <_ZN3GUI2EE4gameEv> -> "_ZN3GUI2EE4gameEv"
 - func[1782] <_ZN3GUI2EE9putshapesEv> -> "_ZN3GUI2EE9putshapesEv"
 - func[1783] <_ZN3GUI2EEC2Ev> -> "_ZN3GUI2EEC2Ev"
 - func[5809] <_ZN8Graphics9AmigaFontC2EPN6Common18SeekableReadStreamE> -> "_ZN8Graphics9AmigaFontC1EPN6Common18SeekableReadStreamE"
 - func[1784] <_ZN3GUI2EED2Ev> -> "_ZN3GUI2EED2Ev"
 - func[5810] <_ZN8Graphics9AmigaFontD2Ev> -> "_ZN8Graphics9AmigaFontD1Ev"
 - func[1785] <_ZN3GUI2EE3clsEb> -> "_ZN3GUI2EE3clsEb"
 - func[6725] <_ZN8Graphics7Surface8copyFromERKS0_> -> "_ZN8Graphics7Surface8copyFromERKS0_"
 - global[4311] -> "_ZN3GUI5codesE"
 - func[1786] <_ZN3GUI2EE6doMenuERN6Common5EventE> -> "_ZN3GUI2EE6doMenuERN6Common5EventE"
 - func[1787] <_ZN3GUI2EE12processKeyUpERN6Common5EventE> -> "_ZN3GUI2EE12processKeyUpERN6Common5EventE"
 - func[1788] <_ZN3GUI2EE9computer0Ev> -> "_ZN3GUI2EE9computer0Ev"
 - func[1789] <_ZN3GUI2EE9computer1Ev> -> "_ZN3GUI2EE9computer1Ev"
 - func[1790] <_ZN3GUI2EE6getPosEv> -> "_ZN3GUI2EE6getPosEv"
 - func[1791] <_ZN3GUI2EE12docollisionsEv> -> "_ZN3GUI2EE12docollisionsEv"
 - func[1792] <_ZN3GUI2EE8moveballEv> -> "_ZN3GUI2EE8moveballEv"
 - func[1793] <_ZN3GUI2EE9calcscoreEv> -> "_ZN3GUI2EE9calcscoreEv"
 - func[6731] <_ZN8Graphics7Surface24copyRectToSurfaceWithKeyEPKviiiiij> -> "_ZN8Graphics7Surface24copyRectToSurfaceWithKeyEPKviiiiij"
 - func[1794] <_ZN3GUI2EE10loadSoundsEv> -> "_ZN3GUI2EE10loadSoundsEv"
 - func[1795] <_ZN3GUI2EE9setwinnerEv> -> "_ZN3GUI2EE9setwinnerEv"
 - func[1796] <_ZN3GUI2EE7resetptEv> -> "_ZN3GUI2EE7resetptEv"
 - global[4312] -> "_ZN3GUI5resetE"
 - func[1797] <_ZN3GUI2EE9playSoundEi> -> "_ZN3GUI2EE9playSoundEi"
 - func[1798] <_ZN3GUI2EE11destinationEiii> -> "_ZN3GUI2EE11destinationEiii"
 - func[1799] <_ZN3GUI2EE4drawEiii> -> "_ZN3GUI2EE4drawEiii"
 - func[1800] <_ZN3GUI11AboutDialogD2Ev> -> "_ZN3GUI11AboutDialogD2Ev"
 - func[1801] <_ZN3GUI11AboutDialogD0Ev> -> "_ZN3GUI11AboutDialogD0Ev"
 - global[4313] -> "_ZTIN3GUI11AboutDialogE"
 - global[4314] -> "_ZTSN3GUI11AboutDialogE"
 - func[1802] <_ZN3GUI13BrowserDialogC1ERKN6Common9U32StringEb> -> "_ZN3GUI13BrowserDialogC2ERKN6Common9U32StringEb"
 - global[4315] -> "_ZTVN3GUI13BrowserDialogE"
 - func[2716] <_ZN3GUI14EditTextWidgetC2EPNS_9GuiObjectERKN6Common6StringERKNS3_9U32StringES9_jjNS_11ThemeEngine9FontStyleE> -> "_ZN3GUI14EditTextWidgetC1EPNS_9GuiObjectERKN6Common6StringERKNS3_9U32StringES9_jjNS_11ThemeEngine9FontStyleE"
 - func[2841] <_ZN3GUI10ListWidgetC2EPNS_6DialogERKN6Common6StringERKNS3_9U32StringEj> -> "_ZN3GUI10ListWidgetC1EPNS_6DialogERKN6Common6StringERKNS3_9U32StringEj"
 - func[1803] <_ZN3GUI13BrowserDialog8runModalEv> -> "_ZN3GUI13BrowserDialog8runModalEv"
 - func[1804] <_ZN3GUI13BrowserDialog4openEv> -> "_ZN3GUI13BrowserDialog4openEv"
 - func[1805] <_ZN6Common6FSNodeaSERKS0_> -> "_ZN6Common6FSNodeaSERKS0_"
 - func[1806] <_ZN3GUI13BrowserDialog13handleCommandEPNS_13CommandSenderEjj> -> "_ZN3GUI13BrowserDialog13handleCommandEPNS_13CommandSenderEjj"
 - func[1807] <_ZN3GUI13BrowserDialog13updateListingEv> -> "_ZN3GUI13BrowserDialog13updateListingEv"
 - func[2848] <_ZN3GUI10ListWidget11setSelectedEi> -> "_ZN3GUI10ListWidget11setSelectedEi"
 - func[1808] <_ZN6Common4sortIPNS_6FSNodeENS_4LessIS1_EEEEvT_S5_T0_> -> "_ZN6Common4sortIPNS_6FSNodeENS_4LessIS1_EEEEvT_S5_T0_"
 - func[2878] <_ZN3GUI10ListWidget13getThemeColorENS_11ThemeEngine9FontColorE> -> "_ZN3GUI10ListWidget13getThemeColorENS_11ThemeEngine9FontColorE"
 - func[2880] <_ZN3GUI10ListWidget12escapeStringERKN6Common9U32StringE> -> "_ZN3GUI10ListWidget12escapeStringERKN6Common9U32StringE"
 - func[2850] <_ZN3GUI10ListWidget7setListERKN6Common5ArrayINS1_9U32StringEEE> -> "_ZN3GUI10ListWidget7setListERKN6Common5ArrayINS1_9U32StringEEE"
 - func[2854] <_ZN3GUI10ListWidget8scrollToEi> -> "_ZN3GUI10ListWidget8scrollToEi"
 - func[1984] <_ZN3GUI10GuiManager23scheduleTopDialogRedrawEv> -> "_ZN3GUI10GuiManager23scheduleTopDialogRedrawEv"
 - func[1809] <_ZN3GUI13BrowserDialogD2Ev> -> "_ZN3GUI13BrowserDialogD2Ev"
 - func[1810] <_ZN3GUI13BrowserDialogD0Ev> -> "_ZN3GUI13BrowserDialogD0Ev"
 - func[1811] <_Z4SWAPIN6Common6FSNodeEEvRT_S3_> -> "_Z4SWAPIN6Common6FSNodeEEvRT_S3_"
 - func[11956] <_ZNK6Common6FSNodeltERKS0_> -> "_ZNK6Common6FSNodeltERKS0_"
 - global[4316] -> "_ZTIN3GUI13BrowserDialogE"
 - global[4317] -> "_ZTSN3GUI13BrowserDialogE"
 - func[1802] <_ZN3GUI13BrowserDialogC1ERKN6Common9U32StringEb> -> "_ZN3GUI13BrowserDialogC1ERKN6Common9U32StringEb"
 - func[1812] <_ZN3GUI13ChooserDialogC1ERKN6Common9U32StringENS1_6StringE> -> "_ZN3GUI13ChooserDialogC2ERKN6Common9U32StringENS1_6StringE"
 - global[4318] -> "_ZTVN3GUI13ChooserDialogE"
 - func[1813] <_ZN3GUI13ChooserDialog7setListERKN6Common5ArrayINS1_9U32StringEEE> -> "_ZN3GUI13ChooserDialog7setListERKN6Common5ArrayINS1_9U32StringEEE"
 - func[1814] <_ZN3GUI13ChooserDialog13handleCommandEPNS_13CommandSenderEjj> -> "_ZN3GUI13ChooserDialog13handleCommandEPNS_13CommandSenderEjj"
 - func[1815] <_ZN3GUI13ChooserDialogD0Ev> -> "_ZN3GUI13ChooserDialogD0Ev"
 - global[4319] -> "_ZTIN3GUI13ChooserDialogE"
 - global[4320] -> "_ZTSN3GUI13ChooserDialogE"
 - func[1812] <_ZN3GUI13ChooserDialogC1ERKN6Common9U32StringENS1_6StringE> -> "_ZN3GUI13ChooserDialogC1ERKN6Common9U32StringENS1_6StringE"
 - func[1816] <_ZN3GUI13ConsoleDialogC1Eff> -> "_ZN3GUI13ConsoleDialogC2Eff"
 - global[4321] -> "_ZTVN3GUI13ConsoleDialogE"
 - func[2926] <_ZN3GUI15ScrollBarWidgetC2EPNS_9GuiObjectEiiii> -> "_ZN3GUI15ScrollBarWidgetC1EPNS_9GuiObjectEiiii"
 - func[1817] <_ZN3GUI13ConsoleDialog4initEv> -> "_ZN3GUI13ConsoleDialog4initEv"
 - func[1818] <_ZN3GUI13ConsoleDialog15printCharInternEi> -> "_ZN3GUI13ConsoleDialog15printCharInternEi"
 - func[1819] <_ZN3GUI13ConsoleDialog9drawCaretEb> -> "_ZN3GUI13ConsoleDialog9drawCaretEb"
 - func[1820] <_ZN3GUI13ConsoleDialog5printEPKc> -> "_ZN3GUI13ConsoleDialog5printEPKc"
 - func[1821] <_ZN3GUI13ConsoleDialogD1Ev> -> "_ZN3GUI13ConsoleDialogD2Ev"
 - func[1822] <_ZN3GUI13ConsoleDialog11saveHistoryEv> -> "_ZN3GUI13ConsoleDialog11saveHistoryEv"
 - func[1823] <_ZN3GUI13ConsoleDialogD0Ev> -> "_ZN3GUI13ConsoleDialogD0Ev"
 - func[1821] <_ZN3GUI13ConsoleDialogD1Ev> -> "_ZN3GUI13ConsoleDialogD1Ev"
 - func[1824] <_ZN6Common9SingletonIN3GUI10GuiManagerEE8instanceEv> -> "_ZN6Common9SingletonIN3GUI10GuiManagerEE8instanceEv"
 - func[1825] <_ZN3GUI13ConsoleDialog15slideUpAndCloseEv> -> "_ZN3GUI13ConsoleDialog15slideUpAndCloseEv"
 - func[1826] <_ZN3GUI13ConsoleDialog4openEv> -> "_ZN3GUI13ConsoleDialog4openEv"
 - func[1827] <_ZN3GUI13ConsoleDialog11loadHistoryEv> -> "_ZN3GUI13ConsoleDialog11loadHistoryEv"
 - func[1828] <_ZN3GUI13ConsoleDialog5closeEv> -> "_ZN3GUI13ConsoleDialog5closeEv"
 - func[1829] <_ZN3GUI13ConsoleDialog10drawDialogENS_9DrawLayerE> -> "_ZN3GUI13ConsoleDialog10drawDialogENS_9DrawLayerE"
 - func[1830] <_ZN3GUI13ConsoleDialog8drawLineEi> -> "_ZN3GUI13ConsoleDialog8drawLineEi"
 - func[2356] <_ZN3GUI11ThemeEngine8drawCharERKN6Common4RectEhPKN8Graphics4FontENS0_9FontColorE> -> "_ZN3GUI11ThemeEngine8drawCharERKN6Common4RectEhPKN8Graphics4FontENS0_9FontColorE"
 - func[1831] <_ZN3GUI13ConsoleDialog12reflowLayoutEv> -> "_ZN3GUI13ConsoleDialog12reflowLayoutEv"
 - func[2933] <_ZN3GUI15ScrollBarWidget6recalcEv> -> "_ZN3GUI15ScrollBarWidget6recalcEv"
 - func[1832] <_ZN3GUI13ConsoleDialog18updateScrollBufferEv> -> "_ZN3GUI13ConsoleDialog18updateScrollBufferEv"
 - func[1833] <_ZN3GUI13ConsoleDialog12handleTickleEv> -> "_ZN3GUI13ConsoleDialog12handleTickleEv"
 - func[2351] <_ZN3GUI11ThemeEngine9drawCaretERKN6Common4RectEb> -> "_ZN3GUI11ThemeEngine9drawCaretERKN6Common4RectEb"
 - func[1834] <_ZN3GUI13ConsoleDialog16handleMouseWheelEiii> -> "_ZN3GUI13ConsoleDialog16handleMouseWheelEiii"
 - func[1835] <_ZN3GUI13ConsoleDialog12getUserInputEv> -> "_ZN3GUI13ConsoleDialog12getUserInputEv"
 - func[11651] <_ZN6Common10BaseStringIcE10insertCharEcj> -> "_ZN6Common10BaseStringIcE10insertCharEcj"
 - func[1836] <_ZN3GUI13ConsoleDialog13handleKeyDownEN6Common8KeyStateE> -> "_ZN3GUI13ConsoleDialog13handleKeyDownEN6Common8KeyStateE"
 - func[1837] <_ZN3GUI13ConsoleDialog12addToHistoryERKN6Common6StringE> -> "_ZN3GUI13ConsoleDialog12addToHistoryERKN6Common6StringE"
 - func[1838] <_ZN3GUI13ConsoleDialog8killCharEv> -> "_ZN3GUI13ConsoleDialog8killCharEv"
 - func[1839] <_ZN3GUI13ConsoleDialog15scrollToCurrentEv> -> "_ZN3GUI13ConsoleDialog15scrollToCurrentEv"
 - func[1840] <_ZN3GUI13ConsoleDialog16insertIntoPromptEPKc> -> "_ZN3GUI13ConsoleDialog16insertIntoPromptEPKc"
 - func[1841] <_ZN3GUI13ConsoleDialog13historyScrollEi> -> "_ZN3GUI13ConsoleDialog13historyScrollEi"
 - func[1842] <_ZN3GUI13ConsoleDialog21defaultKeyDownHandlerERN6Common8KeyStateE> -> "_ZN3GUI13ConsoleDialog21defaultKeyDownHandlerERN6Common8KeyStateE"
 - func[1843] <_ZN3GUI13ConsoleDialog8nextLineEv> -> "_ZN3GUI13ConsoleDialog8nextLineEv"
 - func[1844] <_ZN3GUI13ConsoleDialog11specialKeysEN6Common7KeyCodeE> -> "_ZN3GUI13ConsoleDialog11specialKeysEN6Common7KeyCodeE"
 - func[1845] <_ZN3GUI13ConsoleDialog9printCharEi> -> "_ZN3GUI13ConsoleDialog9printCharEi"
 - func[1846] <_ZN3GUI13ConsoleDialog13handleCommandEPNS_13CommandSenderEjj> -> "_ZN3GUI13ConsoleDialog13handleCommandEPNS_13CommandSenderEjj"
 - func[1847] <_ZN3GUI13ConsoleDialog8killLineEv> -> "_ZN3GUI13ConsoleDialog8killLineEv"
 - func[1848] <_ZN3GUI13ConsoleDialog12killLastWordEv> -> "_ZN3GUI13ConsoleDialog12killLastWordEv"
 - func[1849] <_ZN3GUI13ConsoleDialog11printFormatEiPKcz> -> "_ZN3GUI13ConsoleDialog11printFormatEiPKcz"
 - func[1850] <_ZN3GUI13ConsoleDialog12vprintFormatEiPKcPv> -> "_ZN3GUI13ConsoleDialog12vprintFormatEiPKcPv"
 - global[4322] -> "_ZTIN3GUI13ConsoleDialogE"
 - global[4323] -> "_ZTSN3GUI13ConsoleDialogE"
 - func[1816] <_ZN3GUI13ConsoleDialogC1Eff> -> "_ZN3GUI13ConsoleDialogC1Eff"
 - func[1851] <_ZN3GUI8DebuggerC2Ev> -> "_ZN3GUI8DebuggerC2Ev"
 - global[4324] -> "_ZTVN3GUI8DebuggerE"
 - func[1852] <_ZN3GUI8Debugger26debuggerCompletionCallbackEPNS_13ConsoleDialogEPKcRN6Common6StringEPv> -> "_ZN3GUI8Debugger26debuggerCompletionCallbackEPNS_13ConsoleDialogEPKcRN6Common6StringEPv"
 - func[1853] <_ZN3GUI8Debugger21debuggerInputCallbackEPNS_13ConsoleDialogEPKcPv> -> "_ZN3GUI8Debugger21debuggerInputCallbackEPNS_13ConsoleDialogEPKcPv"
 - func[1854] <_ZN6Common5ArrayIN3GUI8Debugger3VarEE10insert_auxEPS3_PKS3_S7_> -> "_ZN6Common5ArrayIN3GUI8Debugger3VarEE10insert_auxEPS3_PKS3_S7_"
 - func[1855] <_ZN3GUI8Debugger7cmdExitEiPPKc> -> "_ZN3GUI8Debugger7cmdExitEiPPKc"
 - global[4325] -> "_ZTVN6Common11Functor2MemIiPPKcbN3GUI8DebuggerEEE"
 - func[1856] <_ZN3GUI8Debugger11registerCmdERKN6Common6StringEPNS1_8Functor2IiPPKcbEE> -> "_ZN3GUI8Debugger11registerCmdERKN6Common6StringEPNS1_8Functor2IiPPKcbEE"
 - func[1857] <_ZN3GUI8Debugger7cmdHelpEiPPKc> -> "_ZN3GUI8Debugger7cmdHelpEiPPKc"
 - func[1858] <_ZN3GUI8Debugger10cmdOpenLogEiPPKc> -> "_ZN3GUI8Debugger10cmdOpenLogEiPPKc"
 - func[1859] <_ZN3GUI8Debugger6cmdMd5EiPPKc> -> "_ZN3GUI8Debugger6cmdMd5EiPPKc"
 - func[1860] <_ZN3GUI8Debugger9cmdMd5MacEiPPKc> -> "_ZN3GUI8Debugger9cmdMd5MacEiPPKc"
 - func[1861] <_ZN3GUI8Debugger11cmdExecFileEiPPKc> -> "_ZN3GUI8Debugger11cmdExecFileEiPPKc"
 - func[1862] <_ZN3GUI8Debugger13cmdDebugLevelEiPPKc> -> "_ZN3GUI8Debugger13cmdDebugLevelEiPPKc"
 - func[1863] <_ZN3GUI8Debugger17cmdDebugFlagsListEiPPKc> -> "_ZN3GUI8Debugger17cmdDebugFlagsListEiPPKc"
 - func[1864] <_ZN3GUI8Debugger18cmdDebugFlagEnableEiPPKc> -> "_ZN3GUI8Debugger18cmdDebugFlagEnableEiPPKc"
 - func[1865] <_ZN3GUI8Debugger19cmdDebugFlagDisableEiPPKc> -> "_ZN3GUI8Debugger19cmdDebugFlagDisableEiPPKc"
 - func[1866] <_ZN3GUI8Debugger12parseCommandEPKc> -> "_ZN3GUI8Debugger12parseCommandEPKc"
 - func[1867] <_ZNK3GUI8Debugger11tabCompleteEPKcRN6Common6StringE> -> "_ZNK3GUI8Debugger11tabCompleteEPKcRN6Common6StringE"
 - func[1868] <_ZN3GUI8Debugger15registerVarImplERKN6Common6StringEPvNS0_7VarTypeEi> -> "_ZN3GUI8Debugger15registerVarImplERKN6Common6StringEPvNS0_7VarTypeEi"
 - global[4326] -> "_ZTVN6Common18BasePtrTrackerImplINS_8Functor2IiPPKcbEEEE"
 - func[1869] <_ZN6Common7HashMapINS_6StringENS_9SharedPtrINS_8Functor2IiPPKcbEEEENS_15IgnoreCase_HashENS_18IgnoreCase_EqualToEE24lookupAndCreateIfMissingERKS1_> -> "_ZN6Common7HashMapINS_6StringENS_9SharedPtrINS_8Functor2IiPPKcbEEEENS_15IgnoreCase_HashENS_18IgnoreCase_EqualToEE24lookupAndCreateIfMissingERKS1_"
 - func[1870] <_ZN3GUI8Debugger11debugPrintfEPKcz> -> "_ZN3GUI8Debugger11debugPrintfEPKcz"
 - func[1871] <_ZNK6Common7HashMapINS_6StringENS_9SharedPtrINS_8Functor2IiPPKcbEEEENS_15IgnoreCase_HashENS_18IgnoreCase_EqualToEE12IteratorImplIKNSB_4NodeEE5derefEv> -> "_ZNK6Common7HashMapINS_6StringENS_9SharedPtrINS_8Functor2IiPPKcbEEEENS_15IgnoreCase_HashENS_18IgnoreCase_EqualToEE12IteratorImplIKNSB_4NodeEE5derefEv"
 - func[1872] <_ZN6Common4sortINS_12ListInternal8IteratorINS_9SharedPtrINS_13ArchiveMemberEEEEEN3GUI17ArchiveMemberLessEEEvT_S9_T0_> -> "_ZN6Common4sortINS_12ListInternal8IteratorINS_9SharedPtrINS_13ArchiveMemberEEEEEN3GUI17ArchiveMemberLessEEEvT_S9_T0_"
 - func[12034] <_ZN6Common13MacResManager4openERKNS_4PathE> -> "_ZN6Common13MacResManager4openERKNS_4PathE"
 - func[12043] <_ZN6Common13MacResManager18openFileOrDataForkERKNS_4PathE> -> "_ZN6Common13MacResManager18openFileOrDataForkERKNS_4PathE"
 - func[11859] <_ZN6Common12DebugManager16getDebugChannelsEv> -> "_ZN6Common12DebugManager16getDebugChannelsEv"
 - func[11862] <_ZN6Common12DebugManager23disableAllDebugChannelsEv> -> "_ZN6Common12DebugManager23disableAllDebugChannelsEv"
 - func[11857] <_ZN6Common12DebugManager19disableDebugChannelERKNS_6StringE> -> "_ZN6Common12DebugManager19disableDebugChannelERKNS_6StringE"
 - func[1873] <_ZN3GUI8DebuggerD1Ev> -> "_ZN3GUI8DebuggerD2Ev"
 - func[1874] <_ZN6Common7HashMapINS_6StringENS_9SharedPtrINS_8Functor2IiPPKcbEEEENS_15IgnoreCase_HashENS_18IgnoreCase_EqualToEED2Ev> -> "_ZN6Common7HashMapINS_6StringENS_9SharedPtrINS_8Functor2IiPPKcbEEEENS_15IgnoreCase_HashENS_18IgnoreCase_EqualToEED2Ev"
 - func[1875] <_ZN3GUI8DebuggerD0Ev> -> "_ZN3GUI8DebuggerD0Ev"
 - func[1873] <_ZN3GUI8DebuggerD1Ev> -> "_ZN3GUI8DebuggerD1Ev"
 - func[1876] <_ZN3GUI8Debugger9clearVarsEv> -> "_ZN3GUI8Debugger9clearVarsEv"
 - func[1877] <_ZN6Common5ArrayIN3GUI8Debugger3VarEE7reserveEj> -> "_ZN6Common5ArrayIN3GUI8Debugger3VarEE7reserveEj"
 - func[1878] <_ZN3GUI8Debugger15getCharsPerLineEv> -> "_ZN3GUI8Debugger15getCharsPerLineEv"
 - func[1879] <_ZN3GUI8Debugger17debugPrintColumnsERKN6Common5ArrayINS1_6StringEEE> -> "_ZN3GUI8Debugger17debugPrintColumnsERKN6Common5ArrayINS1_6StringEEE"
 - func[1880] <_ZN3GUI8Debugger8preEnterEv> -> "_ZN3GUI8Debugger8preEnterEv"
 - func[1881] <_ZN3GUI8Debugger9postEnterEv> -> "_ZN3GUI8Debugger9postEnterEv"
 - func[1882] <_ZN3GUI8Debugger6attachEPKc> -> "_ZN3GUI8Debugger6attachEPKc"
 - func[1883] <_ZN3GUI8Debugger6detachEv> -> "_ZN3GUI8Debugger6detachEv"
 - func[1884] <_ZN3GUI8Debugger7onFrameEv> -> "_ZN3GUI8Debugger7onFrameEv"
 - func[1885] <_ZN3GUI8Debugger5enterEv> -> "_ZN3GUI8Debugger5enterEv"
 - func[1886] <_ZN3GUI8Debugger13handleCommandEiPPKcRb> -> "_ZN3GUI8Debugger13handleCommandEiPPKcRb"
 - func[1887] <_ZN3GUI8Debugger12splitCommandERN6Common6StringERiPPKc> -> "_ZN3GUI8Debugger12splitCommandERN6Common6StringERiPPKc"
 - func[19699] <strncmp> -> "strncmp"
 - func[12522] <_ZN6Common9parseBoolERKNS_6StringERb> -> "_ZN6Common9parseBoolERKNS_6StringERb"
 - func[19000] <isspace> -> "isspace"
 - func[12210] <_ZNK6Common6String19hasPrefixIgnoreCaseEPKc> -> "_ZNK6Common6String19hasPrefixIgnoreCaseEPKc"
 - func[1888] <_ZN6Common13sortPartitionINS_12ListInternal8IteratorINS_9SharedPtrINS_13ArchiveMemberEEEEEN3GUI17ArchiveMemberLessEEET_S9_S9_S9_RT0_> -> "_ZN6Common13sortPartitionINS_12ListInternal8IteratorINS_9SharedPtrINS_13ArchiveMemberEEEEEN3GUI17ArchiveMemberLessEEET_S9_S9_S9_RT0_"
 - func[1889] <_ZN6Common8Functor2IiPPKcbED2Ev> -> "_ZN6Common8Functor2IiPPKcbED2Ev"
 - func[1890] <_ZN6Common11Functor2MemIiPPKcbN3GUI8DebuggerEED0Ev> -> "_ZN6Common11Functor2MemIiPPKcbN3GUI8DebuggerEED0Ev"
 - func[1891] <_ZNK6Common11Functor2MemIiPPKcbN3GUI8DebuggerEE7isValidEv> -> "_ZNK6Common11Functor2MemIiPPKcbN3GUI8DebuggerEE7isValidEv"
 - func[1892] <_ZNK6Common11Functor2MemIiPPKcbN3GUI8DebuggerEEclEiS3_> -> "_ZNK6Common11Functor2MemIiPPKcbN3GUI8DebuggerEEclEiS3_"
 - func[1893] <_ZN6Common7HashMapINS_6StringENS_9SharedPtrINS_8Functor2IiPPKcbEEEENS_15IgnoreCase_HashENS_18IgnoreCase_EqualToEE13expandStorageEj> -> "_ZN6Common7HashMapINS_6StringENS_9SharedPtrINS_8Functor2IiPPKcbEEEENS_15IgnoreCase_HashENS_18IgnoreCase_EqualToEE13expandStorageEj"
 - func[1894] <_ZN6Common18BasePtrTrackerImplINS_8Functor2IiPPKcbEEED0Ev> -> "_ZN6Common18BasePtrTrackerImplINS_8Functor2IiPPKcbEEED0Ev"
 - func[1895] <_ZN6Common18BasePtrTrackerImplINS_8Functor2IiPPKcbEEE14destructObjectEv> -> "_ZN6Common18BasePtrTrackerImplINS_8Functor2IiPPKcbEEE14destructObjectEv"
 - func[1896] <_Z4SWAPIN6Common9SharedPtrINS0_13ArchiveMemberEEEEvRT_S5_> -> "_Z4SWAPIN6Common9SharedPtrINS0_13ArchiveMemberEEEEvRT_S5_"
 - func[1897] <_ZNK3GUI17ArchiveMemberLessclERKN6Common9SharedPtrINS1_13ArchiveMemberEEES6_> -> "_ZNK3GUI17ArchiveMemberLessclERKN6Common9SharedPtrINS1_13ArchiveMemberEEES6_"
 - func[12248] <_ZNK6Common6String19compareToIgnoreCaseERKS0_> -> "_ZNK6Common6String19compareToIgnoreCaseERKS0_"
 - global[4327] -> "_ZTIN3GUI8DebuggerE"
 - global[4328] -> "_ZTSN3GUI8DebuggerE"
 - global[4329] -> "_ZTIN6Common11Functor2MemIiPPKcbN3GUI8DebuggerEEE"
 - global[4330] -> "_ZTSN6Common11Functor2MemIiPPKcbN3GUI8DebuggerEEE"
 - global[4331] -> "_ZTSN6Common8Functor2IiPPKcbEE"
 - global[4332] -> "_ZTSN6Common14BinaryFunctionIiPPKcbEE"
 - global[4333] -> "_ZTIN6Common14BinaryFunctionIiPPKcbEE"
 - global[4334] -> "_ZTIN6Common8Functor2IiPPKcbEE"
 - global[4335] -> "_ZTIN6Common18BasePtrTrackerImplINS_8Functor2IiPPKcbEEEE"
 - global[4336] -> "_ZTSN6Common18BasePtrTrackerImplINS_8Functor2IiPPKcbEEEE"
 - func[2127] <_ZN3GUI9GuiObjectC2Eiiii> -> "_ZN3GUI9GuiObjectC2Eiiii"
 - global[4337] -> "_ZTVN3GUI6DialogE"
 - func[2128] <_ZN3GUI9GuiObjectC2ERKN6Common6StringE> -> "_ZN3GUI9GuiObjectC2ERKN6Common6StringE"
 - func[1972] <_ZN3GUI10GuiManager7runLoopEv> -> "_ZN3GUI10GuiManager7runLoopEv"
 - func[1980] <_ZN3GUI10GuiManager10openDialogEPNS_6DialogE> -> "_ZN3GUI10GuiManager10openDialogEPNS_6DialogE"
 - func[1902] <_ZN3GUI6Dialog23setDefaultFocusedWidgetEv> -> "_ZN3GUI6Dialog23setDefaultFocusedWidgetEv"
 - func[1982] <_ZN3GUI10GuiManager14closeTopDialogEv> -> "_ZN3GUI10GuiManager14closeTopDialogEv"
 - func[2399] <_ZN3GUI9ThemeEval18reflowDialogLayoutERKN6Common6StringEPNS_6WidgetE> -> "_ZN3GUI9ThemeEval18reflowDialogLayoutERKN6Common6StringEPNS_6WidgetE"
 - func[2133] <_ZN3GUI9GuiObject12reflowLayoutEv> -> "_ZN3GUI9GuiObject12reflowLayoutEv"
 - func[1906] <_ZN3GUI6Dialog14setFocusWidgetEPNS_6WidgetE> -> "_ZN3GUI6Dialog14setFocusWidgetEPNS_6WidgetE"
 - func[1908] <_ZN3GUI6Dialog18markWidgetsAsDirtyEv> -> "_ZN3GUI6Dialog18markWidgetsAsDirtyEv"
 - func[2378] <_ZN3GUI11ThemeEngine15disableClipRectEv> -> "_ZN3GUI11ThemeEngine15disableClipRectEv"
 - func[2350] <_ZN3GUI11ThemeEngine20drawDialogBackgroundERKN6Common4RectENS0_16DialogBackgroundE> -> "_ZN3GUI11ThemeEngine20drawDialogBackgroundERKN6Common4RectENS0_16DialogBackgroundE"
 - func[1910] <_ZN3GUI6Dialog11drawWidgetsEv> -> "_ZN3GUI6Dialog11drawWidgetsEv"
 - func[2531] <_ZN3GUI6Widget17findWidgetInChainEPS0_ii> -> "_ZN3GUI6Widget17findWidgetInChainEPS0_ii"
 - func[1912] <_ZN3GUI6Dialog10findWidgetEii> -> "_ZN3GUI6Dialog10findWidgetEii"
 - func[19796] <toupper> -> "toupper"
 - func[2532] <_ZN3GUI6Widget17findWidgetInChainEPS0_PKc> -> "_ZN3GUI6Widget17findWidgetInChainEPS0_PKc"
 - func[2134] <_ZN3GUI9GuiObject12removeWidgetEPNS_6WidgetE> -> "_ZN3GUI9GuiObject12removeWidgetEPNS_6WidgetE"
 - func[1922] <_ZN3GUI6DialogD0Ev> -> "_ZN3GUI6DialogD0Ev"
 - global[4338] -> "_ZTSN3GUI6DialogE"
 - global[4339] -> "_ZTIN3GUI9GuiObjectE"
 - func[1898] <_ZN3GUI6DialogC1Eiiii> -> "_ZN3GUI6DialogC1Eiiii"
 - func[1899] <_ZN3GUI6DialogC1ERKN6Common6StringE> -> "_ZN3GUI6DialogC1ERKN6Common6StringE"
 - func[1923] <_ZN3GUI14EditGameDialogC1ERKN6Common6StringE> -> "_ZN3GUI14EditGameDialogC2ERKN6Common6StringE"
 - global[4340] -> "_ZTVN3GUI14EditGameDialogE"
 - global[4341] -> "_ZTVN3GUI20DomainEditTextWidgetE"
 - func[2716] <_ZN3GUI14EditTextWidgetC2EPNS_9GuiObjectERKN6Common6StringERKNS3_9U32StringES9_jjNS_11ThemeEngine9FontStyleE> -> "_ZN3GUI14EditTextWidgetC2EPNS_9GuiObjectERKN6Common6StringERKNS3_9U32StringES9_jjNS_11ThemeEngine9FontStyleE"
 - func[2906] <_ZN3GUI11PopUpWidgetC2EPNS_9GuiObjectERKN6Common6StringERKNS3_9U32StringEj> -> "_ZN3GUI11PopUpWidgetC1EPNS_9GuiObjectERKN6Common6StringERKNS3_9U32StringEj"
 - func[2912] <_ZN3GUI11PopUpWidget11appendEntryERKN6Common9U32StringEj> -> "_ZN3GUI11PopUpWidget11appendEntryERKN6Common9U32StringEj"
 - func[2914] <_ZN3GUI11PopUpWidget11appendEntryERKN6Common6StringEj> -> "_ZN3GUI11PopUpWidget11appendEntryERKN6Common6StringEj"
 - global[4342] -> "_ZN6Common11g_languagesE"
 - func[12015] <_ZN6Common26checkGameGUIOptionLanguageENS_8LanguageERKNS_6StringE> -> "_ZN6Common26checkGameGUIOptionLanguageENS_8LanguageERKNS_6StringE"
 - global[4343] -> "_ZN6Common11g_platformsE"
 - func[2945] <_ZN3GUI21ScrollContainerWidgetC2EPNS_9GuiObjectERKN6Common6StringES6_j> -> "_ZN3GUI21ScrollContainerWidgetC1EPNS_9GuiObjectERKN6Common6StringES6_j"
 - func[2961] <_ZN3GUI21ScrollContainerWidget17setBackgroundTypeENS_11ThemeEngine16WidgetBackgroundE> -> "_ZN3GUI21ScrollContainerWidget17setBackgroundTypeENS_11ThemeEngine16WidgetBackgroundE"
 - func[2170] <_ZN3GUI13OptionsDialog18addGraphicControlsEPNS_9GuiObjectERKN6Common6StringE> -> "_ZN3GUI13OptionsDialog18addGraphicControlsEPNS_9GuiObjectERKN6Common6StringE"
 - func[2171] <_ZN3GUI13OptionsDialog16addAudioControlsEPNS_9GuiObjectERKN6Common6StringE> -> "_ZN3GUI13OptionsDialog16addAudioControlsEPNS_9GuiObjectERKN6Common6StringE"
 - func[2172] <_ZN3GUI13OptionsDialog15addMIDIControlsEPNS_9GuiObjectERKN6Common6StringE> -> "_ZN3GUI13OptionsDialog15addMIDIControlsEPNS_9GuiObjectERKN6Common6StringE"
 - func[2173] <_ZN3GUI13OptionsDialog15addMT32ControlsEPNS_9GuiObjectERKN6Common6StringE> -> "_ZN3GUI13OptionsDialog15addMT32ControlsEPNS_9GuiObjectERKN6Common6StringE"
 - func[2562] <_ZN3GUI14addClearButtonEPNS_9GuiObjectERKN6Common6StringEjiiii> -> "_ZN3GUI14addClearButtonEPNS_9GuiObjectERKN6Common6StringEjiiii"
 - func[1924] <_ZN3GUI14EditGameDialog16setupGraphicsTabEv> -> "_ZN3GUI14EditGameDialog16setupGraphicsTabEv"
 - func[1925] <_ZN3GUI14EditGameDialog4openEv> -> "_ZN3GUI14EditGameDialog4openEv"
 - func[2546] <_ZN3GUI16StaticTextWidget8setLabelERKN6Common9U32StringE> -> "_ZN3GUI16StaticTextWidget8setLabelERKN6Common9U32StringE"
 - func[2917] <_ZN3GUI11PopUpWidget14setSelectedTagEj> -> "_ZN3GUI11PopUpWidget14setSelectedTagEj"
 - func[2916] <_ZN3GUI11PopUpWidget11setSelectedEi> -> "_ZN3GUI11PopUpWidget11setSelectedEi"
 - func[1926] <_ZN3GUI14EditGameDialog5applyEv> -> "_ZN3GUI14EditGameDialog5applyEv"
 - func[11786] <_ZN6Common13ConfigManager9removeKeyERKNS_6StringES3_> -> "_ZN6Common13ConfigManager9removeKeyERKNS_6StringES3_"
 - func[11690] <_ZNK6Common10BaseStringIDiEneERKS1_> -> "_ZNK6Common10BaseStringIDiEneERKS1_"
 - func[1927] <_ZN3GUI14EditGameDialog13handleCommandEPNS_13CommandSenderEjj> -> "_ZN3GUI14EditGameDialog13handleCommandEPNS_13CommandSenderEjj"
 - func[2164] <_ZN3GUI13OptionsDialog20setMT32SettingsStateEb> -> "_ZN3GUI13OptionsDialog20setMT32SettingsStateEb"
 - func[2161] <_ZN3GUI13OptionsDialog23setGraphicSettingsStateEb> -> "_ZN3GUI13OptionsDialog23setGraphicSettingsStateEb"
 - func[2162] <_ZN3GUI13OptionsDialog21setAudioSettingsStateEb> -> "_ZN3GUI13OptionsDialog21setAudioSettingsStateEb"
 - func[2163] <_ZN3GUI13OptionsDialog20setMIDISettingsStateEb> -> "_ZN3GUI13OptionsDialog20setMIDISettingsStateEb"
 - func[11805] <_ZN6Common13ConfigManager16renameGameDomainERKNS_6StringES3_> -> "_ZN6Common13ConfigManager16renameGameDomainERKNS_6StringES3_"
 - func[1928] <_ZN3GUI14EditGameDialogD0Ev> -> "_ZN3GUI14EditGameDialogD0Ev"
 - func[1929] <_ZN3GUI14EditTextWidgetD2Ev> -> "_ZN3GUI14EditTextWidgetD2Ev"
 - global[4344] -> "_ZTVN3GUI14EditTextWidgetE"
 - func[2697] <_ZN3GUI14EditableWidgetD1Ev> -> "_ZN3GUI14EditableWidgetD2Ev"
 - func[1930] <_ZN3GUI20DomainEditTextWidgetD0Ev> -> "_ZN3GUI20DomainEditTextWidgetD0Ev"
 - func[1931] <_ZN3GUI6Widget13handleCommandEPNS_13CommandSenderEjj> -> "_ZN3GUI6Widget13handleCommandEPNS_13CommandSenderEjj"
 - func[1932] <_ZN3GUI14EditTextWidget10wantsFocusEv> -> "_ZN3GUI14EditTextWidget10wantsFocusEv"
 - func[1933] <_ZNK3GUI6Widget14containsWidgetEPS0_> -> "_ZNK3GUI6Widget14containsWidgetEPS0_"
 - func[1934] <_ZN3GUI6Widget10findWidgetEii> -> "_ZN3GUI6Widget10findWidgetEii"
 - func[1935] <_ZNK3GUI14EditableWidget13getEditStringEv> -> "_ZNK3GUI14EditableWidget13getEditStringEv"
 - func[1936] <_ZNK3GUI20DomainEditTextWidget13isCharAllowedEDi> -> "_ZNK3GUI20DomainEditTextWidget13isCharAllowedEDi"
 - func[1937] <_ZThn212_N3GUI20DomainEditTextWidgetD1Ev> -> "_ZThn212_N3GUI20DomainEditTextWidgetD1Ev"
 - func[1938] <_ZThn212_N3GUI20DomainEditTextWidgetD0Ev> -> "_ZThn212_N3GUI20DomainEditTextWidgetD0Ev"
 - func[1939] <_ZN3GUI13CommandSender11sendCommandEjj> -> "_ZN3GUI13CommandSender11sendCommandEjj"
 - global[4345] -> "_ZTIN3GUI14EditGameDialogE"
 - global[4346] -> "_ZTSN3GUI14EditGameDialogE"
 - global[4347] -> "_ZTIN3GUI20DomainEditTextWidgetE"
 - func[2718] <_ZN3GUI14EditTextWidget12reflowLayoutEv> -> "_ZN3GUI14EditTextWidget12reflowLayoutEv"
 - func[2719] <_ZN3GUI14EditTextWidget15handleMouseDownEiiii> -> "_ZN3GUI14EditTextWidget15handleMouseDownEiiii"
 - func[2711] <_ZN3GUI14EditableWidget13handleKeyDownEN6Common8KeyStateE> -> "_ZN3GUI14EditableWidget13handleKeyDownEN6Common8KeyStateE"
 - func[2709] <_ZN3GUI14EditableWidget12handleTickleEv> -> "_ZN3GUI14EditableWidget12handleTickleEv"
 - func[2720] <_ZN3GUI14EditTextWidget10drawWidgetEv> -> "_ZN3GUI14EditTextWidget10drawWidgetEv"
 - func[2722] <_ZN3GUI14EditTextWidget19receivedFocusWidgetEv> -> "_ZN3GUI14EditTextWidget19receivedFocusWidgetEv"
 - func[2723] <_ZN3GUI14EditTextWidget15lostFocusWidgetEv> -> "_ZN3GUI14EditTextWidget15lostFocusWidgetEv"
 - func[2717] <_ZN3GUI14EditTextWidget13setEditStringERKN6Common9U32StringE> -> "_ZN3GUI14EditTextWidget13setEditStringERKN6Common9U32StringE"
 - func[2724] <_ZN3GUI14EditTextWidget13startEditModeEv> -> "_ZN3GUI14EditTextWidget13startEditModeEv"
 - func[2725] <_ZN3GUI14EditTextWidget11endEditModeEv> -> "_ZN3GUI14EditTextWidget11endEditModeEv"
 - func[2726] <_ZN3GUI14EditTextWidget13abortEditModeEv> -> "_ZN3GUI14EditTextWidget13abortEditModeEv"
 - func[2721] <_ZNK3GUI14EditTextWidget11getEditRectEv> -> "_ZNK3GUI14EditTextWidget11getEditRectEv"
 - func[2714] <_ZNK3GUI14EditableWidget14getCaretOffsetEv> -> "_ZNK3GUI14EditableWidget14getCaretOffsetEv"
 - global[4348] -> "_ZTSN3GUI20DomainEditTextWidgetE"
 - global[4349] -> "_ZTIN3GUI14EditTextWidgetE"
 - func[1923] <_ZN3GUI14EditGameDialogC1ERKN6Common6StringE> -> "_ZN3GUI14EditGameDialogC1ERKN6Common6StringE"
 - func[1942] <_ZN3GUI17FileBrowserDialogC1EPKcS2_iS2_> -> "_ZN3GUI17FileBrowserDialogC2EPKcS2_iS2_"
 - global[4350] -> "_ZTVN3GUI17FileBrowserDialogE"
 - func[12392] <_ZN6Common18convertToU32StringEPKcNS_8CodePageE> -> "_ZN6Common18convertToU32StringEPKcNS_8CodePageE"
 - func[1943] <_ZN3GUI17FileBrowserDialog4openEv> -> "_ZN3GUI17FileBrowserDialog4openEv"
 - func[1944] <_ZN3GUI17FileBrowserDialog13updateListingEv> -> "_ZN3GUI17FileBrowserDialog13updateListingEv"
 - func[1945] <_ZN3GUI17FileBrowserDialog13handleCommandEPNS_13CommandSenderEjj> -> "_ZN3GUI17FileBrowserDialog13handleCommandEPNS_13CommandSenderEjj"
 - func[1946] <_ZN3GUI17FileBrowserDialog16normalieFileNameEv> -> "_ZN3GUI17FileBrowserDialog16normalieFileNameEv"
 - func[1947] <_ZN3GUI17FileBrowserDialog13isProceedSaveEv> -> "_ZN3GUI17FileBrowserDialog13isProceedSaveEv"
 - func[12222] <_ZNK6Common6String11matchStringERKS0_bPKc> -> "_ZNK6Common6String11matchStringERKS0_bPKc"
 - func[1948] <_ZN3GUI17FileBrowserDialogD2Ev> -> "_ZN3GUI17FileBrowserDialogD2Ev"
 - func[1949] <_ZN3GUI17FileBrowserDialogD0Ev> -> "_ZN3GUI17FileBrowserDialogD0Ev"
 - global[4351] -> "_ZTIN3GUI17FileBrowserDialogE"
 - global[4352] -> "_ZTSN3GUI17FileBrowserDialogE"
 - func[1942] <_ZN3GUI17FileBrowserDialogC1EPKcS2_iS2_> -> "_ZN3GUI17FileBrowserDialogC1EPKcS2_iS2_"
 - func[1950] <_ZN3GUI10GuiManagerC2Ev> -> "_ZN3GUI10GuiManagerC2Ev"
 - global[4353] -> "_ZTVN3GUI10GuiManagerE"
 - func[12077] <_ZN6Common5MutexC2Ev> -> "_ZN6Common5MutexC1Ev"
 - func[1951] <_ZN3GUI10GuiManager18computeScaleFactorEv> -> "_ZN3GUI10GuiManager18computeScaleFactorEv"
 - func[1952] <_ZN3GUI10GuiManager14setLanguageRTLEv> -> "_ZN3GUI10GuiManager14setLanguageRTLEv"
 - func[1954] <_ZN3GUI10GuiManager12initIconsSetEv> -> "_ZN3GUI10GuiManager12initIconsSetEv"
 - global[4354] -> "_ZN3GUI11ThemeEngine20_defaultRendererModeE"
 - func[2299] <_ZN3GUI11ThemeEngine18findModeConfigNameENS0_12GraphicsModeE> -> "_ZN3GUI11ThemeEngine18findModeConfigNameENS0_12GraphicsModeE"
 - func[2298] <_ZN3GUI11ThemeEngine8findModeERKN6Common6StringE> -> "_ZN3GUI11ThemeEngine8findModeERKN6Common6StringE"
 - func[1955] <_ZN3GUI10GuiManager12loadNewThemeEN6Common6StringENS_11ThemeEngine12GraphicsModeEb> -> "_ZN3GUI10GuiManager12loadNewThemeEN6Common6StringENS_11ThemeEngine12GraphicsModeEb"
 - func[2300] <_ZN3GUI11ThemeEngine17setBaseResolutionEiif> -> "_ZN3GUI11ThemeEngine17setBaseResolutionEiif"
 - func[12429] <_ZN6Common19TextToSpeechManager6enableEb> -> "_ZN6Common19TextToSpeechManager6enableEb"
 - func[12423] <_ZN6Common8TTSVoiceC2ERKS0_> -> "_ZN6Common8TTSVoiceC1ERKS0_"
 - func[12424] <_ZN6Common8TTSVoiceD2Ev> -> "_ZN6Common8TTSVoiceD1Ev"
 - func[12083] <_ZN6Common9StackLockC2ERKNS_5MutexEPKc> -> "_ZN6Common9StackLockC1ERKNS_5MutexEPKc"
 - func[11576] <_ZN6Common9SearchSet5clearEv> -> "_ZN6Common9SearchSet5clearEv"
 - func[11973] <_ZN6Common11FSDirectoryC2ERKNS_4PathEibbb> -> "_ZN6Common11FSDirectoryC1ERKNS_4PathEibbb"
 - func[1956] <_ZN6Common4sortINS_12ListInternal8IteratorINS_9SharedPtrINS_13ArchiveMemberEEEEEN3GUI31ArchiveMemberListBackComparatorEEEvT_S9_T0_> -> "_ZN6Common4sortINS_12ListInternal8IteratorINS_9SharedPtrINS_13ArchiveMemberEEEEEN3GUI31ArchiveMemberListBackComparatorEEEvT_S9_T0_"
 - func[12736] <_ZN6Common14makeZipArchiveEPNS_18SeekableReadStreamE> -> "_ZN6Common14makeZipArchiveEPNS_18SeekableReadStreamE"
 - func[12264] <_ZN6Common13normalizePathERKNS_6StringEc> -> "_ZN6Common13normalizePathERKNS_6StringEc"
 - func[12737] <_ZN6Common14makeZipArchiveERKNS_6FSNodeE> -> "_ZN6Common14makeZipArchiveERKNS_6FSNodeE"
 - func[12084] <_ZN6Common9StackLockD2Ev> -> "_ZN6Common9StackLockD1Ev"
 - func[2289] <_ZN3GUI11ThemeEngineC2EN6Common6StringENS0_12GraphicsModeE> -> "_ZN3GUI11ThemeEngineC1EN6Common6StringENS0_12GraphicsModeE"
 - func[2301] <_ZN3GUI11ThemeEngine4initEv> -> "_ZN3GUI11ThemeEngine4initEv"
 - func[2294] <_ZN3GUI11ThemeEngineD2Ev> -> "_ZN3GUI11ThemeEngineD1Ev"
 - func[2311] <_ZN3GUI11ThemeEngine7disableEv> -> "_ZN3GUI11ThemeEngine7disableEv"
 - func[2309] <_ZN3GUI11ThemeEngine6enableEv> -> "_ZN3GUI11ThemeEngine6enableEv"
 - func[1957] <_ZN3GUI10GuiManager11setupCursorEv> -> "_ZN3GUI10GuiManager11setupCursorEv"
 - func[1958] <_ZN3GUI10GuiManager6redrawEv> -> "_ZN3GUI10GuiManager6redrawEv"
 - func[1959] <_ZN3GUI10GuiManagerD1Ev> -> "_ZN3GUI10GuiManagerD2Ev"
 - func[12078] <_ZN6Common5MutexD2Ev> -> "_ZN6Common5MutexD1Ev"
 - func[1960] <_ZThn4_N3GUI10GuiManagerD1Ev> -> "_ZThn4_N3GUI10GuiManagerD1Ev"
 - func[1959] <_ZN3GUI10GuiManagerD1Ev> -> "_ZN3GUI10GuiManagerD1Ev"
 - func[1961] <_ZN3GUI10GuiManagerD0Ev> -> "_ZN3GUI10GuiManagerD0Ev"
 - func[1962] <_ZThn4_N3GUI10GuiManagerD0Ev> -> "_ZThn4_N3GUI10GuiManagerD0Ev"
 - func[1963] <_ZN6Common13sortPartitionINS_12ListInternal8IteratorINS_9SharedPtrINS_13ArchiveMemberEEEEEN3GUI31ArchiveMemberListBackComparatorEEET_S9_S9_S9_RT0_> -> "_ZN6Common13sortPartitionINS_12ListInternal8IteratorINS_9SharedPtrINS_13ArchiveMemberEEEEEN3GUI31ArchiveMemberListBackComparatorEEET_S9_S9_S9_RT0_"
 - func[1964] <_ZNK3GUI10GuiManager9getKeymapEv> -> "_ZNK3GUI10GuiManager9getKeymapEv"
 - global[4355] -> "_ZN6Common23kStandardActionInteractE"
 - global[4356] -> "_ZN6Common17kStandardActionEEE"
 - func[1965] <_ZN3GUI10GuiManager10initKeymapEv> -> "_ZN3GUI10GuiManager10initKeymapEv"
 - func[3321] <_ZNK6Common9Keymapper9getKeymapERKNS_6StringE> -> "_ZNK6Common9Keymapper9getKeymapERKNS_6StringE"
 - func[1966] <_ZN3GUI10GuiManager12enableKeymapEb> -> "_ZN3GUI10GuiManager12enableKeymapEb"
 - func[3322] <_ZN6Common9Keymapper20setEnabledKeymapTypeENS_6Keymap10KeymapTypeE> -> "_ZN6Common9Keymapper20setEnabledKeymapTypeENS_6Keymap10KeymapTypeE"
 - func[5753] <_ZN8Graphics13CursorManager9showMouseEb> -> "_ZN8Graphics13CursorManager9showMouseEb"
 - func[2307] <_ZN3GUI11ThemeEngine8clearAllEv> -> "_ZN3GUI11ThemeEngine8clearAllEv"
 - func[2374] <_ZN3GUI11ThemeEngine16drawToBackbufferEv> -> "_ZN3GUI11ThemeEngine16drawToBackbufferEv"
 - func[2362] <_ZN3GUI11ThemeEngine18applyScreenShadingENS0_12ShadingStyleE> -> "_ZN3GUI11ThemeEngine18applyScreenShadingENS0_12ShadingStyleE"
 - func[2375] <_ZN3GUI11ThemeEngine12drawToScreenEv> -> "_ZN3GUI11ThemeEngine12drawToScreenEv"
 - func[2359] <_ZN3GUI11ThemeEngine22copyBackBufferToScreenEv> -> "_ZN3GUI11ThemeEngine22copyBackBufferToScreenEv"
 - func[2360] <_ZN3GUI11ThemeEngine12updateScreenEv> -> "_ZN3GUI11ThemeEngine12updateScreenEv"
 - func[1968] <_ZN3GUI10GuiManager20displayTopDialogOnlyEb> -> "_ZN3GUI10GuiManager20displayTopDialogOnlyEb"
 - func[1969] <_ZN3GUI10GuiManager17setDialogPaddingsEii> -> "_ZN3GUI10GuiManager17setDialogPaddingsEii"
 - func[1970] <_ZNK3GUI10GuiManager12getTopDialogEv> -> "_ZNK3GUI10GuiManager12getTopDialogEv"
 - func[1971] <_ZN3GUI10GuiManager10addToTrashEPNS_9GuiObjectEPNS_6DialogE> -> "_ZN3GUI10GuiManager10addToTrashEPNS_9GuiObjectEPNS_6DialogE"
 - func[1973] <_ZN3GUI10GuiManager9saveStateEv> -> "_ZN3GUI10GuiManager9saveStateEv"
 - func[1974] <_ZN3GUI10GuiManager13animateCursorEv> -> "_ZN3GUI10GuiManager13animateCursorEv"
 - func[1975] <_ZN3GUI10GuiManager12screenChangeEv> -> "_ZN3GUI10GuiManager12screenChangeEv"
 - func[1976] <_ZN3GUI10GuiManager12processEventERKN6Common5EventEPNS_6DialogE> -> "_ZN3GUI10GuiManager12processEventERKN6Common5EventEPNS_6DialogE"
 - func[12079] <_ZN6Common5Mutex4lockEv> -> "_ZN6Common5Mutex4lockEv"
 - func[12080] <_ZN6Common5Mutex6unlockEv> -> "_ZN6Common5Mutex6unlockEv"
 - func[2499] <_ZN3GUI7TooltipC2Ev> -> "_ZN3GUI7TooltipC1Ev"
 - func[2500] <_ZN3GUI7Tooltip5setupEPNS_6DialogEPNS_6WidgetEii> -> "_ZN3GUI7Tooltip5setupEPNS_6DialogEPNS_6WidgetEii"
 - func[1977] <_ZN3GUI10GuiManager12restoreStateEv> -> "_ZN3GUI10GuiManager12restoreStateEv"
 - func[5758] <_ZN8Graphics13CursorManager13replaceCursorEPKvjjiijbPKNS_11PixelFormatE> -> "_ZN8Graphics13CursorManager13replaceCursorEPKvjjiijbPKNS_11PixelFormatE"
 - func[1979] <_ZN3GUI10GuiManager8exitLoopEv> -> "_ZN3GUI10GuiManager8exitLoopEv"
 - func[1981] <_ZN3GUI10GuiManager17giveFocusToDialogEPNS_6DialogE> -> "_ZN3GUI10GuiManager17giveFocusToDialogEPNS_6DialogE"
 - func[2308] <_ZN3GUI11ThemeEngine7refreshEv> -> "_ZN3GUI11ThemeEngine7refreshEv"
 - func[1983] <_ZN3GUI10GuiManager15setLastMousePosEss> -> "_ZN3GUI10GuiManager15setLastMousePosEss"
 - func[1985] <_ZN3GUI13CommandSenderD2Ev> -> "_ZN3GUI13CommandSenderD2Ev"
 - func[1986] <_ZN3GUI13CommandSenderD0Ev> -> "_ZN3GUI13CommandSenderD0Ev"
 - func[1987] <_ZN6Common9SingletonIN3GUI10GuiManagerEED2Ev> -> "_ZN6Common9SingletonIN3GUI10GuiManagerEED2Ev"
 - func[1988] <_ZN6Common9SingletonIN3GUI10GuiManagerEED0Ev> -> "_ZN6Common9SingletonIN3GUI10GuiManagerEED0Ev"
 - func[1989] <_ZN3GUI31ArchiveMemberListBackComparatorclERKN6Common9SharedPtrINS1_13ArchiveMemberEEES6_> -> "_ZN3GUI31ArchiveMemberListBackComparatorclERKN6Common9SharedPtrINS1_13ArchiveMemberEEES6_"
 - func[11625] <_ZNK6Common10BaseStringIcEgtERKS1_> -> "_ZNK6Common10BaseStringIcEgtERKS1_"
 - global[4357] -> "_ZTIN3GUI10GuiManagerE"
 - global[4358] -> "_ZTSN3GUI10GuiManagerE"
 - global[4359] -> "_ZTSN6Common9SingletonIN3GUI10GuiManagerEEE"
 - global[4360] -> "_ZTIN6Common9SingletonIN3GUI10GuiManagerEEE"
 - global[4361] -> "_ZTSN3GUI13CommandSenderE"
 - global[4362] -> "_ZTIN3GUI13CommandSenderE"
 - global[4363] -> "_ZTVN3GUI13CommandSenderE"
 - global[4364] -> "_ZTVN6Common9SingletonIN3GUI10GuiManagerEEE"
 - func[1990] <_ZN3GUI21LauncherFilterMatcherEPviRKN6Common9U32StringES4_> -> "_ZN3GUI21LauncherFilterMatcherEPviRKN6Common9U32StringES4_"
 - func[12234] <_ZNK6Common6String11findFirstOfEPKcm> -> "_ZNK6Common6String11findFirstOfEPKcm"
 - func[12233] <_ZNK6Common6String11findFirstOfEcm> -> "_ZNK6Common6String11findFirstOfEcm"
 - func[1991] <_ZN3GUI14LauncherDialog13getGameConfigEiN6Common6StringE> -> "_ZN3GUI14LauncherDialog13getGameConfigEiN6Common6StringE"
 - func[12215] <_ZNK6Common6String8containsERKS0_> -> "_ZNK6Common6String8containsERKS0_"
 - func[11722] <_ZNK6Common10BaseStringIDiE8containsERKS1_> -> "_ZNK6Common10BaseStringIDiE8containsERKS1_"
 - func[1992] <_ZN3GUI14LauncherDialogC2ERKN6Common6StringEPNS_15LauncherChooserE> -> "_ZN3GUI14LauncherDialogC2ERKN6Common6StringEPNS_15LauncherChooserE"
 - global[4365] -> "_ZTVN3GUI14LauncherDialogE"
 - func[2089] <_ZN3GUI14MetadataParserC2Ev> -> "_ZN3GUI14MetadataParserC1Ev"
 - func[1993] <_ZN3GUI14LauncherDialog23addLayoutChooserButtonsEv> -> "_ZN3GUI14LauncherDialog23addLayoutChooserButtonsEv"
 - func[13010] <_ZN6Common9XMLParser10loadStreamEPNS_18SeekableReadStreamE> -> "_ZN6Common9XMLParser10loadStreamEPNS_18SeekableReadStreamE"
 - func[13011] <_ZN6Common9XMLParser5closeEv> -> "_ZN6Common9XMLParser5closeEv"
 - func[13021] <_ZN6Common9XMLParser5parseEv> -> "_ZN6Common9XMLParser5parseEv"
 - global[4366] -> "_ZN3GUI11ThemeEngine10kImageListE"
 - func[1994] <_ZN3GUI14LauncherDialog18createSwitchButtonERKN6Common6StringERKNS1_9U32StringES7_PKcj> -> "_ZN3GUI14LauncherDialog18createSwitchButtonERKN6Common6StringERKNS1_9U32StringES7_PKcj"
 - global[4367] -> "_ZN3GUI11ThemeEngine10kImageGridE"
 - func[1995] <_ZN3GUI14LauncherDialogD0Ev> -> "_ZN3GUI14LauncherDialogD0Ev"
 - func[1996] <_ZN3GUI14LauncherDialog5buildEv> -> "_ZN3GUI14LauncherDialog5buildEv"
 - global[4368] -> "_ZN3GUI11ThemeEngine11kImageGroupE"
 - func[2620] <_ZN3GUI14GraphicsWidget15setGfxFromThemeEPKc> -> "_ZN3GUI14GraphicsWidget15setGfxFromThemeEPKc"
 - global[4369] -> "_ZN3GUI11ThemeEngine10kImageLogoE"
 - func[2568] <_ZN3GUI20DropdownButtonWidgetC2EPNS_9GuiObjectERKN6Common6StringERKNS3_9U32StringES9_jhS9_> -> "_ZN3GUI20DropdownButtonWidgetC1EPNS_9GuiObjectERKN6Common6StringERKNS3_9U32StringES9_jhS9_"
 - func[2574] <_ZN3GUI20DropdownButtonWidget11appendEntryERKN6Common9U32StringEj> -> "_ZN3GUI20DropdownButtonWidget11appendEntryERKN6Common9U32StringEj"
 - global[4370] -> "_ZN3GUI11ThemeEngine12kImageSearchE"
 - func[1997] <_ZN3GUI14LauncherDialog5cleanEv> -> "_ZN3GUI14LauncherDialog5cleanEv"
 - func[1998] <_ZN3GUI14LauncherDialog7rebuildEv> -> "_ZN3GUI14LauncherDialog7rebuildEv"
 - func[1999] <_ZN3GUI14LauncherDialog3runEv> -> "_ZN3GUI14LauncherDialog3runEv"
 - func[2000] <_ZN3GUI14LauncherDialog4openEv> -> "_ZN3GUI14LauncherDialog4openEv"
 - func[5757] <_ZN8Graphics13CursorManager13popAllCursorsEv> -> "_ZN8Graphics13CursorManager13popAllCursorsEv"
 - func[2001] <_ZN3GUI14LauncherDialog5closeEv> -> "_ZN3GUI14LauncherDialog5closeEv"
 - func[2002] <_ZN3GUI14LauncherDialog7addGameEv> -> "_ZN3GUI14LauncherDialog7addGameEv"
 - func[2003] <_ZN3GUI14LauncherDialog15doGameDetectionERKN6Common6StringE> -> "_ZN3GUI14LauncherDialog15doGameDetectionERKN6Common6StringE"
 - global[4371] -> "_ZTVN3GUI17UnknownGameDialogE"
 - func[2511] <_ZN3GUI17UnknownGameDialogC2ERK12DetectedGame> -> "_ZN3GUI17UnknownGameDialogC1ERK12DetectedGame"
 - func[2004] <_ZN3GUI14LauncherDialog11massAddGameEv> -> "_ZN3GUI14LauncherDialog11massAddGameEv"
 - func[2062] <_ZN3GUI13MassAddDialogC2ERKN6Common6FSNodeE> -> "_ZN3GUI13MassAddDialogC1ERKN6Common6FSNodeE"
 - global[4372] -> "_ZTVN3GUI13MassAddDialogE"
 - func[2005] <_ZN6Common7HashMapINS_6StringENS_5ArrayIS1_EENS_4HashIS1_EENS_7EqualToIS1_EEED2Ev> -> "_ZN6Common7HashMapINS_6StringENS_5ArrayIS1_EENS_4HashIS1_EENS_7EqualToIS1_EEED2Ev"
 - func[2006] <_ZN3GUI14LauncherDialog10removeGameEi> -> "_ZN3GUI14LauncherDialog10removeGameEi"
 - func[2007] <_ZN3GUI14LauncherDialog8editGameEi> -> "_ZN3GUI14LauncherDialog8editGameEi"
 - func[2008] <_ZN3GUI14LauncherDialog8loadGameEi> -> "_ZN3GUI14LauncherDialog8loadGameEi"
 - func[2230] <_ZN3GUI15SaveLoadChooser31runModalWithMetaEngineAndTargetEPK10MetaEngineRKN6Common6StringE> -> "_ZN3GUI15SaveLoadChooser31runModalWithMetaEngineAndTargetEPK10MetaEngineRKN6Common6StringE"
 - func[2009] <_ZN3GUI14LauncherDialog13handleKeyDownEN6Common8KeyStateE> -> "_ZN3GUI14LauncherDialog13handleKeyDownEN6Common8KeyStateE"
 - func[2010] <_ZN3GUI14LauncherDialog11handleKeyUpEN6Common8KeyStateE> -> "_ZN3GUI14LauncherDialog11handleKeyUpEN6Common8KeyStateE"
 - func[2011] <_ZN3GUI14LauncherDialog16handleOtherEventERKN6Common5EventE> -> "_ZN3GUI14LauncherDialog16handleOtherEventERKN6Common5EventE"
 - func[2012] <_ZN3GUI14LauncherDialog13handleCommandEPNS_13CommandSenderEjj> -> "_ZN3GUI14LauncherDialog13handleCommandEPNS_13CommandSenderEjj"
 - func[2178] <_ZN3GUI19GlobalOptionsDialogC2EPNS_14LauncherDialogE> -> "_ZN3GUI19GlobalOptionsDialogC1EPNS_14LauncherDialogE"
 - func[2179] <_ZN3GUI19GlobalOptionsDialogD2Ev> -> "_ZN3GUI19GlobalOptionsDialogD1Ev"
 - func[2013] <_ZN3GUI14LauncherDialog12reflowLayoutEv> -> "_ZN3GUI14LauncherDialog12reflowLayoutEv"
 - func[2391] <_ZN3GUI9ThemeEval19getWidgetTextHAlignERKN6Common6StringE> -> "_ZN3GUI9ThemeEval19getWidgetTextHAlignERKN6Common6StringE"
 - func[2580] <_ZN3GUI15PicButtonWidgetC2EPNS_9GuiObjectERKN6Common6StringERKNS3_9U32StringEjh> -> "_ZN3GUI15PicButtonWidgetC1EPNS_9GuiObjectERKN6Common6StringERKNS3_9U32StringEjh"
 - func[2564] <_ZN3GUI15PicButtonWidget6setGfxEPKN8Graphics14ManagedSurfaceEib> -> "_ZN3GUI15PicButtonWidget6setGfxEPKN8Graphics14ManagedSurfaceEib"
 - func[2014] <_ZN3GUI14LauncherDialog13checkModifierEi> -> "_ZN3GUI14LauncherDialog13checkModifierEi"
 - func[2015] <_ZN3GUI15LauncherChooserC2Ev> -> "_ZN3GUI15LauncherChooserC2Ev"
 - func[2016] <_ZN3GUI15LauncherChooser11genGameListEv> -> "_ZN3GUI15LauncherChooser11genGameListEv"
 - func[2017] <_ZN3GUI15LauncherChooserD2Ev> -> "_ZN3GUI15LauncherChooserD2Ev"
 - func[2018] <_ZN3GUI24getRequestedLauncherTypeEv> -> "_ZN3GUI24getRequestedLauncherTypeEv"
 - func[2038] <_ZN3GUI12LauncherGridC2ERKN6Common6StringEPNS_15LauncherChooserE> -> "_ZN3GUI12LauncherGridC1ERKN6Common6StringEPNS_15LauncherChooserE"
 - func[2021] <_ZN3GUI14LauncherSimpleC2ERKN6Common6StringEPNS_15LauncherChooserE> -> "_ZN3GUI14LauncherSimpleC1ERKN6Common6StringEPNS_15LauncherChooserE"
 - func[2021] <_ZN3GUI14LauncherSimpleC2ERKN6Common6StringEPNS_15LauncherChooserE> -> "_ZN3GUI14LauncherSimpleC2ERKN6Common6StringEPNS_15LauncherChooserE"
 - global[4373] -> "_ZTVN3GUI14LauncherSimpleE"
 - func[2022] <_ZN3GUI14LauncherSimple5buildEv> -> "_ZN3GUI14LauncherSimple5buildEv"
 - func[2023] <_ZN3GUI14LauncherSimple12selectTargetERKN6Common6StringE> -> "_ZN3GUI14LauncherSimple12selectTargetERKN6Common6StringE"
 - func[2825] <_ZN3GUI17GroupedListWidget11setSelectedEi> -> "_ZN3GUI17GroupedListWidget11setSelectedEi"
 - func[2024] <_ZN3GUI14LauncherSimple11getSelectedEv> -> "_ZN3GUI14LauncherSimple11getSelectedEv"
 - func[2816] <_ZN3GUI17GroupedListWidgetC2EPNS_6DialogERKN6Common6StringERKNS3_9U32StringEj> -> "_ZN3GUI17GroupedListWidgetC1EPNS_6DialogERKN6Common6StringERKNS3_9U32StringEj"
 - func[2025] <_ZN3GUI14LauncherSimple13updateListingEv> -> "_ZN3GUI14LauncherSimple13updateListingEv"
 - func[2817] <_ZN3GUI17GroupedListWidget7setListERKN6Common5ArrayINS1_9U32StringEEE> -> "_ZN3GUI17GroupedListWidget7setListERKN6Common5ArrayINS1_9U32StringEEE"
 - func[2027] <_ZN3GUI14LauncherSimple12groupEntriesERKN6Common5ArrayINS_13LauncherEntryEEE> -> "_ZN3GUI14LauncherSimple12groupEntriesERKN6Common5ArrayINS_13LauncherEntryEEE"
 - func[2832] <_ZN3GUI17GroupedListWidget9setFilterERKN6Common9U32StringEb> -> "_ZN3GUI17GroupedListWidget9setFilterERKN6Common9U32StringEb"
 - func[2028] <_ZN6Common5ArrayIN3GUI13LauncherEntryEED2Ev> -> "_ZN6Common5ArrayIN3GUI13LauncherEntryEED2Ev"
 - func[2029] <_ZN6Common5ArrayIN3GUI13LauncherEntryEE9push_backERKS2_> -> "_ZN6Common5ArrayIN3GUI13LauncherEntryEE9push_backERKS2_"
 - func[2030] <_ZN6Common4sortIPN3GUI13LauncherEntryENS1_23LauncherEntryComparatorEEEvT_S5_T0_> -> "_ZN6Common4sortIPN3GUI13LauncherEntryENS1_23LauncherEntryComparatorEEEvT_S5_T0_"
 - func[2823] <_ZN3GUI17GroupedListWidget20setGroupHeaderFormatERKN6Common9U32StringES4_> -> "_ZN3GUI17GroupedListWidget20setGroupHeaderFormatERKN6Common9U32StringES4_"
 - func[2031] <_ZN6Common7HashMapINS_6StringEN3GUI12MetadataGameENS_15IgnoreCase_HashENS_18IgnoreCase_EqualToEE24lookupAndCreateIfMissingERKS1_> -> "_ZN6Common7HashMapINS_6StringEN3GUI12MetadataGameENS_15IgnoreCase_HashENS_18IgnoreCase_EqualToEE24lookupAndCreateIfMissingERKS1_"
 - func[2032] <_ZNK6Common7HashMapINS_6StringEN3GUI14MetadataSeriesENS_15IgnoreCase_HashENS_18IgnoreCase_EqualToEE12IteratorImplINS6_4NodeEE5derefEv> -> "_ZNK6Common7HashMapINS_6StringEN3GUI14MetadataSeriesENS_15IgnoreCase_HashENS_18IgnoreCase_EqualToEE12IteratorImplINS6_4NodeEE5derefEv"
 - func[2033] <_ZNK6Common7HashMapINS_6StringEN3GUI15MetadataCompanyENS_15IgnoreCase_HashENS_18IgnoreCase_EqualToEE12IteratorImplINS6_4NodeEE5derefEv> -> "_ZNK6Common7HashMapINS_6StringEN3GUI15MetadataCompanyENS_15IgnoreCase_HashENS_18IgnoreCase_EqualToEE12IteratorImplINS6_4NodeEE5derefEv"
 - func[2034] <_ZNK6Common7HashMapINS_6StringEN3GUI14MetadataEngineENS_15IgnoreCase_HashENS_18IgnoreCase_EqualToEE12IteratorImplINS6_4NodeEE5derefEv> -> "_ZNK6Common7HashMapINS_6StringEN3GUI14MetadataEngineENS_15IgnoreCase_HashENS_18IgnoreCase_EqualToEE12IteratorImplINS6_4NodeEE5derefEv"
 - func[2822] <_ZN3GUI17GroupedListWidget16setMetadataNamesERKN6Common7HashMapINS1_6StringES3_NS1_15IgnoreCase_HashENS1_18IgnoreCase_EqualToEEE> -> "_ZN3GUI17GroupedListWidget16setMetadataNamesERKN6Common7HashMapINS1_6StringES3_NS1_15IgnoreCase_HashENS1_18IgnoreCase_EqualToEEE"
 - func[2820] <_ZN3GUI17GroupedListWidget18setAttributeValuesERKN6Common5ArrayINS1_9U32StringEEE> -> "_ZN3GUI17GroupedListWidget18setAttributeValuesERKN6Common5ArrayINS1_9U32StringEEE"
 - func[2818] <_ZN3GUI17GroupedListWidget16groupByAttributeEv> -> "_ZN3GUI17GroupedListWidget16groupByAttributeEv"
 - func[2035] <_ZN3GUI14LauncherSimple13handleKeyDownEN6Common8KeyStateE> -> "_ZN3GUI14LauncherSimple13handleKeyDownEN6Common8KeyStateE"
 - func[2036] <_ZN3GUI14LauncherSimple13handleCommandEPNS_13CommandSenderEjj> -> "_ZN3GUI14LauncherSimple13handleCommandEPNS_13CommandSenderEjj"
 - func[2037] <_ZN3GUI14LauncherSimple13updateButtonsEv> -> "_ZN3GUI14LauncherSimple13updateButtonsEv"
 - func[2038] <_ZN3GUI12LauncherGridC2ERKN6Common6StringEPNS_15LauncherChooserE> -> "_ZN3GUI12LauncherGridC2ERKN6Common6StringEPNS_15LauncherChooserE"
 - global[4374] -> "_ZTVN3GUI12LauncherGridE"
 - func[2039] <_ZN3GUI12LauncherGrid5buildEv> -> "_ZN3GUI12LauncherGrid5buildEv"
 - func[2040] <_ZN3GUI12LauncherGrid12groupEntriesERKN6Common5ArrayINS_13LauncherEntryEEE> -> "_ZN3GUI12LauncherGrid12groupEntriesERKN6Common5ArrayINS_13LauncherEntryEEE"
 - func[2787] <_ZN3GUI10GridWidget20setGroupHeaderFormatERKN6Common9U32StringES4_> -> "_ZN3GUI10GridWidget20setGroupHeaderFormatERKN6Common9U32StringES4_"
 - func[2778] <_ZN3GUI10GridWidget16setMetadataNamesERKN6Common7HashMapINS1_6StringES3_NS1_15IgnoreCase_HashENS1_18IgnoreCase_EqualToEEE> -> "_ZN3GUI10GridWidget16setMetadataNamesERKN6Common7HashMapINS1_6StringES3_NS1_15IgnoreCase_HashENS1_18IgnoreCase_EqualToEEE"
 - func[2777] <_ZN3GUI10GridWidget18setAttributeValuesERKN6Common5ArrayINS1_9U32StringEEE> -> "_ZN3GUI10GridWidget18setAttributeValuesERKN6Common5ArrayINS1_9U32StringEEE"
 - func[2779] <_ZN3GUI10GridWidget12groupEntriesEv> -> "_ZN3GUI10GridWidget12groupEntriesEv"
 - func[2041] <_ZN3GUI12LauncherGrid13handleKeyDownEN6Common8KeyStateE> -> "_ZN3GUI12LauncherGrid13handleKeyDownEN6Common8KeyStateE"
 - func[2042] <_ZN3GUI12LauncherGrid13handleCommandEPNS_13CommandSenderEjj> -> "_ZN3GUI12LauncherGrid13handleCommandEPNS_13CommandSenderEjj"
 - func[2545] <_ZN3GUI16StaticTextWidget8setValueEi> -> "_ZN3GUI16StaticTextWidget8setValueEi"
 - func[2800] <_ZN3GUI10GridWidget9setFilterERKN6Common9U32StringE> -> "_ZN3GUI10GridWidget9setFilterERKN6Common9U32StringE"
 - func[2043] <_ZN3GUI12LauncherGrid13updateListingEv> -> "_ZN3GUI12LauncherGrid13updateListingEv"
 - func[2044] <_ZN6Common5ArrayIN3GUI12GridItemInfoEE9push_backERKS2_> -> "_ZN6Common5ArrayIN3GUI12GridItemInfoEE9push_backERKS2_"
 - func[2776] <_ZN3GUI10GridWidget12setEntryListEPN6Common5ArrayINS_12GridItemInfoEEE> -> "_ZN3GUI10GridWidget12setEntryListEPN6Common5ArrayINS_12GridItemInfoEEE"
 - func[2801] <_ZN3GUI10GridWidget11setSelectedEi> -> "_ZN3GUI10GridWidget11setSelectedEi"
 - func[2045] <_ZN6Common5ArrayIN3GUI12GridItemInfoEE11freeStorageEPS2_j> -> "_ZN6Common5ArrayIN3GUI12GridItemInfoEE11freeStorageEPS2_j"
 - func[2046] <_ZN6Common5ArrayIN3GUI12GridItemInfoEE10insert_auxEPS2_PKS2_S6_> -> "_ZN6Common5ArrayIN3GUI12GridItemInfoEE10insert_auxEPS2_PKS2_S6_"
 - func[2047] <_ZN3GUI12LauncherGrid13updateButtonsEv> -> "_ZN3GUI12LauncherGrid13updateButtonsEv"
 - func[2048] <_ZN3GUI12LauncherGrid12selectTargetERKN6Common6StringE> -> "_ZN3GUI12LauncherGrid12selectTargetERKN6Common6StringE"
 - func[2049] <_ZN3GUI12LauncherGrid11getSelectedEv> -> "_ZN3GUI12LauncherGrid11getSelectedEv"
 - func[2604] <_ZN3GUI12SliderWidgetC2EPNS_9GuiObjectERKN6Common6StringERKNS3_9U32StringEj> -> "_ZN3GUI12SliderWidgetC1EPNS_9GuiObjectERKN6Common6StringERKNS3_9U32StringEj"
 - func[2766] <_ZN3GUI10GridWidgetC2EPNS_9GuiObjectERKN6Common6StringE> -> "_ZN3GUI10GridWidgetC1EPNS_9GuiObjectERKN6Common6StringE"
 - func[2050] <_ZN3GUI14LauncherDialogD1Ev> -> "_ZN3GUI14LauncherDialogD2Ev"
 - func[2093] <_ZN3GUI14MetadataParserD2Ev> -> "_ZN3GUI14MetadataParserD1Ev"
 - func[2051] <_ZN3GUI14LauncherSimpleD0Ev> -> "_ZN3GUI14LauncherSimpleD0Ev"
 - func[2052] <_ZNK3GUI14LauncherSimple7getTypeEv> -> "_ZNK3GUI14LauncherSimple7getTypeEv"
 - func[2053] <_ZN3GUI12LauncherGridD0Ev> -> "_ZN3GUI12LauncherGridD0Ev"
 - func[2054] <_ZNK3GUI12LauncherGrid7getTypeEv> -> "_ZNK3GUI12LauncherGrid7getTypeEv"
 - func[2055] <_ZN6Common5ArrayIN3GUI13LauncherEntryEE10insert_auxEPS2_PKS2_S6_> -> "_ZN6Common5ArrayIN3GUI13LauncherEntryEE10insert_auxEPS2_PKS2_S6_"
 - func[2056] <_Z4SWAPIN3GUI13LauncherEntryEEvRT_S3_> -> "_Z4SWAPIN3GUI13LauncherEntryEEvRT_S3_"
 - func[12255] <_Z23scumm_compareDictionaryPKcS0_> -> "_Z23scumm_compareDictionaryPKcS0_"
 - func[2057] <_ZN6Common7HashMapINS_6StringEN3GUI12MetadataGameENS_15IgnoreCase_HashENS_18IgnoreCase_EqualToEE13expandStorageEj> -> "_ZN6Common7HashMapINS_6StringEN3GUI12MetadataGameENS_15IgnoreCase_HashENS_18IgnoreCase_EqualToEE13expandStorageEj"
 - func[2058] <_ZN6Common18uninitialized_copyIPN3GUI12GridItemInfoES2_EEPT0_T_S6_S5_> -> "_ZN6Common18uninitialized_copyIPN3GUI12GridItemInfoES2_EEPT0_T_S6_S5_"
 - func[2059] <_ZN6Common18uninitialized_copyIPKN3GUI12GridItemInfoES2_EEPT0_T_S7_S6_> -> "_ZN6Common18uninitialized_copyIPKN3GUI12GridItemInfoES2_EEPT0_T_S7_S6_"
 - func[2060] <_ZN6Common13copy_backwardIPN3GUI12GridItemInfoES3_EET0_T_S5_S4_> -> "_ZN6Common13copy_backwardIPN3GUI12GridItemInfoES3_EET0_T_S5_S4_"
 - func[2061] <_ZN6Common4copyIPKN3GUI12GridItemInfoEPS2_EET0_T_S7_S6_> -> "_ZN6Common4copyIPKN3GUI12GridItemInfoEPS2_EET0_T_S7_S6_"
 - global[4375] -> "_ZTIN3GUI14LauncherDialogE"
 - func[2050] <_ZN3GUI14LauncherDialogD1Ev> -> "_ZN3GUI14LauncherDialogD1Ev"
 - global[4376] -> "_ZTIN3GUI14LauncherSimpleE"
 - global[4377] -> "_ZTIN3GUI12LauncherGridE"
 - global[4378] -> "_ZTSN3GUI14LauncherDialogE"
 - global[4379] -> "_ZTSN3GUI14LauncherSimpleE"
 - global[4380] -> "_ZTSN3GUI12LauncherGridE"
 - func[2062] <_ZN3GUI13MassAddDialogC2ERKN6Common6FSNodeE> -> "_ZN3GUI13MassAddDialogC2ERKN6Common6FSNodeE"
 - func[2063] <_ZN6Common7HashMapINS_6StringENS_5ArrayIS1_EENS_4HashIS1_EENS_7EqualToIS1_EEE24lookupAndCreateIfMissingERKS1_> -> "_ZN6Common7HashMapINS_6StringENS_5ArrayIS1_EENS_4HashIS1_EENS_7EqualToIS1_EEE24lookupAndCreateIfMissingERKS1_"
 - func[2064] <_ZN3GUI13MassAddDialog13handleCommandEPNS_13CommandSenderEjj> -> "_ZN3GUI13MassAddDialog13handleCommandEPNS_13CommandSenderEjj"
 - func[2065] <_ZN6Common4sortIP12DetectedGameN3GUI14GameTargetLessEEEvT_S5_T0_> -> "_ZN6Common4sortIP12DetectedGameN3GUI14GameTargetLessEEEvT_S5_T0_"
 - func[2066] <_ZN6Common4sortIP12DetectedGameN3GUI12GameDescLessEEEvT_S5_T0_> -> "_ZN6Common4sortIP12DetectedGameN3GUI12GameDescLessEEEvT_S5_T0_"
 - func[2067] <_Z4SWAPI12DetectedGameEvRT_S2_> -> "_Z4SWAPI12DetectedGameEvRT_S2_"
 - func[2068] <_ZN3GUI13MassAddDialog12handleTickleEv> -> "_ZN3GUI13MassAddDialog12handleTickleEv"
 - func[2852] <_ZN3GUI10ListWidget6appendERKN6Common6StringE> -> "_ZN3GUI10ListWidget6appendERKN6Common6StringE"
 - func[2872] <_ZN3GUI10ListWidget11scrollToEndEv> -> "_ZN3GUI10ListWidget11scrollToEndEv"
 - func[2069] <_ZN3GUI13MassAddDialogD2Ev> -> "_ZN3GUI13MassAddDialogD2Ev"
 - func[2070] <_ZN3GUI13MassAddDialogD0Ev> -> "_ZN3GUI13MassAddDialogD0Ev"
 - func[2071] <_ZN6Common7HashMapINS_6StringENS_5ArrayIS1_EENS_4HashIS1_EENS_7EqualToIS1_EEE13expandStorageEj> -> "_ZN6Common7HashMapINS_6StringENS_5ArrayIS1_EENS_4HashIS1_EENS_7EqualToIS1_EEE13expandStorageEj"
 - global[4381] -> "_ZTIN3GUI13MassAddDialogE"
 - global[4382] -> "_ZTSN3GUI13MassAddDialogE"
 - func[2072] <_ZN3GUI13MessageDialog4initERKN6Common9U32StringES4_RKNS1_5ArrayIS2_EEN8Graphics9TextAlignEPKcS4_> -> "_ZN3GUI13MessageDialog4initERKN6Common9U32StringES4_RKNS1_5ArrayIS2_EEN8Graphics9TextAlignEPKcS4_"
 - func[2542] <_ZN3GUI16StaticTextWidgetC2EPNS_9GuiObjectEiiiiRKN6Common9U32StringEN8Graphics9TextAlignES6_NS_11ThemeEngine9FontStyleENS3_8LanguageEb> -> "_ZN3GUI16StaticTextWidgetC1EPNS_9GuiObjectEiiiiRKN6Common9U32StringEN8Graphics9TextAlignES6_NS_11ThemeEngine9FontStyleENS3_8LanguageEb"
 - func[2550] <_ZN3GUI12ButtonWidgetC2EPNS_9GuiObjectEiiiiRKN6Common9U32StringES6_jhS6_> -> "_ZN3GUI12ButtonWidgetC1EPNS_9GuiObjectEiiiiRKN6Common9U32StringES6_jhS6_"
 - func[2073] <_ZN3GUI13MessageDialogC2ERKN6Common9U32StringES4_S4_N8Graphics9TextAlignEPKcS4_> -> "_ZN3GUI13MessageDialogC2ERKN6Common9U32StringES4_S4_N8Graphics9TextAlignEPKcS4_"
 - global[4383] -> "_ZTVN3GUI13MessageDialogE"
 - func[2074] <_ZN3GUI13MessageDialogC2ERKN6Common6StringES4_S4_N8Graphics9TextAlignEPKc> -> "_ZN3GUI13MessageDialogC2ERKN6Common6StringES4_S4_N8Graphics9TextAlignEPKc"
 - func[2075] <_ZN3GUI13MessageDialogC2ERKN6Common9U32StringES4_RKNS1_5ArrayIS2_EEN8Graphics9TextAlignE> -> "_ZN3GUI13MessageDialogC2ERKN6Common9U32StringES4_RKNS1_5ArrayIS2_EEN8Graphics9TextAlignE"
 - func[2076] <_ZN3GUI13MessageDialog13handleCommandEPNS_13CommandSenderEjj> -> "_ZN3GUI13MessageDialog13handleCommandEPNS_13CommandSenderEjj"
 - func[2077] <_ZN3GUI18TimedMessageDialogC1ERKN6Common9U32StringEj> -> "_ZN3GUI18TimedMessageDialogC2ERKN6Common9U32StringEj"
 - global[4384] -> "_ZTVN3GUI18TimedMessageDialogE"
 - func[2078] <_ZN3GUI18TimedMessageDialog12handleTickleEv> -> "_ZN3GUI18TimedMessageDialog12handleTickleEv"
 - func[2079] <_ZN3GUI22CountdownMessageDialogC1ERKN6Common9U32StringEjS4_S4_N8Graphics9TextAlignES4_> -> "_ZN3GUI22CountdownMessageDialogC2ERKN6Common9U32StringEjS4_S4_N8Graphics9TextAlignES4_"
 - global[4385] -> "_ZTVN3GUI22CountdownMessageDialogE"
 - func[2080] <_ZN3GUI22CountdownMessageDialog15updateCountdownEv> -> "_ZN3GUI22CountdownMessageDialog15updateCountdownEv"
 - func[2081] <_ZN3GUI22CountdownMessageDialog12handleTickleEv> -> "_ZN3GUI22CountdownMessageDialog12handleTickleEv"
 - func[2082] <_ZN3GUI20MessageDialogWithURLC2ERKN6Common9U32StringEPKcS4_N8Graphics9TextAlignE> -> "_ZN3GUI20MessageDialogWithURLC2ERKN6Common9U32StringEPKcS4_N8Graphics9TextAlignE"
 - global[4386] -> "_ZTVN3GUI20MessageDialogWithURLE"
 - func[2083] <_ZN3GUI20MessageDialogWithURLC1ERKN6Common6StringEPKcS6_N8Graphics9TextAlignE> -> "_ZN3GUI20MessageDialogWithURLC2ERKN6Common6StringEPKcS6_N8Graphics9TextAlignE"
 - func[2084] <_ZN3GUI13MessageDialogD0Ev> -> "_ZN3GUI13MessageDialogD0Ev"
 - func[2085] <_ZN3GUI18TimedMessageDialogD0Ev> -> "_ZN3GUI18TimedMessageDialogD0Ev"
 - func[2086] <_ZN3GUI22CountdownMessageDialogD2Ev> -> "_ZN3GUI22CountdownMessageDialogD2Ev"
 - func[2087] <_ZN3GUI22CountdownMessageDialogD0Ev> -> "_ZN3GUI22CountdownMessageDialogD0Ev"
 - func[2088] <_ZN3GUI20MessageDialogWithURLD0Ev> -> "_ZN3GUI20MessageDialogWithURLD0Ev"
 - global[4387] -> "_ZTIN3GUI13MessageDialogE"
 - global[4388] -> "_ZTIN3GUI18TimedMessageDialogE"
 - global[4389] -> "_ZTIN3GUI22CountdownMessageDialogE"
 - global[4390] -> "_ZTIN3GUI20MessageDialogWithURLE"
 - global[4391] -> "_ZTSN3GUI13MessageDialogE"
 - global[4392] -> "_ZTSN3GUI18TimedMessageDialogE"
 - global[4393] -> "_ZTSN3GUI22CountdownMessageDialogE"
 - global[4394] -> "_ZTSN3GUI20MessageDialogWithURLE"
 - func[2077] <_ZN3GUI18TimedMessageDialogC1ERKN6Common9U32StringEj> -> "_ZN3GUI18TimedMessageDialogC1ERKN6Common9U32StringEj"
 - func[2079] <_ZN3GUI22CountdownMessageDialogC1ERKN6Common9U32StringEjS4_S4_N8Graphics9TextAlignES4_> -> "_ZN3GUI22CountdownMessageDialogC1ERKN6Common9U32StringEjS4_S4_N8Graphics9TextAlignES4_"
 - func[2083] <_ZN3GUI20MessageDialogWithURLC1ERKN6Common6StringEPKcS6_N8Graphics9TextAlignE> -> "_ZN3GUI20MessageDialogWithURLC1ERKN6Common6StringEPKcS6_N8Graphics9TextAlignE"
 - func[2089] <_ZN3GUI14MetadataParserC2Ev> -> "_ZN3GUI14MetadataParserC2Ev"
 - global[4395] -> "_ZTVN6Common9XMLParserE"
 - global[4396] -> "_ZTVN3GUI14MetadataParserE"
 - func[2090] <_ZN6Common7HashMapINS_6StringEN3GUI12MetadataGameENS_15IgnoreCase_HashENS_18IgnoreCase_EqualToEEC2Ev> -> "_ZN6Common7HashMapINS_6StringEN3GUI12MetadataGameENS_15IgnoreCase_HashENS_18IgnoreCase_EqualToEEC2Ev"
 - func[2091] <_ZN6Common7HashMapINS_6StringEN3GUI14MetadataEngineENS_15IgnoreCase_HashENS_18IgnoreCase_EqualToEEC2Ev> -> "_ZN6Common7HashMapINS_6StringEN3GUI14MetadataEngineENS_15IgnoreCase_HashENS_18IgnoreCase_EqualToEEC2Ev"
 - func[2092] <_ZN6Common7HashMapINS_6StringEN3GUI15MetadataCompanyENS_15IgnoreCase_HashENS_18IgnoreCase_EqualToEEC2Ev> -> "_ZN6Common7HashMapINS_6StringEN3GUI15MetadataCompanyENS_15IgnoreCase_HashENS_18IgnoreCase_EqualToEEC2Ev"
 - func[2093] <_ZN3GUI14MetadataParserD2Ev> -> "_ZN3GUI14MetadataParserD2Ev"
 - func[2094] <_ZN6Common7HashMapINS_6StringEN3GUI15MetadataCompanyENS_15IgnoreCase_HashENS_18IgnoreCase_EqualToEED2Ev> -> "_ZN6Common7HashMapINS_6StringEN3GUI15MetadataCompanyENS_15IgnoreCase_HashENS_18IgnoreCase_EqualToEED2Ev"
 - func[2095] <_ZN6Common7HashMapINS_6StringEN3GUI14MetadataSeriesENS_15IgnoreCase_HashENS_18IgnoreCase_EqualToEED2Ev> -> "_ZN6Common7HashMapINS_6StringEN3GUI14MetadataSeriesENS_15IgnoreCase_HashENS_18IgnoreCase_EqualToEED2Ev"
 - func[2096] <_ZN6Common7HashMapINS_6StringEN3GUI14MetadataEngineENS_15IgnoreCase_HashENS_18IgnoreCase_EqualToEED2Ev> -> "_ZN6Common7HashMapINS_6StringEN3GUI14MetadataEngineENS_15IgnoreCase_HashENS_18IgnoreCase_EqualToEED2Ev"
 - func[2097] <_ZN6Common7HashMapINS_6StringEN3GUI12MetadataGameENS_15IgnoreCase_HashENS_18IgnoreCase_EqualToEED2Ev> -> "_ZN6Common7HashMapINS_6StringEN3GUI12MetadataGameENS_15IgnoreCase_HashENS_18IgnoreCase_EqualToEED2Ev"
 - func[13005] <_ZN6Common9XMLParserD1Ev> -> "_ZN6Common9XMLParserD2Ev"
 - func[2098] <_ZN6Common7HashMapINS_6StringEN3GUI12MetadataGameENS_15IgnoreCase_HashENS_18IgnoreCase_EqualToEE8freeNodeEPNS6_4NodeE> -> "_ZN6Common7HashMapINS_6StringEN3GUI12MetadataGameENS_15IgnoreCase_HashENS_18IgnoreCase_EqualToEE8freeNodeEPNS6_4NodeE"
 - func[2099] <_ZN3GUI14MetadataParserD0Ev> -> "_ZN3GUI14MetadataParserD0Ev"
 - func[2100] <_ZN3GUI14MetadataParser7cleanupEv> -> "_ZN3GUI14MetadataParser7cleanupEv"
 - func[2101] <_ZN3GUI14MetadataParser20parserCallback_gamesEPN6Common9XMLParser10ParserNodeE> -> "_ZN3GUI14MetadataParser20parserCallback_gamesEPN6Common9XMLParser10ParserNodeE"
 - func[2102] <_ZN3GUI14MetadataParser19parserCallback_gameEPN6Common9XMLParser10ParserNodeE> -> "_ZN3GUI14MetadataParser19parserCallback_gameEPN6Common9XMLParser10ParserNodeE"
 - func[2103] <_ZN3GUI14MetadataParser22parserCallback_enginesEPN6Common9XMLParser10ParserNodeE> -> "_ZN3GUI14MetadataParser22parserCallback_enginesEPN6Common9XMLParser10ParserNodeE"
 - func[2104] <_ZN3GUI14MetadataParser21parserCallback_engineEPN6Common9XMLParser10ParserNodeE> -> "_ZN3GUI14MetadataParser21parserCallback_engineEPN6Common9XMLParser10ParserNodeE"
 - func[2105] <_ZN3GUI14MetadataParser21parserCallback_seriesEPN6Common9XMLParser10ParserNodeE> -> "_ZN3GUI14MetadataParser21parserCallback_seriesEPN6Common9XMLParser10ParserNodeE"
 - func[2106] <_ZN3GUI14MetadataParser20parserCallback_serieEPN6Common9XMLParser10ParserNodeE> -> "_ZN3GUI14MetadataParser20parserCallback_serieEPN6Common9XMLParser10ParserNodeE"
 - func[2107] <_ZN3GUI14MetadataParser24parserCallback_companiesEPN6Common9XMLParser10ParserNodeE> -> "_ZN3GUI14MetadataParser24parserCallback_companiesEPN6Common9XMLParser10ParserNodeE"
 - func[2108] <_ZN3GUI14MetadataParser22parserCallback_companyEPN6Common9XMLParser10ParserNodeE> -> "_ZN3GUI14MetadataParser22parserCallback_companyEPN6Common9XMLParser10ParserNodeE"
 - func[2109] <_ZN3GUI14MetadataParser17closedKeyCallbackEPN6Common9XMLParser10ParserNodeE> -> "_ZN3GUI14MetadataParser17closedKeyCallbackEPN6Common9XMLParser10ParserNodeE"
 - func[2110] <_ZN6Common7HashMapINS_6StringEN3GUI14MetadataEngineENS_15IgnoreCase_HashENS_18IgnoreCase_EqualToEE24lookupAndCreateIfMissingERKS1_> -> "_ZN6Common7HashMapINS_6StringEN3GUI14MetadataEngineENS_15IgnoreCase_HashENS_18IgnoreCase_EqualToEE24lookupAndCreateIfMissingERKS1_"
 - func[2111] <_ZN6Common7HashMapINS_6StringEN3GUI14MetadataSeriesENS_15IgnoreCase_HashENS_18IgnoreCase_EqualToEE24lookupAndCreateIfMissingERKS1_> -> "_ZN6Common7HashMapINS_6StringEN3GUI14MetadataSeriesENS_15IgnoreCase_HashENS_18IgnoreCase_EqualToEE24lookupAndCreateIfMissingERKS1_"
 - func[2112] <_ZN6Common7HashMapINS_6StringEN3GUI15MetadataCompanyENS_15IgnoreCase_HashENS_18IgnoreCase_EqualToEE24lookupAndCreateIfMissingERKS1_> -> "_ZN6Common7HashMapINS_6StringEN3GUI15MetadataCompanyENS_15IgnoreCase_HashENS_18IgnoreCase_EqualToEE24lookupAndCreateIfMissingERKS1_"
 - func[2113] <_ZN3GUI14MetadataParser11buildLayoutEv> -> "_ZN3GUI14MetadataParser11buildLayoutEv"
 - global[4397] -> "_ZTVN6Common9XMLParser12XMLKeyLayoutE"
 - global[4398] -> "_ZTVN3GUI14MetadataParser18CustomXMLKeyLayoutE"
 - func[2114] <_ZN6Common5ArrayIPNS_9XMLParser12XMLKeyLayoutEE10insert_auxEPS3_PKS3_S7_> -> "_ZN6Common5ArrayIPNS_9XMLParser12XMLKeyLayoutEE10insert_auxEPS3_PKS3_S7_"
 - func[2115] <_ZN6Common7HashMapINS_6StringEPNS_9XMLParser12XMLKeyLayoutENS_15IgnoreCase_HashENS_18IgnoreCase_EqualToEE24lookupAndCreateIfMissingERKS1_> -> "_ZN6Common7HashMapINS_6StringEPNS_9XMLParser12XMLKeyLayoutENS_15IgnoreCase_HashENS_18IgnoreCase_EqualToEE24lookupAndCreateIfMissingERKS1_"
 - func[2116] <_ZN3GUI14MetadataParser11keyCallbackEPN6Common9XMLParser10ParserNodeE> -> "_ZN3GUI14MetadataParser11keyCallbackEPN6Common9XMLParser10ParserNodeE"
 - func[2117] <_ZN6Common9XMLParser12textCallbackERKNS_6StringE> -> "_ZN6Common9XMLParser12textCallbackERKNS_6StringE"
 - func[2118] <_ZN6Common9XMLParser15isValidNameCharEc> -> "_ZN6Common9XMLParser15isValidNameCharEc"
 - func[2119] <_ZN3GUI14MetadataParser18CustomXMLKeyLayout10doCallbackEPN6Common9XMLParserEPNS3_10ParserNodeE> -> "_ZN3GUI14MetadataParser18CustomXMLKeyLayout10doCallbackEPN6Common9XMLParserEPNS3_10ParserNodeE"
 - func[2120] <_ZN3GUI14MetadataParser18CustomXMLKeyLayoutD0Ev> -> "_ZN3GUI14MetadataParser18CustomXMLKeyLayoutD0Ev"
 - func[2121] <_ZN6Common9XMLParser12XMLKeyLayoutD2Ev> -> "_ZN6Common9XMLParser12XMLKeyLayoutD2Ev"
 - func[2122] <_ZN6Common9XMLParser12XMLKeyLayoutD0Ev> -> "_ZN6Common9XMLParser12XMLKeyLayoutD0Ev"
 - func[2123] <_ZN6Common7HashMapINS_6StringEPNS_9XMLParser12XMLKeyLayoutENS_15IgnoreCase_HashENS_18IgnoreCase_EqualToEE13expandStorageEj> -> "_ZN6Common7HashMapINS_6StringEPNS_9XMLParser12XMLKeyLayoutENS_15IgnoreCase_HashENS_18IgnoreCase_EqualToEE13expandStorageEj"
 - func[2124] <_ZN6Common7HashMapINS_6StringEN3GUI14MetadataEngineENS_15IgnoreCase_HashENS_18IgnoreCase_EqualToEE13expandStorageEj> -> "_ZN6Common7HashMapINS_6StringEN3GUI14MetadataEngineENS_15IgnoreCase_HashENS_18IgnoreCase_EqualToEE13expandStorageEj"
 - func[2125] <_ZN6Common7HashMapINS_6StringEN3GUI14MetadataSeriesENS_15IgnoreCase_HashENS_18IgnoreCase_EqualToEE13expandStorageEj> -> "_ZN6Common7HashMapINS_6StringEN3GUI14MetadataSeriesENS_15IgnoreCase_HashENS_18IgnoreCase_EqualToEE13expandStorageEj"
 - func[2126] <_ZN6Common7HashMapINS_6StringEN3GUI15MetadataCompanyENS_15IgnoreCase_HashENS_18IgnoreCase_EqualToEE13expandStorageEj> -> "_ZN6Common7HashMapINS_6StringEN3GUI15MetadataCompanyENS_15IgnoreCase_HashENS_18IgnoreCase_EqualToEE13expandStorageEj"
 - global[4399] -> "_ZTIN3GUI14MetadataParserE"
 - global[4400] -> "_ZTSN3GUI14MetadataParserE"
 - global[4401] -> "_ZTIN6Common9XMLParserE"
 - global[4402] -> "_ZTIN3GUI14MetadataParser18CustomXMLKeyLayoutE"
 - global[4403] -> "_ZTSN3GUI14MetadataParser18CustomXMLKeyLayoutE"
 - global[4404] -> "_ZTSN6Common9XMLParser12XMLKeyLayoutE"
 - global[4405] -> "_ZTIN6Common9XMLParser12XMLKeyLayoutE"
 - global[4406] -> "_ZTVN3GUI9GuiObjectE"
 - func[2130] <_ZN3GUI9GuiObjectD0Ev> -> "_ZN3GUI9GuiObjectD0Ev"
 - func[2389] <_ZN3GUI9ThemeEval13getWidgetDataERKN6Common6StringERsS5_S5_S5_Rb> -> "_ZN3GUI9ThemeEval13getWidgetDataERKN6Common6StringERsS5_S5_S5_Rb"
 - func[2136] <_ZN3GUI15CommandReceiver13handleCommandEPNS_13CommandSenderEjj> -> "_ZN3GUI15CommandReceiver13handleCommandEPNS_13CommandSenderEjj"
 - func[2137] <_ZN3GUI9GuiObject16handleMouseWheelEiii> -> "_ZN3GUI9GuiObject16handleMouseWheelEiii"
 - func[2129] <_ZN3GUI9GuiObjectD1Ev> -> "_ZN3GUI9GuiObjectD1Ev"
 - global[4407] -> "_ZTSN3GUI9GuiObjectE"
 - global[4408] -> "_ZTSN3GUI15CommandReceiverE"
 - global[4409] -> "_ZTIN3GUI15CommandReceiverE"
 - func[2138] <_ZN3GUI13OptionsDialogC1ERKN6Common6StringEiiii> -> "_ZN3GUI13OptionsDialogC2ERKN6Common6StringEiiii"
 - global[4410] -> "_ZTVN3GUI13OptionsDialogE"
 - func[2139] <_ZN3GUI13OptionsDialog4initEv> -> "_ZN3GUI13OptionsDialog4initEv"
 - func[2142] <_ZN3GUI13OptionsDialogD0Ev> -> "_ZN3GUI13OptionsDialogD0Ev"
 - func[2141] <_ZN3GUI13OptionsDialogD1Ev> -> "_ZN3GUI13OptionsDialogD1Ev"
 - global[4411] -> "_ZN6Common13g_renderModesE"
 - func[2144] <_ZN3GUI13OptionsDialog18updateScaleFactorsEj> -> "_ZN3GUI13OptionsDialog18updateScaleFactorsEj"
 - func[11810] <_ZNK6Common13ConfigManager14isKeyTemporaryERKNS_6StringE> -> "_ZNK6Common13ConfigManager14isKeyTemporaryERKNS_6StringE"
 - func[2592] <_ZN3GUI14CheckboxWidget11setOverrideEb> -> "_ZN3GUI14CheckboxWidget11setOverrideEb"
 - func[2548] <_ZN3GUI16StaticTextWidget12setFontColorENS_11ThemeEngine9FontColorE> -> "_ZN3GUI16StaticTextWidget12setFontColorENS_11ThemeEngine9FontColorE"
 - func[2145] <_ZN3GUI13OptionsDialog22loadMusicDeviceSettingEPNS_11PopUpWidgetEN6Common6StringE9MusicType> -> "_ZN3GUI13OptionsDialog22loadMusicDeviceSettingEPNS_11PopUpWidgetEN6Common6StringE9MusicType"
 - func[9258] <_ZN3OPL6Config5parseERKN6Common6StringE> -> "_ZN3OPL6Config5parseERKN6Common6StringE"
 - func[2595] <_ZN3GUI16RadiobuttonGroup8setValueEi> -> "_ZN3GUI16RadiobuttonGroup8setValueEi"
 - func[2915] <_ZN3GUI11PopUpWidget12clearEntriesEv> -> "_ZN3GUI11PopUpWidget12clearEntriesEv"
 - func[9664] <_ZN11MusicDevice9getHandleEv> -> "_ZN11MusicDevice9getHandleEv"
 - func[2146] <_ZN3GUI13OptionsDialog15getSubtitleModeEbb> -> "_ZN3GUI13OptionsDialog15getSubtitleModeEbb"
 - func[2148] <_ZN3GUI13OptionsDialog7rebuildEv> -> "_ZN3GUI13OptionsDialog7rebuildEv"
 - func[12194] <_ZN6Common17getRenderModeCodeENS_10RenderModeE> -> "_ZN6Common17getRenderModeCodeENS_10RenderModeE"
 - func[6620] <_ZN8Graphics8Renderer11getTypeCodeENS_12RendererTypeE> -> "_ZN8Graphics8Renderer11getTypeCodeENS_12RendererTypeE"
 - func[12501] <_ZN6Common9U32StringaSERKNS_6StringE> -> "_ZN6Common9U32StringaSERKNS_6StringE"
 - func[12503] <_ZN6Common9U32StringaSEPKc> -> "_ZN6Common9U32StringaSEPKc"
 - func[12508] <_ZNK6Common9U32StringneERKNS_6StringE> -> "_ZNK6Common9U32StringneERKNS_6StringE"
 - func[2151] <_ZN3GUI13OptionsDialog20testGraphicsSettingsEv> -> "_ZN3GUI13OptionsDialog20testGraphicsSettingsEv"
 - func[3315] <_ZN6Common9Keymapper17reloadAllMappingsEv> -> "_ZN6Common9Keymapper17reloadAllMappingsEv"
 - func[2152] <_ZN3GUI13OptionsDialog22saveMusicDeviceSettingEPNS_11PopUpWidgetEN6Common6StringE> -> "_ZN3GUI13OptionsDialog22saveMusicDeviceSettingEPNS_11PopUpWidgetEN6Common6StringE"
 - func[9259] <_ZN3OPL6Config10findDriverEa> -> "_ZN3OPL6Config10findDriverEa"
 - func[6598] <_ZN8Graphics12renderPM5544Eii> -> "_ZN8Graphics12renderPM5544Eii"
 - func[2155] <_ZNK3GUI13OptionsDialog18updateSpeechVolumeEi> -> "_ZNK3GUI13OptionsDialog18updateSpeechVolumeEi"
 - func[2156] <_ZNK3GUI13OptionsDialog17updateMusicVolumeEi> -> "_ZNK3GUI13OptionsDialog17updateMusicVolumeEi"
 - func[2158] <_ZNK3GUI13OptionsDialog15updateSfxVolumeEi> -> "_ZNK3GUI13OptionsDialog15updateSfxVolumeEi"
 - func[3345] <_ZN6Common11RemapWidget18handleInputChangedEv> -> "_ZN6Common11RemapWidget18handleInputChangedEv"
 - func[19703] <strpbrk> -> "strpbrk"
 - func[2597] <_ZN3GUI16RadiobuttonGroup10setEnabledEb> -> "_ZN3GUI16RadiobuttonGroup10setEnabledEb"
 - func[2166] <_ZN3GUI13OptionsDialog18addControlControlsEPNS_9GuiObjectERKN6Common6StringE> -> "_ZN3GUI13OptionsDialog18addControlControlsEPNS_9GuiObjectERKN6Common6StringE"
 - func[2526] <_ZN3GUI6Widget8setFlagsEi> -> "_ZN3GUI6Widget8setFlagsEi"
 - func[3317] <_ZN6Common9Keymapper10initKeymapEPNS_6KeymapEPNS_13ConfigManager6DomainE> -> "_ZN6Common9Keymapper10initKeymapEPNS_6KeymapEPNS_13ConfigManager6DomainE"
 - func[3335] <_ZN6Common11RemapWidgetC2EPN3GUI9GuiObjectERKNS_6StringERKNS_5ArrayIPNS_6KeymapEEE> -> "_ZN6Common11RemapWidgetC1EPN3GUI9GuiObjectERKNS_6StringERKNS_5ArrayIPNS_6KeymapEEE"
 - func[2588] <_ZN3GUI14CheckboxWidgetC2EPNS_9GuiObjectEiiiiRKN6Common9U32StringES6_jh> -> "_ZN3GUI14CheckboxWidgetC1EPNS_9GuiObjectEiiiiRKN6Common9U32StringES6_jh"
 - func[2603] <_ZN3GUI12SliderWidgetC2EPNS_9GuiObjectEiiiiRKN6Common9U32StringEj> -> "_ZN3GUI12SliderWidgetC1EPNS_9GuiObjectEiiiiRKN6Common9U32StringEj"
 - func[12473] <_ZNK6Common18TranslationManager14getTranslationERKNS_6StringES3_> -> "_ZNK6Common18TranslationManager14getTranslationERKNS_6StringES3_"
 - func[12197] <_ZN6Common19allRenderModesGUIOsEv> -> "_ZN6Common19allRenderModesGUIOsEv"
 - func[12196] <_ZN6Common15renderMode2GUIOENS_10RenderModeE> -> "_ZN6Common15renderMode2GUIOENS_10RenderModeE"
 - func[6616] <_ZN8Graphics8Renderer9listTypesEv> -> "_ZN8Graphics8Renderer9listTypesEv"
 - global[4412] -> "_ZN3OPL6Config8_driversE"
 - func[2594] <_ZN3GUI16RadiobuttonGroupC2EPNS_9GuiObjectEj> -> "_ZN3GUI16RadiobuttonGroupC1EPNS_9GuiObjectEj"
 - func[2600] <_ZN3GUI17RadiobuttonWidgetC2EPNS_9GuiObjectERKN6Common6StringEPNS_16RadiobuttonGroupEiRKNS3_9U32StringESB_h> -> "_ZN3GUI17RadiobuttonWidgetC1EPNS_9GuiObjectERKN6Common6StringEPNS_16RadiobuttonGroupEiRKNS3_9U32StringESB_h"
 - func[2178] <_ZN3GUI19GlobalOptionsDialogC2EPNS_14LauncherDialogE> -> "_ZN3GUI19GlobalOptionsDialogC2EPNS_14LauncherDialogE"
 - global[4413] -> "_ZTVN3GUI19GlobalOptionsDialogE"
 - func[2179] <_ZN3GUI19GlobalOptionsDialogD2Ev> -> "_ZN3GUI19GlobalOptionsDialogD2Ev"
 - func[2180] <_ZThn484_N3GUI19GlobalOptionsDialogD1Ev> -> "_ZThn484_N3GUI19GlobalOptionsDialogD1Ev"
 - func[2181] <_ZN3GUI19GlobalOptionsDialogD0Ev> -> "_ZN3GUI19GlobalOptionsDialogD0Ev"
 - func[2182] <_ZThn484_N3GUI19GlobalOptionsDialogD0Ev> -> "_ZThn484_N3GUI19GlobalOptionsDialogD0Ev"
 - func[2183] <_ZN3GUI19GlobalOptionsDialog5buildEv> -> "_ZN3GUI19GlobalOptionsDialog5buildEv"
 - global[4414] -> "_ZN6Common13ConfigManager16kKeymapperDomainE"
 - func[2184] <_ZN3GUI19GlobalOptionsDialog16addPathsControlsEPNS_9GuiObjectERKN6Common6StringEb> -> "_ZN3GUI19GlobalOptionsDialog16addPathsControlsEPNS_9GuiObjectERKN6Common6StringEb"
 - func[2185] <_ZN3GUI19GlobalOptionsDialog15addMiscControlsEPNS_9GuiObjectERKN6Common6StringEb> -> "_ZN3GUI19GlobalOptionsDialog15addMiscControlsEPNS_9GuiObjectERKN6Common6StringEb"
 - func[2187] <_ZN3GUI19GlobalOptionsDialog15addMIDIControlsEPNS_9GuiObjectERKN6Common6StringE> -> "_ZN3GUI19GlobalOptionsDialog15addMIDIControlsEPNS_9GuiObjectERKN6Common6StringE"
 - global[4415] -> "_ZN3GUI11ThemeEngine18_rendererModesSizeE"
 - global[4416] -> "_ZN3GUI11ThemeEngine14_rendererModesE"
 - func[12474] <_ZNK6Common18TranslationManager25getSupportedLanguageNamesEv> -> "_ZNK6Common18TranslationManager25getSupportedLanguageNamesEv"
 - func[12477] <_ZNK6Common18TranslationManager13parseLanguageERKNS_6StringE> -> "_ZNK6Common18TranslationManager13parseLanguageERKNS_6StringE"
 - func[2188] <_ZN3GUI19GlobalOptionsDialog5cleanEv> -> "_ZN3GUI19GlobalOptionsDialog5cleanEv"
 - func[2189] <_ZN3GUI19GlobalOptionsDialog20updateAutosavePeriodEi> -> "_ZN3GUI19GlobalOptionsDialog20updateAutosavePeriodEi"
 - func[2190] <_ZN6Common13ConfigManager6DomainC2ERKS1_> -> "_ZN6Common13ConfigManager6DomainC2ERKS1_"
 - func[2191] <_ZN3GUI12ExistingSaveC2EP10MetaEngineRKN6Common6StringERK19SaveStateDescriptor> -> "_ZN3GUI12ExistingSaveC2EP10MetaEngineRKN6Common6StringERK19SaveStateDescriptor"
 - func[2192] <_ZN6Common5ArrayIN3GUI12ExistingSaveEE9push_backERKS2_> -> "_ZN6Common5ArrayIN3GUI12ExistingSaveEE9push_backERKS2_"
 - func[11709] <_ZN6Common10BaseStringIDiE14deleteLastCharEv> -> "_ZN6Common10BaseStringIDiE14deleteLastCharEv"
 - func[2193] <_ZN6Common5ArrayIN3GUI12ExistingSaveEE11freeStorageEPS2_j> -> "_ZN6Common5ArrayIN3GUI12ExistingSaveEE11freeStorageEPS2_j"
 - func[2194] <_ZN6Common5ArrayIN3GUI12ExistingSaveEE10insert_auxEPS2_PKS2_S6_> -> "_ZN6Common5ArrayIN3GUI12ExistingSaveEE10insert_auxEPS2_PKS2_S6_"
 - func[2195] <_ZN3GUI19GlobalOptionsDialog5applyEv> -> "_ZN3GUI19GlobalOptionsDialog5applyEv"
 - func[12478] <_ZNK6Common18TranslationManager11getLangByIdEi> -> "_ZNK6Common18TranslationManager11getLangByIdEi"
 - func[12471] <_ZNK6Common18TranslationManager24currentIsBuiltinLanguageEv> -> "_ZNK6Common18TranslationManager24currentIsBuiltinLanguageEv"
 - func[2197] <_ZN3GUI19GlobalOptionsDialog5closeEv> -> "_ZN3GUI19GlobalOptionsDialog5closeEv"
 - func[2198] <_ZN3GUI19GlobalOptionsDialog13handleCommandEPNS_13CommandSenderEjj> -> "_ZN3GUI19GlobalOptionsDialog13handleCommandEPNS_13CommandSenderEjj"
 - func[2283] <_ZN3GUI12ThemeBrowserC2Ev> -> "_ZN3GUI12ThemeBrowserC1Ev"
 - global[4417] -> "_ZTVN3GUI12ThemeBrowserE"
 - func[2199] <_ZN3GUI19GlobalOptionsDialog12handleTickleEv> -> "_ZN3GUI19GlobalOptionsDialog12handleTickleEv"
 - func[2200] <_ZN3GUI19GlobalOptionsDialog12reflowLayoutEv> -> "_ZN3GUI19GlobalOptionsDialog12reflowLayoutEv"
 - func[2201] <_ZN6Common18uninitialized_copyIPN3GUI12ExistingSaveES2_EEPT0_T_S6_S5_> -> "_ZN6Common18uninitialized_copyIPN3GUI12ExistingSaveES2_EEPT0_T_S6_S5_"
 - func[2202] <_ZN6Common18uninitialized_copyIPKN3GUI12ExistingSaveES2_EEPT0_T_S7_S6_> -> "_ZN6Common18uninitialized_copyIPKN3GUI12ExistingSaveES2_EEPT0_T_S7_S6_"
 - func[2203] <_ZN3GUI12ExistingSaveaSERKS0_> -> "_ZN3GUI12ExistingSaveaSERKS0_"
 - global[4418] -> "_ZTIN3GUI19GlobalOptionsDialogE"
 - global[4419] -> "_ZTSN3GUI13OptionsDialogE"
 - global[4420] -> "_ZTSN3GUI19GlobalOptionsDialogE"
 - func[2138] <_ZN3GUI13OptionsDialogC1ERKN6Common6StringEiiii> -> "_ZN3GUI13OptionsDialogC1ERKN6Common6StringEiiii"
 - func[2140] <_ZN3GUI13OptionsDialogC1ERKN6Common6StringES4_> -> "_ZN3GUI13OptionsDialogC1ERKN6Common6StringES4_"
 - func[2204] <_ZN3GUI16PredictiveDialogC1Ev> -> "_ZN3GUI16PredictiveDialogC2Ev"
 - global[4421] -> "_ZTVN3GUI16PredictiveDialogE"
 - global[4422] -> "_ZN3GUI11ThemeEngine15kImageDelButtonE"
 - func[2205] <_ZN3GUI16PredictiveDialog17loadAllDictionaryERNS0_4DictE> -> "_ZN3GUI16PredictiveDialog17loadAllDictionaryERNS0_4DictE"
 - func[2206] <_ZN3GUI16PredictiveDialog10mergeDictsEv> -> "_ZN3GUI16PredictiveDialog10mergeDictsEv"
 - func[2207] <_ZN3GUI16PredictiveDialog14loadDictionaryEPN6Common18SeekableReadStreamERNS0_4DictE> -> "_ZN3GUI16PredictiveDialog14loadDictionaryEPN6Common18SeekableReadStreamERNS0_4DictE"
 - func[2208] <_ZN3GUI16PredictiveDialogD1Ev> -> "_ZN3GUI16PredictiveDialogD2Ev"
 - func[2209] <_ZN3GUI16PredictiveDialogD0Ev> -> "_ZN3GUI16PredictiveDialogD0Ev"
 - func[2208] <_ZN3GUI16PredictiveDialogD1Ev> -> "_ZN3GUI16PredictiveDialogD1Ev"
 - func[2210] <_ZN3GUI16PredictiveDialog12reflowLayoutEv> -> "_ZN3GUI16PredictiveDialog12reflowLayoutEv"
 - func[2211] <_ZN3GUI16PredictiveDialog18saveUserDictToFileEv> -> "_ZN3GUI16PredictiveDialog18saveUserDictToFileEv"
 - func[2212] <_ZN3GUI16PredictiveDialog11handleKeyUpEN6Common8KeyStateE> -> "_ZN3GUI16PredictiveDialog11handleKeyUpEN6Common8KeyStateE"
 - func[2554] <_ZN3GUI12ButtonWidget17setUnpressedStateEv> -> "_ZN3GUI12ButtonWidget17setUnpressedStateEv"
 - func[2213] <_ZN3GUI16PredictiveDialog13processButtonENS0_8ButtonIdE> -> "_ZN3GUI16PredictiveDialog13processButtonENS0_8ButtonIdE"
 - func[2214] <_ZN3GUI16PredictiveDialog14bringWordtoTopEPci> -> "_ZN3GUI16PredictiveDialog14bringWordtoTopEPci"
 - func[2215] <_ZN3GUI16PredictiveDialog9matchWordEv> -> "_ZN3GUI16PredictiveDialog9matchWordEv"
 - func[19720] <strtok> -> "strtok"
 - func[2216] <_ZN3GUI16PredictiveDialog13addWordToDictEv> -> "_ZN3GUI16PredictiveDialog13addWordToDictEv"
 - func[12272] <_ZN6Common7strlcatEPcPKcm> -> "_ZN6Common7strlcatEPcPKcm"
 - func[2217] <_ZN3GUI16PredictiveDialog13handleKeyDownEN6Common8KeyStateE> -> "_ZN3GUI16PredictiveDialog13handleKeyDownEN6Common8KeyStateE"
 - func[2556] <_ZN3GUI12ButtonWidget15setPressedStateEv> -> "_ZN3GUI12ButtonWidget15setPressedStateEv"
 - func[2565] <_ZN3GUI12ButtonWidget14setHighLightedEb> -> "_ZN3GUI12ButtonWidget14setHighLightedEb"
 - func[2218] <_ZN3GUI16PredictiveDialog23updateHighLightedButtonENS0_8ButtonIdE> -> "_ZN3GUI16PredictiveDialog23updateHighLightedButtonENS0_8ButtonIdE"
 - func[2219] <_ZN3GUI16PredictiveDialog13handleCommandEPNS_13CommandSenderEjj> -> "_ZN3GUI16PredictiveDialog13handleCommandEPNS_13CommandSenderEjj"
 - func[2220] <_ZN3GUI16PredictiveDialog18countWordsInStringEPKc> -> "_ZN3GUI16PredictiveDialog18countWordsInStringEPKc"
 - func[2221] <_ZN3GUI16PredictiveDialog7addWordERNS0_4DictERKN6Common6StringES6_> -> "_ZN3GUI16PredictiveDialog7addWordERNS0_4DictERKN6Common6StringES6_"
 - func[2222] <_ZN3GUI16PredictiveDialog13pressEditTextEv> -> "_ZN3GUI16PredictiveDialog13pressEditTextEv"
 - func[2223] <_ZN3GUI16PredictiveDialog12binarySearchEPKPKcRKN6Common6StringEi> -> "_ZN3GUI16PredictiveDialog12binarySearchEPKPKcRKN6Common6StringEi"
 - func[2224] <_ZN3GUI16PredictiveDialog10searchWordEPKcRKN6Common6StringE> -> "_ZN3GUI16PredictiveDialog10searchWordEPKcRKN6Common6StringE"
 - func[12243] <_ZN6CommonplERKNS_6StringEc> -> "_ZN6CommonplERKNS_6StringEc"
 - func[12258] <_ZN6CommonplEcRKNS_6StringE> -> "_ZN6CommonplEcRKNS_6StringE"
 - global[4423] -> "_ZTIN3GUI16PredictiveDialogE"
 - global[4424] -> "_ZTSN3GUI16PredictiveDialogE"
 - func[2204] <_ZN3GUI16PredictiveDialogC1Ev> -> "_ZN3GUI16PredictiveDialogC1Ev"
 - func[2225] <_ZN3GUI15SaveLoadChooserC2ERKN6Common9U32StringES4_b> -> "_ZN3GUI15SaveLoadChooserC2ERKN6Common9U32StringES4_b"
 - func[2226] <_ZN3GUI15SaveLoadChooserD2Ev> -> "_ZN3GUI15SaveLoadChooserD2Ev"
 - func[2227] <_ZN3GUI15SaveLoadChooser13selectChooserEPK10MetaEngine> -> "_ZN3GUI15SaveLoadChooser13selectChooserEPK10MetaEngine"
 - func[2232] <_ZN3GUI26getRequestedSaveLoadDialogEPK10MetaEngine> -> "_ZN3GUI26getRequestedSaveLoadDialogEPK10MetaEngine"
 - func[2257] <_ZN3GUI19SaveLoadChooserGridC2ERKN6Common9U32StringEb> -> "_ZN3GUI19SaveLoadChooserGridC1ERKN6Common9U32StringEb"
 - func[2247] <_ZN3GUI21SaveLoadChooserSimpleC2ERKN6Common9U32StringES4_b> -> "_ZN3GUI21SaveLoadChooserSimpleC1ERKN6Common9U32StringES4_b"
 - func[2240] <_ZN3GUI21SaveLoadChooserDialog3runERKN6Common6StringEPK10MetaEngine> -> "_ZN3GUI21SaveLoadChooserDialog3runERKN6Common6StringEPK10MetaEngine"
 - func[2233] <_ZN3GUI21SaveLoadChooserDialogC2ERKN6Common6StringEb> -> "_ZN3GUI21SaveLoadChooserDialogC2ERKN6Common6StringEb"
 - global[4425] -> "_ZTVN3GUI21SaveLoadChooserDialogE"
 - func[2234] <_ZN3GUI21SaveLoadChooserDialog17addChooserButtonsEv> -> "_ZN3GUI21SaveLoadChooserDialog17addChooserButtonsEv"
 - func[2235] <_ZN3GUI21SaveLoadChooserDialog18createSwitchButtonERKN6Common6StringERKNS1_9U32StringES7_PKcj> -> "_ZN3GUI21SaveLoadChooserDialog18createSwitchButtonERKN6Common6StringERKNS1_9U32StringES7_PKcj"
 - func[2236] <_ZN3GUI21SaveLoadChooserDialogC2Eiiiib> -> "_ZN3GUI21SaveLoadChooserDialogC2Eiiiib"
 - func[2237] <_ZN3GUI21SaveLoadChooserDialogD0Ev> -> "_ZN3GUI21SaveLoadChooserDialogD0Ev"
 - func[2238] <_ZN3GUI21SaveLoadChooserDialog4openEv> -> "_ZN3GUI21SaveLoadChooserDialog4openEv"
 - func[2239] <_ZN3GUI21SaveLoadChooserDialog5closeEv> -> "_ZN3GUI21SaveLoadChooserDialog5closeEv"
 - func[2241] <_ZN3GUI21SaveLoadChooserDialog13handleCommandEPNS_13CommandSenderEjj> -> "_ZN3GUI21SaveLoadChooserDialog13handleCommandEPNS_13CommandSenderEjj"
 - func[2242] <_ZN3GUI21SaveLoadChooserDialog12handleTickleEv> -> "_ZN3GUI21SaveLoadChooserDialog12handleTickleEv"
 - func[2243] <_ZN3GUI21SaveLoadChooserDialog12reflowLayoutEv> -> "_ZN3GUI21SaveLoadChooserDialog12reflowLayoutEv"
 - func[2244] <_ZN3GUI21SaveLoadChooserDialog14updateSaveListEv> -> "_ZN3GUI21SaveLoadChooserDialog14updateSaveListEv"
 - func[2245] <_ZN3GUI21SaveLoadChooserDialog9listSavesEv> -> "_ZN3GUI21SaveLoadChooserDialog9listSavesEv"
 - func[2246] <_ZN3GUI21SaveLoadChooserDialog8activateEiRKN6Common9U32StringE> -> "_ZN3GUI21SaveLoadChooserDialog8activateEiRKN6Common9U32StringE"
 - func[2247] <_ZN3GUI21SaveLoadChooserSimpleC2ERKN6Common9U32StringES4_b> -> "_ZN3GUI21SaveLoadChooserSimpleC2ERKN6Common9U32StringES4_b"
 - global[4426] -> "_ZTVN3GUI21SaveLoadChooserSimpleE"
 - func[2613] <_ZN3GUI14GraphicsWidgetC2EPNS_9GuiObjectEiiiiRKN6Common9U32StringE> -> "_ZN3GUI14GraphicsWidgetC1EPNS_9GuiObjectEiiiiRKN6Common9U32StringE"
 - func[2248] <_ZN3GUI21SaveLoadChooserSimple21addThumbnailContainerEv> -> "_ZN3GUI21SaveLoadChooserSimple21addThumbnailContainerEv"
 - func[2623] <_ZN3GUI15ContainerWidgetC2EPNS_9GuiObjectERKN6Common6StringE> -> "_ZN3GUI15ContainerWidgetC1EPNS_9GuiObjectERKN6Common6StringE"
 - func[2249] <_ZN3GUI21SaveLoadChooserSimple9runInternEv> -> "_ZN3GUI21SaveLoadChooserSimple9runInternEv"
 - func[11712] <_ZN6Common10BaseStringIDiE5clearEv> -> "_ZN6Common10BaseStringIDiE5clearEv"
 - func[2250] <_ZNK3GUI21SaveLoadChooserSimple15getResultStringEv> -> "_ZNK3GUI21SaveLoadChooserSimple15getResultStringEv"
 - func[2845] <_ZN3GUI10ListWidget18stripGUIformattingERKN6Common9U32StringE> -> "_ZN3GUI10ListWidget18stripGUIformattingERKN6Common9U32StringE"
 - func[2251] <_ZN3GUI21SaveLoadChooserSimple13handleCommandEPNS_13CommandSenderEjj> -> "_ZN3GUI21SaveLoadChooserSimple13handleCommandEPNS_13CommandSenderEjj"
 - func[2252] <_ZN3GUI21SaveLoadChooserSimple15updateSelectionEb> -> "_ZN3GUI21SaveLoadChooserSimple15updateSelectionEb"
 - func[2619] <_ZN3GUI14GraphicsWidget6setGfxEiiiii> -> "_ZN3GUI14GraphicsWidget6setGfxEiiiii"
 - func[2618] <_ZN3GUI14GraphicsWidget6setGfxEPKN8Graphics7SurfaceEb> -> "_ZN3GUI14GraphicsWidget6setGfxEPKN8Graphics7SurfaceEb"
 - func[2253] <_ZN3GUI21SaveLoadChooserSimple12reflowLayoutEv> -> "_ZN3GUI21SaveLoadChooserSimple12reflowLayoutEv"
 - func[2388] <_ZN3GUI9ThemeEval13getWidgetDataERKN6Common6StringERsS5_S5_S5_> -> "_ZN3GUI9ThemeEval13getWidgetDataERKN6Common6StringERsS5_S5_S5_"
 - func[2254] <_ZN3GUI21SaveLoadChooserSimple4openEv> -> "_ZN3GUI21SaveLoadChooserSimple4openEv"
 - func[2255] <_ZN3GUI21SaveLoadChooserSimple5closeEv> -> "_ZN3GUI21SaveLoadChooserSimple5closeEv"
 - func[2256] <_ZN3GUI21SaveLoadChooserSimple14updateSaveListEv> -> "_ZN3GUI21SaveLoadChooserSimple14updateSaveListEv"
 - func[11735] <_ZN6Common10BaseStringIDiE4trimEv> -> "_ZN6Common10BaseStringIDiE4trimEv"
 - func[2257] <_ZN3GUI19SaveLoadChooserGridC2ERKN6Common9U32StringEb> -> "_ZN3GUI19SaveLoadChooserGridC2ERKN6Common9U32StringEb"
 - global[4427] -> "_ZTVN3GUI19SaveLoadChooserGridE"
 - func[2275] <_ZN3GUI14SavenameDialogC2Ev> -> "_ZN3GUI14SavenameDialogC1Ev"
 - func[2629] <_ZN3GUI15ContainerWidget17setBackgroundTypeENS_11ThemeEngine16WidgetBackgroundE> -> "_ZN3GUI15ContainerWidget17setBackgroundTypeENS_11ThemeEngine16WidgetBackgroundE"
 - func[2258] <_ZN3GUI19SaveLoadChooserGridD1Ev> -> "_ZN3GUI19SaveLoadChooserGridD2Ev"
 - func[2259] <_ZN3GUI19SaveLoadChooserGridD0Ev> -> "_ZN3GUI19SaveLoadChooserGridD0Ev"
 - func[2258] <_ZN3GUI19SaveLoadChooserGridD1Ev> -> "_ZN3GUI19SaveLoadChooserGridD1Ev"
 - func[2260] <_ZNK3GUI19SaveLoadChooserGrid15getResultStringEv> -> "_ZNK3GUI19SaveLoadChooserGrid15getResultStringEv"
 - func[2261] <_ZN3GUI19SaveLoadChooserGrid13handleCommandEPNS_13CommandSenderEjj> -> "_ZN3GUI19SaveLoadChooserGrid13handleCommandEPNS_13CommandSenderEjj"
 - func[2262] <_ZN3GUI19SaveLoadChooserGrid11updateSavesEv> -> "_ZN3GUI19SaveLoadChooserGrid11updateSavesEv"
 - func[2585] <_ZN3GUI15PicButtonWidget6setGfxEPKN8Graphics7SurfaceEib> -> "_ZN3GUI15PicButtonWidget6setGfxEPKN8Graphics7SurfaceEib"
 - func[2586] <_ZN3GUI15PicButtonWidget6setGfxEiiiiii> -> "_ZN3GUI15PicButtonWidget6setGfxEiiiiii"
 - func[2263] <_ZN3GUI19SaveLoadChooserGrid16handleMouseWheelEiii> -> "_ZN3GUI19SaveLoadChooserGrid16handleMouseWheelEiii"
 - func[2264] <_ZN3GUI19SaveLoadChooserGrid14updateSaveListEv> -> "_ZN3GUI19SaveLoadChooserGrid14updateSaveListEv"
 - func[2265] <_ZN3GUI19SaveLoadChooserGrid4openEv> -> "_ZN3GUI19SaveLoadChooserGrid4openEv"
 - func[2266] <_ZN3GUI19SaveLoadChooserGrid12reflowLayoutEv> -> "_ZN3GUI19SaveLoadChooserGrid12reflowLayoutEv"
 - func[2522] <_ZN3GUI6Widget4initEv> -> "_ZN3GUI6Widget4initEv"
 - func[2622] <_ZN3GUI15ContainerWidgetC2EPNS_9GuiObjectEiiii> -> "_ZN3GUI15ContainerWidgetC1EPNS_9GuiObjectEiiii"
 - func[2579] <_ZN3GUI15PicButtonWidgetC2EPNS_9GuiObjectEiiiiRKN6Common9U32StringEjh> -> "_ZN3GUI15PicButtonWidgetC1EPNS_9GuiObjectEiiiiRKN6Common9U32StringEjh"
 - func[2267] <_ZN6Common5ArrayIN3GUI19SaveLoadChooserGrid10SlotButtonEE10insert_auxEPS3_PKS3_S7_> -> "_ZN6Common5ArrayIN3GUI19SaveLoadChooserGrid10SlotButtonEE10insert_auxEPS3_PKS3_S7_"
 - func[2268] <_ZN3GUI19SaveLoadChooserGrid14destroyButtonsEv> -> "_ZN3GUI19SaveLoadChooserGrid14destroyButtonsEv"
 - func[2269] <_ZN3GUI19SaveLoadChooserGrid5closeEv> -> "_ZN3GUI19SaveLoadChooserGrid5closeEv"
 - func[2270] <_ZN3GUI19SaveLoadChooserGrid11hideButtonsEv> -> "_ZN3GUI19SaveLoadChooserGrid11hideButtonsEv"
 - func[2271] <_ZN3GUI19SaveLoadChooserGrid9runInternEv> -> "_ZN3GUI19SaveLoadChooserGrid9runInternEv"
 - func[2272] <_ZN3GUI19SaveLoadChooserGrid17selectDescriptionEv> -> "_ZN3GUI19SaveLoadChooserGrid17selectDescriptionEv"
 - func[2273] <_ZN3GUI14SavenameDialog14setDescriptionERKN6Common9U32StringE> -> "_ZN3GUI14SavenameDialog14setDescriptionERKN6Common9U32StringE"
 - func[2274] <_ZN3GUI14SavenameDialog14getDescriptionEv> -> "_ZN3GUI14SavenameDialog14getDescriptionEv"
 - func[2275] <_ZN3GUI14SavenameDialogC2Ev> -> "_ZN3GUI14SavenameDialogC2Ev"
 - global[4428] -> "_ZTVN3GUI14SavenameDialogE"
 - func[2276] <_ZN3GUI14SavenameDialog4openEv> -> "_ZN3GUI14SavenameDialog4openEv"
 - func[2277] <_ZN3GUI14SavenameDialog13handleCommandEPNS_13CommandSenderEjj> -> "_ZN3GUI14SavenameDialog13handleCommandEPNS_13CommandSenderEjj"
 - func[2278] <_ZN3GUI21SaveLoadChooserDialogD1Ev> -> "_ZN3GUI21SaveLoadChooserDialogD2Ev"
 - func[2279] <_ZN3GUI21SaveLoadChooserSimpleD0Ev> -> "_ZN3GUI21SaveLoadChooserSimpleD0Ev"
 - func[2280] <_ZNK3GUI21SaveLoadChooserSimple7getTypeEv> -> "_ZNK3GUI21SaveLoadChooserSimple7getTypeEv"
 - func[2281] <_ZN3GUI14SavenameDialogD0Ev> -> "_ZN3GUI14SavenameDialogD0Ev"
 - func[2282] <_ZNK3GUI19SaveLoadChooserGrid7getTypeEv> -> "_ZNK3GUI19SaveLoadChooserGrid7getTypeEv"
 - global[4429] -> "_ZTIN3GUI21SaveLoadChooserDialogE"
 - func[2278] <_ZN3GUI21SaveLoadChooserDialogD1Ev> -> "_ZN3GUI21SaveLoadChooserDialogD1Ev"
 - global[4430] -> "_ZTIN3GUI21SaveLoadChooserSimpleE"
 - global[4431] -> "_ZTIN3GUI19SaveLoadChooserGridE"
 - global[4432] -> "_ZTIN3GUI14SavenameDialogE"
 - global[4433] -> "_ZTSN3GUI21SaveLoadChooserDialogE"
 - global[4434] -> "_ZTSN3GUI21SaveLoadChooserSimpleE"
 - global[4435] -> "_ZTSN3GUI14SavenameDialogE"
 - global[4436] -> "_ZTSN3GUI19SaveLoadChooserGridE"
 - func[2283] <_ZN3GUI12ThemeBrowserC2Ev> -> "_ZN3GUI12ThemeBrowserC2Ev"
 - func[2284] <_ZN3GUI12ThemeBrowser4openEv> -> "_ZN3GUI12ThemeBrowser4openEv"
 - func[2285] <_ZN3GUI12ThemeBrowser13updateListingEv> -> "_ZN3GUI12ThemeBrowser13updateListingEv"
 - func[2286] <_ZN3GUI12ThemeBrowser13handleCommandEPNS_13CommandSenderEjj> -> "_ZN3GUI12ThemeBrowser13handleCommandEPNS_13CommandSenderEjj"
 - func[2287] <_ZN3GUI12ThemeBrowserD2Ev> -> "_ZN3GUI12ThemeBrowserD2Ev"
 - func[2288] <_ZN3GUI12ThemeBrowserD0Ev> -> "_ZN3GUI12ThemeBrowserD0Ev"
 - global[4437] -> "_ZTIN3GUI12ThemeBrowserE"
 - global[4438] -> "_ZTSN3GUI12ThemeBrowserE"
 - func[2289] <_ZN3GUI11ThemeEngineC2EN6Common6StringENS0_12GraphicsModeE> -> "_ZN3GUI11ThemeEngineC2EN6Common6StringENS0_12GraphicsModeE"
 - func[6469] <_ZN8Graphics14ManagedSurfaceC2Ev> -> "_ZN8Graphics14ManagedSurfaceC1Ev"
 - func[2449] <_ZN3GUI11ThemeParserC2EPNS_11ThemeEngineE> -> "_ZN3GUI11ThemeParserC1EPNS_11ThemeEngineE"
 - func[2290] <_ZN3GUI9ThemeEvalC2Ev> -> "_ZN3GUI9ThemeEvalC2Ev"
 - func[2291] <_ZN3GUI11ThemeEngine12getThemeFileERKN6Common6StringE> -> "_ZN3GUI11ThemeEngine12getThemeFileERKN6Common6StringE"
 - func[2292] <_ZN3GUI11ThemeEngine10getThemeIdERKN6Common6StringE> -> "_ZN3GUI11ThemeEngine10getThemeIdERKN6Common6StringE"
 - func[2387] <_ZN3GUI9ThemeEval16buildBuiltinVarsEv> -> "_ZN3GUI9ThemeEval16buildBuiltinVarsEv"
 - func[11962] <_ZNK6Common6FSNode7getNameEv> -> "_ZNK6Common6FSNode7getNameEv"
 - func[2294] <_ZN3GUI11ThemeEngineD2Ev> -> "_ZN3GUI11ThemeEngineD2Ev"
 - func[6486] <_ZN8Graphics14ManagedSurface4freeEv> -> "_ZN8Graphics14ManagedSurface4freeEv"
 - func[2295] <_ZN3GUI11ThemeEngine11unloadThemeEv> -> "_ZN3GUI11ThemeEngine11unloadThemeEv"
 - func[2296] <_ZNK6Common7HashMapINS_6StringEPN8Graphics14ManagedSurfaceENS_4HashIS1_EENS_7EqualToIS1_EEE12IteratorImplINS9_4NodeEE5derefEv> -> "_ZNK6Common7HashMapINS_6StringEPN8Graphics14ManagedSurfaceENS_4HashIS1_EENS_7EqualToIS1_EEE12IteratorImplINS9_4NodeEE5derefEv"
 - func[2384] <_ZN3GUI9ThemeEvalD2Ev> -> "_ZN3GUI9ThemeEvalD1Ev"
 - func[6479] <_ZN8Graphics14ManagedSurfaceD2Ev> -> "_ZN8Graphics14ManagedSurfaceD1Ev"
 - func[2385] <_ZN3GUI9ThemeEval5resetEv> -> "_ZN3GUI9ThemeEval5resetEv"
 - func[2297] <_ZN3GUI11ThemeEngine15unloadExtraFontEv> -> "_ZN3GUI11ThemeEngine15unloadExtraFontEv"
 - func[2302] <_ZN3GUI11ThemeEngine15setGraphicsModeENS0_12GraphicsModeE> -> "_ZN3GUI11ThemeEngine15setGraphicsModeENS0_12GraphicsModeE"
 - func[2303] <_ZN3GUI11ThemeEngine9loadThemeERKN6Common6StringE> -> "_ZN3GUI11ThemeEngine9loadThemeERKN6Common6StringE"
 - func[6473] <_ZN8Graphics14ManagedSurface6createEssRKNS_11PixelFormatE> -> "_ZN8Graphics14ManagedSurface6createEssRKNS_11PixelFormatE"
 - func[6856] <_ZN8Graphics14createRendererEi> -> "_ZN8Graphics14createRendererEi"
 - func[2304] <_ZN3GUI11ThemeEngine14loadDefaultXMLEv> -> "_ZN3GUI11ThemeEngine14loadDefaultXMLEv"
 - func[2305] <_ZN3GUI11ThemeEngine12loadThemeXMLERKN6Common6StringE> -> "_ZN3GUI11ThemeEngine12loadThemeXMLERKN6Common6StringE"
 - func[2306] <_ZN8Graphics14VectorRenderer20drawCallback_BEVELSQERKN6Common4RectERKNS_8DrawStepE> -> "_ZN8Graphics14VectorRenderer20drawCallback_BEVELSQERKN6Common4RectERKNS_8DrawStepE"
 - func[2310] <_ZN3GUI11ThemeEngine10showCursorEv> -> "_ZN3GUI11ThemeEngine10showCursorEv"
 - func[2312] <_ZN3GUI11ThemeEngine10hideCursorEv> -> "_ZN3GUI11ThemeEngine10hideCursorEv"
 - func[2313] <_ZN3GUI14WidgetDrawData20calcBackgroundOffsetEv> -> "_ZN3GUI14WidgetDrawData20calcBackgroundOffsetEv"
 - func[6841] <_ZN8Graphics14VectorRenderer16stepGetPositionsERKNS_8DrawStepERKN6Common4RectERtS8_S8_S8_> -> "_ZN8Graphics14VectorRenderer16stepGetPositionsERKNS_8DrawStepERKN6Common4RectERtS8_S8_S8_"
 - func[2314] <_ZN3GUI11ThemeEngine17restoreBackgroundEN6Common4RectE> -> "_ZN3GUI11ThemeEngine17restoreBackgroundEN6Common4RectE"
 - func[2315] <_ZN6Common4Rect4clipERKS0_> -> "_ZN6Common4Rect4clipERKS0_"
 - func[2316] <_ZN3GUI11ThemeEngine12addDirtyRectEN6Common4RectE> -> "_ZN3GUI11ThemeEngine12addDirtyRectEN6Common4RectE"
 - func[2317] <_ZN3GUI11ThemeEngine11addDrawStepERKN6Common6StringERKN8Graphics8DrawStepE> -> "_ZN3GUI11ThemeEngine11addDrawStepERKN6Common6StringERKN8Graphics8DrawStepE"
 - func[2318] <_ZNK3GUI11ThemeEngine15parseDrawDataIdERKN6Common6StringE> -> "_ZNK3GUI11ThemeEngine15parseDrawDataIdERKN6Common6StringE"
 - func[2319] <_ZN3GUI11ThemeEngine11addTextDataERKN6Common6StringENS_8TextDataENS_9TextColorEN8Graphics9TextAlignENS0_17TextAlignVerticalE> -> "_ZN3GUI11ThemeEngine11addTextDataERKN6Common6StringENS_8TextDataENS_9TextColorEN8Graphics9TextAlignENS0_17TextAlignVerticalE"
 - func[2320] <_ZN3GUI11ThemeEngine7addFontENS_8TextDataERKN6Common6StringES5_S5_i> -> "_ZN3GUI11ThemeEngine7addFontENS_8TextDataERKN6Common6StringES5_S5_i"
 - func[2321] <_ZN3GUI11ThemeEngine8loadFontERKN6Common6StringES4_ib> -> "_ZN3GUI11ThemeEngine8loadFontERKN6Common6StringES4_ib"
 - func[2322] <_ZN3GUI11ThemeEngine16loadScalableFontERKN6Common6StringEiRS2_> -> "_ZN3GUI11ThemeEngine16loadScalableFontERKN6Common6StringEiRS2_"
 - func[2323] <_ZN3GUI11ThemeEngine8loadFontERKN6Common6StringERS2_> -> "_ZN3GUI11ThemeEngine8loadFontERKN6Common6StringERS2_"
 - func[5798] <_ZN8Graphics11FontManager16assignFontToNameERKN6Common6StringEPKNS_4FontE> -> "_ZN8Graphics11FontManager16assignFontToNameERKN6Common6StringEPKNS_4FontE"
 - func[5796] <_ZN8Graphics11FontManager16setLocalizedFontERKN6Common6StringE> -> "_ZN8Graphics11FontManager16setLocalizedFontERKN6Common6StringE"
 - func[2324] <_ZN3GUI18getLangIdentifiersERKN6Common6StringE> -> "_ZN3GUI18getLangIdentifiersERKN6Common6StringE"
 - func[2325] <_ZN6Common5ArrayINS_8LanguageEE10insert_auxEPS1_PKS1_S5_> -> "_ZN6Common5ArrayINS_8LanguageEE10insert_auxEPS1_PKS1_S5_"
 - func[2326] <_ZN3GUI11ThemeEngine14storeFontNamesENS_8TextDataERKN6Common6StringES5_S5_i> -> "_ZN3GUI11ThemeEngine14storeFontNamesENS_8TextDataERKN6Common6StringES5_S5_i"
 - func[2327] <_ZN3GUI13LangExtraFontC2ENS_8TextDataERN6Common5ArrayINS2_8LanguageEEERKNS2_6StringES9_i> -> "_ZN3GUI13LangExtraFontC2ENS_8TextDataERN6Common5ArrayINS2_8LanguageEEERKNS2_6StringES9_i"
 - func[2328] <_ZN6Common5ArrayIN3GUI13LangExtraFontEE9push_backERKS2_> -> "_ZN6Common5ArrayIN3GUI13LangExtraFontEE9push_backERKS2_"
 - func[2329] <_ZN6Common5ArrayIN3GUI13LangExtraFontEE10insert_auxEPS2_PKS2_S6_> -> "_ZN6Common5ArrayIN3GUI13LangExtraFontEE10insert_auxEPS2_PKS2_S6_"
 - func[2330] <_ZN3GUI11ThemeEngine13loadExtraFontENS0_9FontStyleEN6Common8LanguageE> -> "_ZN3GUI11ThemeEngine13loadExtraFontENS0_9FontStyleEN6Common8LanguageE"
 - func[2331] <_ZN3GUI11ThemeEngine12addTextColorENS_9TextColorEiii> -> "_ZN3GUI11ThemeEngine12addTextColorENS_9TextColorEiii"
 - func[2332] <_ZN3GUI11ThemeEngine9addBitmapERKN6Common6StringES4_ii> -> "_ZN3GUI11ThemeEngine9addBitmapERKN6Common6StringES4_ii"
 - func[2333] <_ZN6Common7HashMapINS_6StringEPN8Graphics14ManagedSurfaceENS_4HashIS1_EENS_7EqualToIS1_EEE24lookupAndCreateIfMissingERKS1_> -> "_ZN6Common7HashMapINS_6StringEPN8Graphics14ManagedSurfaceENS_4HashIS1_EENS_7EqualToIS1_EEE24lookupAndCreateIfMissingERKS1_"
 - func[2334] <_ZN6Common7HashMapINS_6StringEPN8Graphics14ManagedSurfaceENS_4HashIS1_EENS_7EqualToIS1_EEE5eraseERKS1_> -> "_ZN6Common7HashMapINS_6StringEPN8Graphics14ManagedSurfaceENS_4HashIS1_EENS_7EqualToIS1_EEE5eraseERKS1_"
 - func[11579] <_ZNK6Common9SearchSet19listMatchingMembersERNS_4ListINS_9SharedPtrINS_13ArchiveMemberEEEEERKNS_4PathE> -> "_ZNK6Common9SearchSet19listMatchingMembersERNS_4ListINS_9SharedPtrINS_13ArchiveMemberEEEEERKNS_4PathE"
 - func[6782] <_ZN8Graphics9SVGBitmapC2EPN6Common18SeekableReadStreamE> -> "_ZN8Graphics9SVGBitmapC1EPN6Common18SeekableReadStreamE"
 - func[6474] <_ZN8Graphics14ManagedSurfaceC2EiiRKNS_11PixelFormatE> -> "_ZN8Graphics14ManagedSurfaceC1EiiRKNS_11PixelFormatE"
 - func[6784] <_ZN8Graphics9SVGBitmap6renderERNS_14ManagedSurfaceEii> -> "_ZN8Graphics9SVGBitmap6renderERNS_14ManagedSurfaceEii"
 - func[6783] <_ZN8Graphics9SVGBitmapD2Ev> -> "_ZN8Graphics9SVGBitmapD1Ev"
 - func[5392] <_ZN5Image10PNGDecoderC2Ev> -> "_ZN5Image10PNGDecoderC1Ev"
 - func[5402] <_ZN5Image10PNGDecoder10loadStreamERN6Common18SeekableReadStreamE> -> "_ZN5Image10PNGDecoder10loadStreamERN6Common18SeekableReadStreamE"
 - func[6476] <_ZN8Graphics14ManagedSurfaceC2EPNS_7SurfaceEN15DisposeAfterUse4FlagE> -> "_ZN8Graphics14ManagedSurfaceC1EPNS_7SurfaceEN15DisposeAfterUse4FlagE"
 - func[5393] <_ZN5Image10PNGDecoderD2Ev> -> "_ZN5Image10PNGDecoderD1Ev"
 - func[2335] <_ZN3GUI11ThemeEngine11addDrawDataERKN6Common6StringEb> -> "_ZN3GUI11ThemeEngine11addDrawDataERKN6Common6StringEb"
 - func[19698] <strncat> -> "strncat"
 - func[13009] <_ZN6Common9XMLParser10loadBufferEPKhjN15DisposeAfterUse4FlagE> -> "_ZN6Common9XMLParser10loadBufferEPKhjN15DisposeAfterUse4FlagE"
 - func[2336] <_ZN3GUI11ThemeEngine22themeConfigParseHeaderEN6Common6StringERS2_> -> "_ZN3GUI11ThemeEngine22themeConfigParseHeaderEN6Common6StringERS2_"
 - func[11635] <_ZN6Common10BaseStringIcE10deleteCharEj> -> "_ZN6Common10BaseStringIcE10deleteCharEj"
 - func[2337] <_ZN3GUI11ThemeEngine6drawDDENS_8DrawDataERKN6Common4RectEjb> -> "_ZN3GUI11ThemeEngine6drawDDENS_8DrawDataERKN6Common4RectEjb"
 - func[2338] <_ZN3GUI11ThemeEngine10drawDDTextENS_8TextDataENS_9TextColorERKN6Common4RectERKNS3_9U32StringEbbN8Graphics9TextAlignENS0_17TextAlignVerticalEiS6_> -> "_ZN3GUI11ThemeEngine10drawDDTextENS_8TextDataENS_9TextColorERKN6Common4RectERKNS3_9U32StringEbbN8Graphics9TextAlignENS0_17TextAlignVerticalEiS6_"
 - func[2339] <_ZN3GUI11ThemeEngine10drawButtonERKN6Common4RectERKNS1_9U32StringENS0_5StateEt> -> "_ZN3GUI11ThemeEngine10drawButtonERKN6Common4RectERKNS1_9U32StringENS0_5StateEt"
 - func[5789] <_ZN8Graphics17convertTextAlignHENS_9TextAlignEb> -> "_ZN8Graphics17convertTextAlignHENS_9TextAlignEb"
 - func[2340] <_ZNK3GUI11ThemeEngine11getTextDataENS_8DrawDataE> -> "_ZNK3GUI11ThemeEngine11getTextDataENS_8DrawDataE"
 - func[2341] <_ZNK3GUI11ThemeEngine12getTextColorENS_8DrawDataE> -> "_ZNK3GUI11ThemeEngine12getTextColorENS_8DrawDataE"
 - func[2342] <_ZN3GUI11ThemeEngine18drawDropDownButtonERKN6Common4RectEjRKNS1_9U32StringENS0_5StateEbbb> -> "_ZN3GUI11ThemeEngine18drawDropDownButtonERKN6Common4RectEjRKNS1_9U32StringENS0_5StateEbbb"
 - func[2343] <_ZN3GUI11ThemeEngine17drawLineSeparatorERKN6Common4RectE> -> "_ZN3GUI11ThemeEngine17drawLineSeparatorERKN6Common4RectE"
 - func[2344] <_ZN3GUI11ThemeEngine12drawCheckboxERKN6Common4RectEiRKNS1_9U32StringEbNS0_5StateEbb> -> "_ZN3GUI11ThemeEngine12drawCheckboxERKN6Common4RectEiRKNS1_9U32StringEbNS0_5StateEbb"
 - func[2346] <_ZN3GUI11ThemeEngine15drawRadiobuttonERKN6Common4RectEiRKNS1_9U32StringEbNS0_5StateEb> -> "_ZN3GUI11ThemeEngine15drawRadiobuttonERKN6Common4RectEiRKNS1_9U32StringEbNS0_5StateEb"
 - func[2347] <_ZN3GUI11ThemeEngine10drawSliderERKN6Common4RectEiNS0_5StateEb> -> "_ZN3GUI11ThemeEngine10drawSliderERKN6Common4RectEiNS0_5StateEb"
 - func[2348] <_ZN3GUI11ThemeEngine20drawWidgetBackgroundERKN6Common4RectENS0_16WidgetBackgroundE> -> "_ZN3GUI11ThemeEngine20drawWidgetBackgroundERKN6Common4RectENS0_16WidgetBackgroundE"
 - func[2349] <_ZN3GUI11ThemeEngine13drawScrollbarERKN6Common4RectEiiNS0_14ScrollbarStateE> -> "_ZN3GUI11ThemeEngine13drawScrollbarERKN6Common4RectEiiNS0_14ScrollbarStateE"
 - func[2352] <_ZN3GUI11ThemeEngine15drawPopUpWidgetERKN6Common4RectERKNS1_9U32StringEiNS0_5StateEb> -> "_ZN3GUI11ThemeEngine15drawPopUpWidgetERKN6Common4RectERKNS1_9U32StringEiNS0_5StateEb"
 - func[2353] <_ZN3GUI11ThemeEngine11drawSurfaceERKN6Common5PointERKN8Graphics14ManagedSurfaceEb> -> "_ZN3GUI11ThemeEngine11drawSurfaceERKN6Common5PointERKN8Graphics14ManagedSurfaceEb"
 - func[2354] <_ZN3GUI11ThemeEngine7drawTabERKN6Common4RectEiRKNS1_5ArrayIiEERKNS5_INS1_9U32StringEEEib> -> "_ZN3GUI11ThemeEngine7drawTabERKN6Common4RectEiRKNS1_5ArrayIiEERKNS5_INS1_9U32StringEEEib"
 - func[2357] <_ZN3GUI11ThemeEngine17drawFoldIndicatorERKN6Common4RectEb> -> "_ZN3GUI11ThemeEngine17drawFoldIndicatorERKN6Common4RectEb"
 - func[2358] <_ZN3GUI11ThemeEngine19debugWidgetPositionEPKcRKN6Common4RectE> -> "_ZN3GUI11ThemeEngine19debugWidgetPositionEPKcRKN6Common4RectE"
 - func[5785] <_ZNK8Graphics4Font10drawStringEPNS_14ManagedSurfaceERKN6Common6StringEiiijNS_9TextAlignEib> -> "_ZNK8Graphics4Font10drawStringEPNS_14ManagedSurfaceERKN6Common6StringEiiijNS_9TextAlignEib"
 - func[6733] <_ZN8Graphics7Surface5hLineEiiij> -> "_ZN8Graphics7Surface5hLineEiiij"
 - func[6734] <_ZN8Graphics7Surface5vLineEiiij> -> "_ZN8Graphics7Surface5vLineEiiij"
 - func[2361] <_ZN3GUI11ThemeEngine17updateDirtyScreenEv> -> "_ZN3GUI11ThemeEngine17updateDirtyScreenEv"
 - func[2363] <_ZN3GUI11ThemeEngine12createCursorERKN6Common6StringEii> -> "_ZN3GUI11ThemeEngine12createCursorERKN6Common6StringEii"
 - func[5721] <_ZN8Graphics8copyBlitEPhPKhjjjjj> -> "_ZN8Graphics8copyBlitEPhPKhjjjjj"
 - func[5781] <_ZNK8Graphics4Font14getStringWidthERKN6Common9U32StringE> -> "_ZNK8Graphics4Font14getStringWidthERKN6Common9U32StringE"
 - func[2366] <_ZNK3GUI11ThemeEngine12getCharWidthEjNS0_9FontStyleE> -> "_ZNK3GUI11ThemeEngine12getCharWidthEjNS0_9FontStyleE"
 - func[2367] <_ZNK3GUI11ThemeEngine16getKerningOffsetEjjNS0_9FontStyleE> -> "_ZNK3GUI11ThemeEngine16getKerningOffsetEjjNS0_9FontStyleE"
 - func[5805] <_ZNK8Graphics11FontManager13getFontByNameERKN6Common6StringE> -> "_ZNK8Graphics11FontManager13getFontByNameERKN6Common6StringE"
 - func[5913] <_ZN8Graphics11loadTTFFontERN6Common18SeekableReadStreamEiNS_11TTFSizeModeEjNS_13TTFRenderModeEPKjb> -> "_ZN8Graphics11loadTTFFontERN6Common18SeekableReadStreamEiNS_11TTFSizeModeEjNS_13TTFRenderModeEPKjb"
 - func[5914] <_ZN8Graphics22loadTTFFontFromArchiveERKN6Common6StringEiNS_11TTFSizeModeEjNS_13TTFRenderModeEPKj> -> "_ZN8Graphics22loadTTFFontFromArchiveERKN6Common6StringEiNS_11TTFSizeModeEjNS_13TTFRenderModeEPKj"
 - func[2368] <_ZNK3GUI11ThemeEngine16genCacheFilenameERKN6Common6StringE> -> "_ZNK3GUI11ThemeEngine16genCacheFilenameERKN6Common6StringE"
 - func[5834] <_ZN8Graphics7BdfFont13loadFromCacheERN6Common18SeekableReadStreamE> -> "_ZN8Graphics7BdfFont13loadFromCacheERN6Common18SeekableReadStreamE"
 - func[5832] <_ZN8Graphics7BdfFont8loadFontERN6Common18SeekableReadStreamE> -> "_ZN8Graphics7BdfFont8loadFontERN6Common18SeekableReadStreamE"
 - func[5833] <_ZN8Graphics7BdfFont13cacheFontDataERKS0_RKN6Common6StringE> -> "_ZN8Graphics7BdfFont13cacheFontDataERKS0_RKN6Common6StringE"
 - func[2369] <_ZN3GUI11ThemeEngine17themeConfigUsableERKN6Common13ArchiveMemberERNS1_6StringE> -> "_ZN3GUI11ThemeEngine17themeConfigUsableERKN6Common13ArchiveMemberERNS1_6StringE"
 - func[2370] <_ZN3GUI11ThemeEngine17themeConfigUsableERKN6Common6FSNodeERNS1_6StringE> -> "_ZN3GUI11ThemeEngine17themeConfigUsableERKN6Common6FSNodeERNS1_6StringE"
 - func[11959] <_ZNK6Common6FSNode8getChildERKNS_6StringE> -> "_ZNK6Common6FSNode8getChildERKNS_6StringE"
 - func[2371] <_ZN3GUI11ThemeEngine16listUsableThemesERKN6Common6FSNodeERNS1_4ListINS0_15ThemeDescriptorEEEi> -> "_ZN3GUI11ThemeEngine16listUsableThemesERKN6Common6FSNodeERNS1_4ListINS0_15ThemeDescriptorEEEi"
 - func[2372] <_ZN3GUI11ThemeEngine16listUsableThemesERN6Common7ArchiveERNS1_4ListINS0_15ThemeDescriptorEEE> -> "_ZN3GUI11ThemeEngine16listUsableThemesERN6Common7ArchiveERNS1_4ListINS0_15ThemeDescriptorEEE"
 - func[2373] <_ZN6Common4ListIN3GUI11ThemeEngine15ThemeDescriptorEEaSERKS4_> -> "_ZN6Common4ListIN3GUI11ThemeEngine15ThemeDescriptorEEaSERKS4_"
 - func[2376] <_ZN3GUI11ThemeEngine12swapClipRectERKN6Common4RectE> -> "_ZN3GUI11ThemeEngine12swapClipRectERKN6Common4RectE"
 - func[2377] <_ZN3GUI11ThemeEngine11getClipRectEv> -> "_ZN3GUI11ThemeEngine11getClipRectEv"
 - func[2379] <_ZN6Common18uninitialized_copyIPN3GUI13LangExtraFontES2_EEPT0_T_S6_S5_> -> "_ZN6Common18uninitialized_copyIPN3GUI13LangExtraFontES2_EEPT0_T_S6_S5_"
 - func[2380] <_ZN6Common18uninitialized_copyIPKN3GUI13LangExtraFontES2_EEPT0_T_S7_S6_> -> "_ZN6Common18uninitialized_copyIPKN3GUI13LangExtraFontES2_EEPT0_T_S7_S6_"
 - func[2381] <_ZN6Common13copy_backwardIPN3GUI13LangExtraFontES3_EET0_T_S5_S4_> -> "_ZN6Common13copy_backwardIPN3GUI13LangExtraFontES3_EET0_T_S5_S4_"
 - func[2382] <_ZN6Common4copyIPKN3GUI13LangExtraFontEPS2_EET0_T_S7_S6_> -> "_ZN6Common4copyIPKN3GUI13LangExtraFontEPS2_EET0_T_S7_S6_"
 - func[2383] <_ZN6Common7HashMapINS_6StringEPN8Graphics14ManagedSurfaceENS_4HashIS1_EENS_7EqualToIS1_EEE13expandStorageEj> -> "_ZN6Common7HashMapINS_6StringEPN8Graphics14ManagedSurfaceENS_4HashIS1_EENS_7EqualToIS1_EEE13expandStorageEj"
 - global[4439] -> "_ZN3GUI11ThemeEngine12kImageEraserE"
 - global[4440] -> "_ZN3GUI11ThemeEngine16kImageStopButtonE"
 - global[4441] -> "_ZN3GUI11ThemeEngine16kImageEditButtonE"
 - global[4442] -> "_ZN3GUI11ThemeEngine22kImageSwitchModeButtonE"
 - global[4443] -> "_ZN3GUI11ThemeEngine22kImageFastReplayButtonE"
 - global[4444] -> "_ZN3GUI11ThemeEngine21kImageStopSmallButtonE"
 - global[4445] -> "_ZN3GUI11ThemeEngine21kImageEditSmallButtonE"
 - global[4446] -> "_ZN3GUI11ThemeEngine27kImageSwitchModeSmallButtonE"
 - global[4447] -> "_ZN3GUI11ThemeEngine27kImageFastReplaySmallButtonE"
 - func[2384] <_ZN3GUI9ThemeEvalD2Ev> -> "_ZN3GUI9ThemeEvalD2Ev"
 - func[2386] <_ZNK6Common7HashMapINS_6StringEPN3GUI11ThemeLayoutENS_4HashIS1_EENS_7EqualToIS1_EEE12IteratorImplINS9_4NodeEE5derefEv> -> "_ZNK6Common7HashMapINS_6StringEPN3GUI11ThemeLayoutENS_4HashIS1_EENS_7EqualToIS1_EEE12IteratorImplINS9_4NodeEE5derefEv"
 - func[2390] <_ZN6Common7HashMapINS_6StringEPN3GUI11ThemeLayoutENS_4HashIS1_EENS_7EqualToIS1_EEE24lookupAndCreateIfMissingERKS1_> -> "_ZN6Common7HashMapINS_6StringEPN3GUI11ThemeLayoutENS_4HashIS1_EENS_7EqualToIS1_EEE24lookupAndCreateIfMissingERKS1_"
 - global[4448] -> "_ZTVN3GUI17ThemeLayoutWidgetE"
 - global[4449] -> "_ZTVN3GUI20ThemeLayoutTabWidgetE"
 - func[2393] <_ZN6Common5ArrayIPN3GUI11ThemeLayoutEE10insert_auxEPS3_PKS3_S7_> -> "_ZN6Common5ArrayIPN3GUI11ThemeLayoutEE10insert_auxEPS3_PKS3_S7_"
 - global[4450] -> "_ZTVN3GUI15ThemeLayoutMainE"
 - global[4451] -> "_ZTVN3GUI18ThemeLayoutStackedE"
 - func[2396] <_ZN3GUI9ThemeEval8addSpaceEi> -> "_ZN3GUI9ThemeEval8addSpaceEi"
 - global[4452] -> "_ZTVN3GUI18ThemeLayoutSpacingE"
 - func[2398] <_ZN3GUI9ThemeEval9hasDialogERKN6Common6StringE> -> "_ZN3GUI9ThemeEval9hasDialogERKN6Common6StringE"
 - func[2400] <_ZN3GUI9ThemeEval17addImportedLayoutERKN6Common6StringE> -> "_ZN3GUI9ThemeEval17addImportedLayoutERKN6Common6StringE"
 - func[2421] <_ZN3GUI11ThemeLayout12importLayoutEPS0_> -> "_ZN3GUI11ThemeLayout12importLayoutEPS0_"
 - func[2401] <_ZN3GUI17ThemeLayoutWidgetD2Ev> -> "_ZN3GUI17ThemeLayoutWidgetD2Ev"
 - global[4453] -> "_ZTVN3GUI11ThemeLayoutE"
 - func[2402] <_ZN3GUI20ThemeLayoutTabWidgetD0Ev> -> "_ZN3GUI20ThemeLayoutTabWidgetD0Ev"
 - func[2403] <_ZN3GUI20ThemeLayoutTabWidget12reflowLayoutEPNS_6WidgetE> -> "_ZN3GUI20ThemeLayoutTabWidget12reflowLayoutEPNS_6WidgetE"
 - func[2404] <_ZNK3GUI20ThemeLayoutTabWidget13getLayoutTypeEv> -> "_ZNK3GUI20ThemeLayoutTabWidget13getLayoutTypeEv"
 - func[2405] <_ZN3GUI20ThemeLayoutTabWidget9makeCloneEPNS_11ThemeLayoutE> -> "_ZN3GUI20ThemeLayoutTabWidget9makeCloneEPNS_11ThemeLayoutE"
 - func[2406] <_ZN3GUI20ThemeLayoutTabWidget13getWidgetDataERKN6Common6StringERsS5_S5_S5_Rb> -> "_ZN3GUI20ThemeLayoutTabWidget13getWidgetDataERKN6Common6StringERsS5_S5_S5_Rb"
 - func[2427] <_ZN3GUI17ThemeLayoutWidget13getWidgetDataERKN6Common6StringERsS5_S5_S5_Rb> -> "_ZN3GUI17ThemeLayoutWidget13getWidgetDataERKN6Common6StringERsS5_S5_S5_Rb"
 - func[2407] <_ZNK3GUI17ThemeLayoutWidget7getNameEv> -> "_ZNK3GUI17ThemeLayoutWidget7getNameEv"
 - func[2408] <_ZN3GUI11ThemeLayoutD2Ev> -> "_ZN3GUI11ThemeLayoutD2Ev"
 - func[2409] <_ZN3GUI18ThemeLayoutStackedD0Ev> -> "_ZN3GUI18ThemeLayoutStackedD0Ev"
 - func[2410] <_ZN3GUI18ThemeLayoutStacked12reflowLayoutEPNS_6WidgetE> -> "_ZN3GUI18ThemeLayoutStacked12reflowLayoutEPNS_6WidgetE"
 - func[2433] <_ZN3GUI18ThemeLayoutStacked20reflowLayoutVerticalEPNS_6WidgetE> -> "_ZN3GUI18ThemeLayoutStacked20reflowLayoutVerticalEPNS_6WidgetE"
 - func[2436] <_ZN3GUI18ThemeLayoutStacked22reflowLayoutHorizontalEPNS_6WidgetE> -> "_ZN3GUI18ThemeLayoutStacked22reflowLayoutHorizontalEPNS_6WidgetE"
 - func[2411] <_ZNK3GUI11ThemeLayout7isBoundEPNS_6WidgetE> -> "_ZNK3GUI11ThemeLayout7isBoundEPNS_6WidgetE"
 - func[2412] <_ZNK3GUI18ThemeLayoutStacked13getLayoutTypeEv> -> "_ZNK3GUI18ThemeLayoutStacked13getLayoutTypeEv"
 - func[2413] <_ZN3GUI18ThemeLayoutStacked9makeCloneEPNS_11ThemeLayoutE> -> "_ZN3GUI18ThemeLayoutStacked9makeCloneEPNS_11ThemeLayoutE"
 - func[2414] <_ZNK3GUI11ThemeLayout7getNameEv> -> "_ZNK3GUI11ThemeLayout7getNameEv"
 - func[2415] <_ZN3GUI18ThemeLayoutSpacingD0Ev> -> "_ZN3GUI18ThemeLayoutSpacingD0Ev"
 - func[2416] <_ZN3GUI18ThemeLayoutSpacing12reflowLayoutEPNS_6WidgetE> -> "_ZN3GUI18ThemeLayoutSpacing12reflowLayoutEPNS_6WidgetE"
 - func[2417] <_ZNK3GUI18ThemeLayoutSpacing13getLayoutTypeEv> -> "_ZNK3GUI18ThemeLayoutSpacing13getLayoutTypeEv"
 - func[2418] <_ZN3GUI18ThemeLayoutSpacing9makeCloneEPNS_11ThemeLayoutE> -> "_ZN3GUI18ThemeLayoutSpacing9makeCloneEPNS_11ThemeLayoutE"
 - func[2419] <_ZN3GUI18ThemeLayoutSpacing13getWidgetDataERKN6Common6StringERsS5_S5_S5_Rb> -> "_ZN3GUI18ThemeLayoutSpacing13getWidgetDataERKN6Common6StringERsS5_S5_S5_Rb"
 - func[2420] <_ZN6Common7HashMapINS_6StringEPN3GUI11ThemeLayoutENS_4HashIS1_EENS_7EqualToIS1_EEE13expandStorageEj> -> "_ZN6Common7HashMapINS_6StringEPN3GUI11ThemeLayoutENS_4HashIS1_EENS_7EqualToIS1_EEE13expandStorageEj"
 - global[4454] -> "_ZTIN3GUI20ThemeLayoutTabWidgetE"
 - func[2422] <_ZN3GUI11ThemeLayout11resetLayoutEv> -> "_ZN3GUI11ThemeLayout11resetLayoutEv"
 - func[2431] <_ZNK3GUI17ThemeLayoutWidget7isBoundEPNS_6WidgetE> -> "_ZNK3GUI17ThemeLayoutWidget7isBoundEPNS_6WidgetE"
 - func[2428] <_ZN3GUI17ThemeLayoutWidget19getWidgetTextHAlignERKN6Common6StringE> -> "_ZN3GUI17ThemeLayoutWidget19getWidgetTextHAlignERKN6Common6StringE"
 - global[4455] -> "_ZTSN3GUI20ThemeLayoutTabWidgetE"
 - global[4456] -> "_ZTIN3GUI17ThemeLayoutWidgetE"
 - global[4457] -> "_ZTIN3GUI18ThemeLayoutStackedE"
 - func[2423] <_ZN3GUI11ThemeLayout13getWidgetDataERKN6Common6StringERsS5_S5_S5_Rb> -> "_ZN3GUI11ThemeLayout13getWidgetDataERKN6Common6StringERsS5_S5_S5_Rb"
 - func[2424] <_ZN3GUI11ThemeLayout19getWidgetTextHAlignERKN6Common6StringE> -> "_ZN3GUI11ThemeLayout19getWidgetTextHAlignERKN6Common6StringE"
 - global[4458] -> "_ZTSN3GUI18ThemeLayoutStackedE"
 - global[4459] -> "_ZTIN3GUI11ThemeLayoutE"
 - global[4460] -> "_ZTIN3GUI18ThemeLayoutSpacingE"
 - global[4461] -> "_ZTSN3GUI18ThemeLayoutSpacingE"
 - func[2425] <_ZN3GUI18ThemeLayoutStacked14getParentWidthEv> -> "_ZN3GUI18ThemeLayoutStacked14getParentWidthEv"
 - func[2426] <_ZN3GUI18ThemeLayoutStacked15getParentHeightEv> -> "_ZN3GUI18ThemeLayoutStacked15getParentHeightEv"
 - func[2429] <_ZN3GUI17ThemeLayoutWidget12reflowLayoutEPNS_6WidgetE> -> "_ZN3GUI17ThemeLayoutWidget12reflowLayoutEPNS_6WidgetE"
 - func[2430] <_ZNK3GUI17ThemeLayoutWidget9getWidgetEPNS_6WidgetE> -> "_ZNK3GUI17ThemeLayoutWidget9getWidgetEPNS_6WidgetE"
 - func[2432] <_ZN3GUI15ThemeLayoutMain12reflowLayoutEPNS_6WidgetE> -> "_ZN3GUI15ThemeLayoutMain12reflowLayoutEPNS_6WidgetE"
 - func[2434] <_ZN3GUI11ThemeLayout7offsetYEi> -> "_ZN3GUI11ThemeLayout7offsetYEi"
 - func[2435] <_ZN3GUI11ThemeLayout7offsetXEi> -> "_ZN3GUI11ThemeLayout7offsetXEi"
 - func[2437] <_ZN3GUI11ThemeLayoutD0Ev> -> "_ZN3GUI11ThemeLayoutD0Ev"
 - func[2438] <_ZN3GUI15ThemeLayoutMainD2Ev> -> "_ZN3GUI15ThemeLayoutMainD2Ev"
 - func[2439] <_ZN3GUI15ThemeLayoutMainD0Ev> -> "_ZN3GUI15ThemeLayoutMainD0Ev"
 - func[2440] <_ZN3GUI15ThemeLayoutMain11resetLayoutEv> -> "_ZN3GUI15ThemeLayoutMain11resetLayoutEv"
 - func[2441] <_ZNK3GUI15ThemeLayoutMain13getLayoutTypeEv> -> "_ZNK3GUI15ThemeLayoutMain13getLayoutTypeEv"
 - func[2442] <_ZN3GUI15ThemeLayoutMain9makeCloneEPNS_11ThemeLayoutE> -> "_ZN3GUI15ThemeLayoutMain9makeCloneEPNS_11ThemeLayoutE"
 - func[2443] <_ZNK3GUI15ThemeLayoutMain7getNameEv> -> "_ZNK3GUI15ThemeLayoutMain7getNameEv"
 - func[2444] <_ZN3GUI17ThemeLayoutWidgetD0Ev> -> "_ZN3GUI17ThemeLayoutWidgetD0Ev"
 - func[2445] <_ZNK3GUI17ThemeLayoutWidget13getLayoutTypeEv> -> "_ZNK3GUI17ThemeLayoutWidget13getLayoutTypeEv"
 - func[2446] <_ZN3GUI17ThemeLayoutWidget9makeCloneEPNS_11ThemeLayoutE> -> "_ZN3GUI17ThemeLayoutWidget9makeCloneEPNS_11ThemeLayoutE"
 - global[4462] -> "_ZTSN3GUI11ThemeLayoutE"
 - global[4463] -> "_ZTIN3GUI15ThemeLayoutMainE"
 - global[4464] -> "_ZTSN3GUI15ThemeLayoutMainE"
 - global[4465] -> "_ZTSN3GUI17ThemeLayoutWidgetE"
 - func[2447] <_ZN3GUI15parseTextHAlignERKN6Common6StringE> -> "_ZN3GUI15parseTextHAlignERKN6Common6StringE"
 - func[2448] <_ZN3GUI12parseBooleanERKN6Common6StringE> -> "_ZN3GUI12parseBooleanERKN6Common6StringE"
 - func[2449] <_ZN3GUI11ThemeParserC2EPNS_11ThemeEngineE> -> "_ZN3GUI11ThemeParserC2EPNS_11ThemeEngineE"
 - global[4466] -> "_ZTVN3GUI11ThemeParserE"
 - func[2450] <_ZN3GUI11ThemeParser15defaultDrawStepEv> -> "_ZN3GUI11ThemeParser15defaultDrawStepEv"
 - func[2451] <_ZN3GUI11ThemeParserD1Ev> -> "_ZN3GUI11ThemeParserD2Ev"
 - func[2452] <_ZN3GUI11ThemeParserD0Ev> -> "_ZN3GUI11ThemeParserD0Ev"
 - func[2451] <_ZN3GUI11ThemeParserD1Ev> -> "_ZN3GUI11ThemeParserD1Ev"
 - func[2453] <_ZN3GUI11ThemeParser7cleanupEv> -> "_ZN3GUI11ThemeParser7cleanupEv"
 - func[2454] <_ZN3GUI11ThemeParser11newDrawStepEv> -> "_ZN3GUI11ThemeParser11newDrawStepEv"
 - func[2455] <_ZN3GUI11ThemeParser23parserCallback_defaultsEPN6Common9XMLParser10ParserNodeE> -> "_ZN3GUI11ThemeParser23parserCallback_defaultsEPN6Common9XMLParser10ParserNodeE"
 - func[2456] <_ZN3GUI11ThemeParser13parseDrawStepEPN6Common9XMLParser10ParserNodeEPN8Graphics8DrawStepEb> -> "_ZN3GUI11ThemeParser13parseDrawStepEPN6Common9XMLParser10ParserNodeEPN8Graphics8DrawStepEb"
 - func[13012] <_ZN6Common9XMLParser11parserErrorERKNS_6StringE> -> "_ZN6Common9XMLParser11parserErrorERKNS_6StringE"
 - func[13020] <_ZN6Common9XMLParser15parseIntegerKeyERKNS_6StringEiz> -> "_ZN6Common9XMLParser15parseIntegerKeyERKNS_6StringEiz"
 - func[2457] <_ZN6Common7HashMapINS_6StringEN3GUI11ThemeParser12PaletteColorENS_15IgnoreCase_HashENS_18IgnoreCase_EqualToEE24lookupAndCreateIfMissingERKS1_> -> "_ZN6Common7HashMapINS_6StringEN3GUI11ThemeParser12PaletteColorENS_15IgnoreCase_HashENS_18IgnoreCase_EqualToEE24lookupAndCreateIfMissingERKS1_"
 - func[2458] <_ZN3GUI11ThemeParser19parserCallback_fontEPN6Common9XMLParser10ParserNodeE> -> "_ZN3GUI11ThemeParser19parserCallback_fontEPN6Common9XMLParser10ParserNodeE"
 - func[2459] <_ZN3GUI11ThemeParser15resolutionCheckERKN6Common6StringE> -> "_ZN3GUI11ThemeParser15resolutionCheckERKN6Common6StringE"
 - func[2460] <_ZN3GUI11ThemeParser23parserCallback_languageEPN6Common9XMLParser10ParserNodeE> -> "_ZN3GUI11ThemeParser23parserCallback_languageEPN6Common9XMLParser10ParserNodeE"
 - func[2461] <_ZN3GUI11ThemeParser25parserCallback_text_colorEPN6Common9XMLParser10ParserNodeE> -> "_ZN3GUI11ThemeParser25parserCallback_text_colorEPN6Common9XMLParser10ParserNodeE"
 - func[2462] <_ZN3GUI11ThemeParser15getPaletteColorERKN6Common6StringERiS5_S5_> -> "_ZN3GUI11ThemeParser15getPaletteColorERKN6Common6StringERiS5_S5_"
 - func[2463] <_ZN3GUI11ThemeParser20parserCallback_fontsEPN6Common9XMLParser10ParserNodeE> -> "_ZN3GUI11ThemeParser20parserCallback_fontsEPN6Common9XMLParser10ParserNodeE"
 - func[2464] <_ZN3GUI11ThemeParser21parserCallback_cursorEPN6Common9XMLParser10ParserNodeE> -> "_ZN3GUI11ThemeParser21parserCallback_cursorEPN6Common9XMLParser10ParserNodeE"
 - func[2465] <_ZN3GUI11ThemeParser21parserCallback_bitmapEPN6Common9XMLParser10ParserNodeE> -> "_ZN3GUI11ThemeParser21parserCallback_bitmapEPN6Common9XMLParser10ParserNodeE"
 - func[2466] <_ZN3GUI11ThemeParser19parserCallback_textEPN6Common9XMLParser10ParserNodeE> -> "_ZN3GUI11ThemeParser19parserCallback_textEPN6Common9XMLParser10ParserNodeE"
 - func[2467] <_ZN3GUI11ThemeParser26parserCallback_render_infoEPN6Common9XMLParser10ParserNodeE> -> "_ZN3GUI11ThemeParser26parserCallback_render_infoEPN6Common9XMLParser10ParserNodeE"
 - func[2468] <_ZN3GUI11ThemeParser26parserCallback_layout_infoEPN6Common9XMLParser10ParserNodeE> -> "_ZN3GUI11ThemeParser26parserCallback_layout_infoEPN6Common9XMLParser10ParserNodeE"
 - func[2469] <_ZN3GUI11ThemeParser22parserCallback_paletteEPN6Common9XMLParser10ParserNodeE> -> "_ZN3GUI11ThemeParser22parserCallback_paletteEPN6Common9XMLParser10ParserNodeE"
 - func[2470] <_ZN3GUI11ThemeParser20parserCallback_colorEPN6Common9XMLParser10ParserNodeE> -> "_ZN3GUI11ThemeParser20parserCallback_colorEPN6Common9XMLParser10ParserNodeE"
 - func[2471] <_ZN3GUI11ThemeParser23parserCallback_drawstepEPN6Common9XMLParser10ParserNodeE> -> "_ZN3GUI11ThemeParser23parserCallback_drawstepEPN6Common9XMLParser10ParserNodeE"
 - func[2472] <_ZN8Graphics14VectorRenderer19drawCallback_CIRCLEERKN6Common4RectERKNS_8DrawStepE> -> "_ZN8Graphics14VectorRenderer19drawCallback_CIRCLEERKN6Common4RectERKNS_8DrawStepE"
 - func[2473] <_ZN8Graphics14VectorRenderer19drawCallback_SQUAREERKN6Common4RectERKNS_8DrawStepE> -> "_ZN8Graphics14VectorRenderer19drawCallback_SQUAREERKN6Common4RectERKNS_8DrawStepE"
 - func[2474] <_ZN8Graphics14VectorRenderer20drawCallback_ROUNDSQERKN6Common4RectERKNS_8DrawStepE> -> "_ZN8Graphics14VectorRenderer20drawCallback_ROUNDSQERKN6Common4RectERKNS_8DrawStepE"
 - func[2475] <_ZN8Graphics14VectorRenderer17drawCallback_LINEERKN6Common4RectERKNS_8DrawStepE> -> "_ZN8Graphics14VectorRenderer17drawCallback_LINEERKN6Common4RectERKNS_8DrawStepE"
 - func[2476] <_ZN8Graphics14VectorRenderer21drawCallback_TRIANGLEERKN6Common4RectERKNS_8DrawStepE> -> "_ZN8Graphics14VectorRenderer21drawCallback_TRIANGLEERKN6Common4RectERKNS_8DrawStepE"
 - func[2477] <_ZN8Graphics14VectorRenderer24drawCallback_FILLSURFACEERKN6Common4RectERKNS_8DrawStepE> -> "_ZN8Graphics14VectorRenderer24drawCallback_FILLSURFACEERKN6Common4RectERKNS_8DrawStepE"
 - func[2478] <_ZN8Graphics14VectorRenderer16drawCallback_TABERKN6Common4RectERKNS_8DrawStepE> -> "_ZN8Graphics14VectorRenderer16drawCallback_TABERKN6Common4RectERKNS_8DrawStepE"
 - func[2479] <_ZN8Graphics14VectorRenderer17drawCallback_VOIDERKN6Common4RectERKNS_8DrawStepE> -> "_ZN8Graphics14VectorRenderer17drawCallback_VOIDERKN6Common4RectERKNS_8DrawStepE"
 - func[2480] <_ZN8Graphics14VectorRenderer19drawCallback_BITMAPERKN6Common4RectERKNS_8DrawStepE> -> "_ZN8Graphics14VectorRenderer19drawCallback_BITMAPERKN6Common4RectERKNS_8DrawStepE"
 - func[2481] <_ZN8Graphics14VectorRenderer18drawCallback_CROSSERKN6Common4RectERKNS_8DrawStepE> -> "_ZN8Graphics14VectorRenderer18drawCallback_CROSSERKN6Common4RectERKNS_8DrawStepE"
 - func[2482] <_ZN3GUI11ThemeParser23parserCallback_drawdataEPN6Common9XMLParser10ParserNodeE> -> "_ZN3GUI11ThemeParser23parserCallback_drawdataEPN6Common9XMLParser10ParserNodeE"
 - func[2483] <_ZN3GUI11ThemeParser18parserCallback_defEPN6Common9XMLParser10ParserNodeE> -> "_ZN3GUI11ThemeParser18parserCallback_defEPN6Common9XMLParser10ParserNodeE"
 - func[2484] <_ZN3GUI9ThemeEval6hasVarERKN6Common6StringE> -> "_ZN3GUI9ThemeEval6hasVarERKN6Common6StringE"
 - func[2485] <_ZN3GUI11ThemeParser21parserCallback_widgetEPN6Common9XMLParser10ParserNodeE> -> "_ZN3GUI11ThemeParser21parserCallback_widgetEPN6Common9XMLParser10ParserNodeE"
 - func[2486] <_ZN3GUI11ThemeParser22parseCommonLayoutPropsEPN6Common9XMLParser10ParserNodeERKNS1_6StringE> -> "_ZN3GUI11ThemeParser22parseCommonLayoutPropsEPN6Common9XMLParser10ParserNodeERKNS1_6StringE"
 - func[2487] <_ZN3GUI11ThemeParser21parserCallback_dialogEPN6Common9XMLParser10ParserNodeE> -> "_ZN3GUI11ThemeParser21parserCallback_dialogEPN6Common9XMLParser10ParserNodeE"
 - func[2488] <_ZN3GUI11ThemeParser21parserCallback_importEPN6Common9XMLParser10ParserNodeE> -> "_ZN3GUI11ThemeParser21parserCallback_importEPN6Common9XMLParser10ParserNodeE"
 - func[2489] <_ZN3GUI11ThemeParser21parserCallback_layoutEPN6Common9XMLParser10ParserNodeE> -> "_ZN3GUI11ThemeParser21parserCallback_layoutEPN6Common9XMLParser10ParserNodeE"
 - func[2490] <_ZN3GUI11ThemeParser20parserCallback_spaceEPN6Common9XMLParser10ParserNodeE> -> "_ZN3GUI11ThemeParser20parserCallback_spaceEPN6Common9XMLParser10ParserNodeE"
 - func[2491] <_ZN3GUI11ThemeParser17closedKeyCallbackEPN6Common9XMLParser10ParserNodeE> -> "_ZN3GUI11ThemeParser17closedKeyCallbackEPN6Common9XMLParser10ParserNodeE"
 - func[2492] <_ZN3GUI11ThemeParser11buildLayoutEv> -> "_ZN3GUI11ThemeParser11buildLayoutEv"
 - global[4467] -> "_ZTVN3GUI11ThemeParser18CustomXMLKeyLayoutE"
 - func[2493] <_ZN3GUI11ThemeParser22parserCallback_bitmapsEPN6Common9XMLParser10ParserNodeE> -> "_ZN3GUI11ThemeParser22parserCallback_bitmapsEPN6Common9XMLParser10ParserNodeE"
 - func[2494] <_ZN3GUI11ThemeParser22parserCallback_globalsEPN6Common9XMLParser10ParserNodeE> -> "_ZN3GUI11ThemeParser22parserCallback_globalsEPN6Common9XMLParser10ParserNodeE"
 - func[2495] <_ZN3GUI11ThemeParser11keyCallbackEPN6Common9XMLParser10ParserNodeE> -> "_ZN3GUI11ThemeParser11keyCallbackEPN6Common9XMLParser10ParserNodeE"
 - func[6840] <_ZN8Graphics14VectorRenderer13stepGetRadiusERKNS_8DrawStepERKN6Common4RectE> -> "_ZN8Graphics14VectorRenderer13stepGetRadiusERKNS_8DrawStepERKN6Common4RectE"
 - func[2496] <_ZN3GUI11ThemeParser18CustomXMLKeyLayout10doCallbackEPN6Common9XMLParserEPNS3_10ParserNodeE> -> "_ZN3GUI11ThemeParser18CustomXMLKeyLayout10doCallbackEPN6Common9XMLParserEPNS3_10ParserNodeE"
 - func[2497] <_ZN3GUI11ThemeParser18CustomXMLKeyLayoutD0Ev> -> "_ZN3GUI11ThemeParser18CustomXMLKeyLayoutD0Ev"
 - func[2498] <_ZN6Common7HashMapINS_6StringEN3GUI11ThemeParser12PaletteColorENS_15IgnoreCase_HashENS_18IgnoreCase_EqualToEE13expandStorageEj> -> "_ZN6Common7HashMapINS_6StringEN3GUI11ThemeParser12PaletteColorENS_15IgnoreCase_HashENS_18IgnoreCase_EqualToEE13expandStorageEj"
 - global[4468] -> "_ZTIN3GUI11ThemeParserE"
 - global[4469] -> "_ZTSN3GUI11ThemeParserE"
 - global[4470] -> "_ZTIN3GUI11ThemeParser18CustomXMLKeyLayoutE"
 - global[4471] -> "_ZTSN3GUI11ThemeParser18CustomXMLKeyLayoutE"
 - func[2499] <_ZN3GUI7TooltipC2Ev> -> "_ZN3GUI7TooltipC2Ev"
 - global[4472] -> "_ZTVN3GUI7TooltipE"
 - func[2501] <_ZN3GUI7Tooltip10drawDialogENS_9DrawLayerE> -> "_ZN3GUI7Tooltip10drawDialogENS_9DrawLayerE"
 - func[2502] <_ZN3GUI7TooltipD2Ev> -> "_ZN3GUI7TooltipD2Ev"
 - func[2503] <_ZN3GUI7TooltipD0Ev> -> "_ZN3GUI7TooltipD0Ev"
 - func[2504] <_ZN3GUI7Tooltip16handleMouseWheelEiii> -> "_ZN3GUI7Tooltip16handleMouseWheelEiii"
 - func[2505] <_ZN3GUI7Tooltip13receivedFocusEii> -> "_ZN3GUI7Tooltip13receivedFocusEii"
 - func[2506] <_ZN3GUI7Tooltip15handleMouseDownEiiii> -> "_ZN3GUI7Tooltip15handleMouseDownEiiii"
 - func[2507] <_ZN3GUI7Tooltip13handleMouseUpEiiii> -> "_ZN3GUI7Tooltip13handleMouseUpEiiii"
 - func[2508] <_ZN3GUI7Tooltip13handleKeyDownEN6Common8KeyStateE> -> "_ZN3GUI7Tooltip13handleKeyDownEN6Common8KeyStateE"
 - func[2509] <_ZN3GUI7Tooltip11handleKeyUpEN6Common8KeyStateE> -> "_ZN3GUI7Tooltip11handleKeyUpEN6Common8KeyStateE"
 - func[2510] <_ZN3GUI7Tooltip16handleMouseMovedEiii> -> "_ZN3GUI7Tooltip16handleMouseMovedEiii"
 - global[4473] -> "_ZTIN3GUI7TooltipE"
 - global[4474] -> "_ZTSN3GUI7TooltipE"
 - func[2511] <_ZN3GUI17UnknownGameDialogC2ERK12DetectedGame> -> "_ZN3GUI17UnknownGameDialogC2ERK12DetectedGame"
 - func[2512] <_ZN3GUI17UnknownGameDialog7rebuildEv> -> "_ZN3GUI17UnknownGameDialog7rebuildEv"
 - func[2513] <_ZN6Common5ArrayIPN3GUI16StaticTextWidgetEE10insert_auxEPS3_PKS3_S7_> -> "_ZN6Common5ArrayIPN3GUI16StaticTextWidgetEE10insert_auxEPS3_PKS3_S7_"
 - func[2514] <_ZN3GUI17UnknownGameDialog16handleMouseWheelEiii> -> "_ZN3GUI17UnknownGameDialog16handleMouseWheelEiii"
 - func[2515] <_ZN3GUI17UnknownGameDialog12reflowLayoutEv> -> "_ZN3GUI17UnknownGameDialog12reflowLayoutEv"
 - func[2516] <_ZN3GUI17UnknownGameDialog15encodeUrlStringERKN6Common6StringE> -> "_ZN3GUI17UnknownGameDialog15encodeUrlStringERKN6Common6StringE"
 - func[2517] <_ZN3GUI17UnknownGameDialog21generateBugtrackerURLEv> -> "_ZN3GUI17UnknownGameDialog21generateBugtrackerURLEv"
 - func[2518] <_ZN3GUI17UnknownGameDialog13handleCommandEPNS_13CommandSenderEjj> -> "_ZN3GUI17UnknownGameDialog13handleCommandEPNS_13CommandSenderEjj"
 - func[2519] <_ZN3GUI17UnknownGameDialogD2Ev> -> "_ZN3GUI17UnknownGameDialogD2Ev"
 - func[2520] <_ZN3GUI17UnknownGameDialogD0Ev> -> "_ZN3GUI17UnknownGameDialogD0Ev"
 - global[4475] -> "_ZTIN3GUI17UnknownGameDialogE"
 - global[4476] -> "_ZTSN3GUI17UnknownGameDialogE"
 - func[2521] <_ZN3GUI6WidgetC2EPNS_9GuiObjectEiiiiRKN6Common9U32StringE> -> "_ZN3GUI6WidgetC2EPNS_9GuiObjectEiiiiRKN6Common9U32StringE"
 - global[4477] -> "_ZTVN3GUI6WidgetE"
 - func[2523] <_ZN3GUI6WidgetC2EPNS_9GuiObjectERKN6Common6StringERKNS3_9U32StringE> -> "_ZN3GUI6WidgetC2EPNS_9GuiObjectERKN6Common6StringERKNS3_9U32StringE"
 - func[2524] <_ZN3GUI6WidgetD1Ev> -> "_ZN3GUI6WidgetD2Ev"
 - func[2525] <_ZN3GUI6WidgetD0Ev> -> "_ZN3GUI6WidgetD0Ev"
 - func[2527] <_ZN3GUI6Widget11updateStateEii> -> "_ZN3GUI6Widget11updateStateEii"
 - func[2528] <_ZN3GUI6Widget10clearFlagsEi> -> "_ZN3GUI6Widget10clearFlagsEi"
 - func[2533] <_ZN3GUI6Widget21containsWidgetInChainEPS0_S1_> -> "_ZN3GUI6Widget21containsWidgetInChainEPS0_S1_"
 - func[2538] <_ZNK3GUI6Widget6useRTLEv> -> "_ZNK3GUI6Widget6useRTLEv"
 - func[2539] <_ZN3GUI6Widget11parseHotkeyERKN6Common9U32StringE> -> "_ZN3GUI6Widget11parseHotkeyERKN6Common9U32StringE"
 - func[11723] <_ZNK6Common10BaseStringIDiE8containsEDi> -> "_ZNK6Common10BaseStringIDiE8containsEDi"
 - func[12505] <_ZN6Common9U32StringpLEDi> -> "_ZN6Common9U32StringpLEDi"
 - func[2541] <_ZN3GUI6Widget4readERKN6Common9U32StringE> -> "_ZN3GUI6Widget4readERKN6Common9U32StringE"
 - func[2542] <_ZN3GUI16StaticTextWidgetC2EPNS_9GuiObjectEiiiiRKN6Common9U32StringEN8Graphics9TextAlignES6_NS_11ThemeEngine9FontStyleENS3_8LanguageEb> -> "_ZN3GUI16StaticTextWidgetC2EPNS_9GuiObjectEiiiiRKN6Common9U32StringEN8Graphics9TextAlignES6_NS_11ThemeEngine9FontStyleENS3_8LanguageEb"
 - global[4478] -> "_ZTVN3GUI16StaticTextWidgetE"
 - func[2543] <_ZN3GUI16StaticTextWidget7setFontENS_11ThemeEngine9FontStyleEN6Common8LanguageE> -> "_ZN3GUI16StaticTextWidget7setFontENS_11ThemeEngine9FontStyleEN6Common8LanguageE"
 - func[2544] <_ZN3GUI16StaticTextWidgetC2EPNS_9GuiObjectERKN6Common6StringERKNS3_9U32StringES9_NS_11ThemeEngine9FontStyleENS3_8LanguageEb> -> "_ZN3GUI16StaticTextWidgetC2EPNS_9GuiObjectERKN6Common6StringERKNS3_9U32StringES9_NS_11ThemeEngine9FontStyleENS3_8LanguageEb"
 - func[2549] <_ZN3GUI16StaticTextWidget10drawWidgetEv> -> "_ZN3GUI16StaticTextWidget10drawWidgetEv"
 - func[2550] <_ZN3GUI12ButtonWidgetC2EPNS_9GuiObjectEiiiiRKN6Common9U32StringES6_jhS6_> -> "_ZN3GUI12ButtonWidgetC2EPNS_9GuiObjectEiiiiRKN6Common9U32StringES6_jhS6_"
 - global[4479] -> "_ZTVN3GUI12ButtonWidgetE"
 - func[2551] <_ZN3GUI12ButtonWidgetC2EPNS_9GuiObjectERKN6Common6StringERKNS3_9U32StringES9_jhS9_> -> "_ZN3GUI12ButtonWidgetC2EPNS_9GuiObjectERKN6Common6StringERKNS3_9U32StringES9_jhS9_"
 - func[2552] <_ZN3GUI12ButtonWidget10getMinSizeERiS1_> -> "_ZN3GUI12ButtonWidget10getMinSizeERiS1_"
 - func[2553] <_ZN3GUI12ButtonWidget13handleMouseUpEiiii> -> "_ZN3GUI12ButtonWidget13handleMouseUpEiiii"
 - func[2555] <_ZN3GUI12ButtonWidget15handleMouseDownEiiii> -> "_ZN3GUI12ButtonWidget15handleMouseDownEiiii"
 - func[2557] <_ZN3GUI12ButtonWidget10drawWidgetEv> -> "_ZN3GUI12ButtonWidget10drawWidgetEv"
 - func[2558] <_ZN3GUI12ButtonWidget8getLabelEv> -> "_ZN3GUI12ButtonWidget8getLabelEv"
 - func[2560] <_ZN3GUI12ButtonWidget8setLabelERKN6Common6StringE> -> "_ZN3GUI12ButtonWidget8setLabelERKN6Common6StringE"
 - func[2561] <_ZN3GUI12ButtonWidget14setLowresLabelERKN6Common9U32StringE> -> "_ZN3GUI12ButtonWidget14setLowresLabelERKN6Common9U32StringE"
 - func[2563] <_ZN3GUI15PicButtonWidget15setGfxFromThemeEPKcib> -> "_ZN3GUI15PicButtonWidget15setGfxFromThemeEPKcib"
 - func[2566] <_ZN3GUI20DropdownButtonWidgetC1EPNS_9GuiObjectEiiiiRKN6Common9U32StringES6_jhS6_> -> "_ZN3GUI20DropdownButtonWidgetC2EPNS_9GuiObjectEiiiiRKN6Common9U32StringES6_jhS6_"
 - global[4480] -> "_ZTVN3GUI20DropdownButtonWidgetE"
 - func[2567] <_ZN3GUI20DropdownButtonWidget5resetEv> -> "_ZN3GUI20DropdownButtonWidget5resetEv"
 - func[2568] <_ZN3GUI20DropdownButtonWidgetC2EPNS_9GuiObjectERKN6Common6StringERKNS3_9U32StringES9_jhS9_> -> "_ZN3GUI20DropdownButtonWidgetC2EPNS_9GuiObjectERKN6Common6StringERKNS3_9U32StringES9_jhS9_"
 - func[2569] <_ZNK3GUI20DropdownButtonWidget12isInDropDownEii> -> "_ZNK3GUI20DropdownButtonWidget12isInDropDownEii"
 - func[2570] <_ZN3GUI20DropdownButtonWidget16handleMouseMovedEiii> -> "_ZN3GUI20DropdownButtonWidget16handleMouseMovedEiii"
 - func[2571] <_ZN3GUI20DropdownButtonWidget13handleMouseUpEiiii> -> "_ZN3GUI20DropdownButtonWidget13handleMouseUpEiiii"
 - func[2884] <_ZN3GUI11PopUpDialogC2EPNS_6WidgetERKN6Common6StringEii> -> "_ZN3GUI11PopUpDialogC1EPNS_6WidgetERKN6Common6StringEii"
 - func[2900] <_ZN3GUI11PopUpDialog11setPositionEii> -> "_ZN3GUI11PopUpDialog11setPositionEii"
 - func[2902] <_ZN3GUI11PopUpDialog13setLineHeightEi> -> "_ZN3GUI11PopUpDialog13setLineHeightEi"
 - func[2901] <_ZN3GUI11PopUpDialog10setPaddingEii> -> "_ZN3GUI11PopUpDialog10setPaddingEii"
 - func[2904] <_ZN3GUI11PopUpDialog11appendEntryERKN6Common9U32StringE> -> "_ZN3GUI11PopUpDialog11appendEntryERKN6Common9U32StringE"
 - global[4481] -> "_ZTVN3GUI11PopUpDialogE"
 - func[2572] <_ZN3GUI20DropdownButtonWidget12reflowLayoutEv> -> "_ZN3GUI20DropdownButtonWidget12reflowLayoutEv"
 - func[2573] <_ZN3GUI20DropdownButtonWidget10getMinSizeERiS1_> -> "_ZN3GUI20DropdownButtonWidget10getMinSizeERiS1_"
 - func[2575] <_ZN6Common5ArrayIN3GUI20DropdownButtonWidget5EntryEE10insert_auxEPS3_PKS3_S7_> -> "_ZN6Common5ArrayIN3GUI20DropdownButtonWidget5EntryEE10insert_auxEPS3_PKS3_S7_"
 - func[2576] <_ZN3GUI20DropdownButtonWidget12clearEntriesEv> -> "_ZN3GUI20DropdownButtonWidget12clearEntriesEv"
 - func[2577] <_ZN3GUI20DropdownButtonWidget10drawWidgetEv> -> "_ZN3GUI20DropdownButtonWidget10drawWidgetEv"
 - func[2578] <_ZN3GUI8scaleGfxEPKN8Graphics14ManagedSurfaceEiib> -> "_ZN3GUI8scaleGfxEPKN8Graphics14ManagedSurfaceEiib"
 - func[2579] <_ZN3GUI15PicButtonWidgetC2EPNS_9GuiObjectEiiiiRKN6Common9U32StringEjh> -> "_ZN3GUI15PicButtonWidgetC2EPNS_9GuiObjectEiiiiRKN6Common9U32StringEjh"
 - global[4482] -> "_ZTVN3GUI15PicButtonWidgetE"
 - func[2580] <_ZN3GUI15PicButtonWidgetC2EPNS_9GuiObjectERKN6Common6StringERKNS3_9U32StringEjh> -> "_ZN3GUI15PicButtonWidgetC2EPNS_9GuiObjectERKN6Common6StringERKNS3_9U32StringEjh"
 - func[2581] <_ZN3GUI15PicButtonWidgetD1Ev> -> "_ZN3GUI15PicButtonWidgetD2Ev"
 - func[2582] <_ZThn356_N3GUI15PicButtonWidgetD1Ev> -> "_ZThn356_N3GUI15PicButtonWidgetD1Ev"
 - func[2581] <_ZN3GUI15PicButtonWidgetD1Ev> -> "_ZN3GUI15PicButtonWidgetD1Ev"
 - func[2583] <_ZN3GUI15PicButtonWidgetD0Ev> -> "_ZN3GUI15PicButtonWidgetD0Ev"
 - func[2584] <_ZThn356_N3GUI15PicButtonWidgetD0Ev> -> "_ZThn356_N3GUI15PicButtonWidgetD0Ev"
 - func[6477] <_ZN8Graphics14ManagedSurface8copyFromERKNS_7SurfaceE> -> "_ZN8Graphics14ManagedSurface8copyFromERKNS_7SurfaceE"
 - func[6487] <_ZN8Graphics14ManagedSurface8copyFromERKS0_> -> "_ZN8Graphics14ManagedSurface8copyFromERKS0_"
 - func[6478] <_ZN8Graphics14ManagedSurfaceC2EPKNS_7SurfaceE> -> "_ZN8Graphics14ManagedSurfaceC1EPKNS_7SurfaceE"
 - func[2587] <_ZN3GUI15PicButtonWidget10drawWidgetEv> -> "_ZN3GUI15PicButtonWidget10drawWidgetEv"
 - func[2588] <_ZN3GUI14CheckboxWidgetC2EPNS_9GuiObjectEiiiiRKN6Common9U32StringES6_jh> -> "_ZN3GUI14CheckboxWidgetC2EPNS_9GuiObjectEiiiiRKN6Common9U32StringES6_jh"
 - global[4483] -> "_ZTVN3GUI14CheckboxWidgetE"
 - func[2589] <_ZN3GUI14CheckboxWidgetC2EPNS_9GuiObjectERKN6Common6StringERKNS3_9U32StringES9_jh> -> "_ZN3GUI14CheckboxWidgetC2EPNS_9GuiObjectERKN6Common6StringERKNS3_9U32StringES9_jh"
 - func[2590] <_ZN3GUI14CheckboxWidget13handleMouseUpEiiii> -> "_ZN3GUI14CheckboxWidget13handleMouseUpEiiii"
 - func[2593] <_ZN3GUI14CheckboxWidget10drawWidgetEv> -> "_ZN3GUI14CheckboxWidget10drawWidgetEv"
 - func[2594] <_ZN3GUI16RadiobuttonGroupC2EPNS_9GuiObjectEj> -> "_ZN3GUI16RadiobuttonGroupC2EPNS_9GuiObjectEj"
 - global[4484] -> "_ZTVN3GUI16RadiobuttonGroupE"
 - func[2596] <_ZN3GUI17RadiobuttonWidget8setStateEbb> -> "_ZN3GUI17RadiobuttonWidget8setStateEbb"
 - func[2598] <_ZN3GUI17RadiobuttonWidgetC1EPNS_9GuiObjectEiiiiPNS_16RadiobuttonGroupEiRKN6Common9U32StringES8_h> -> "_ZN3GUI17RadiobuttonWidgetC2EPNS_9GuiObjectEiiiiPNS_16RadiobuttonGroupEiRKN6Common9U32StringES8_h"
 - global[4485] -> "_ZTVN3GUI17RadiobuttonWidgetE"
 - func[2599] <_ZN6Common5ArrayIPN3GUI17RadiobuttonWidgetEE10insert_auxEPS3_PKS3_S7_> -> "_ZN6Common5ArrayIPN3GUI17RadiobuttonWidgetEE10insert_auxEPS3_PKS3_S7_"
 - func[2600] <_ZN3GUI17RadiobuttonWidgetC2EPNS_9GuiObjectERKN6Common6StringEPNS_16RadiobuttonGroupEiRKNS3_9U32StringESB_h> -> "_ZN3GUI17RadiobuttonWidgetC2EPNS_9GuiObjectERKN6Common6StringEPNS_16RadiobuttonGroupEiRKNS3_9U32StringESB_h"
 - func[2601] <_ZN3GUI17RadiobuttonWidget13handleMouseUpEiiii> -> "_ZN3GUI17RadiobuttonWidget13handleMouseUpEiiii"
 - func[2602] <_ZN3GUI17RadiobuttonWidget10drawWidgetEv> -> "_ZN3GUI17RadiobuttonWidget10drawWidgetEv"
 - func[2603] <_ZN3GUI12SliderWidgetC2EPNS_9GuiObjectEiiiiRKN6Common9U32StringEj> -> "_ZN3GUI12SliderWidgetC2EPNS_9GuiObjectEiiiiRKN6Common9U32StringEj"
 - global[4486] -> "_ZTVN3GUI12SliderWidgetE"
 - func[2604] <_ZN3GUI12SliderWidgetC2EPNS_9GuiObjectERKN6Common6StringERKNS3_9U32StringEj> -> "_ZN3GUI12SliderWidgetC2EPNS_9GuiObjectERKN6Common6StringERKNS3_9U32StringEj"
 - func[2605] <_ZN3GUI12SliderWidget16handleMouseMovedEiii> -> "_ZN3GUI12SliderWidget16handleMouseMovedEiii"
 - func[2606] <_ZN3GUI12SliderWidget10posToValueEi> -> "_ZN3GUI12SliderWidget10posToValueEi"
 - func[2607] <_ZN3GUI12SliderWidget15handleMouseDownEiiii> -> "_ZN3GUI12SliderWidget15handleMouseDownEiiii"
 - func[2608] <_ZN3GUI12SliderWidget13handleMouseUpEiiii> -> "_ZN3GUI12SliderWidget13handleMouseUpEiiii"
 - func[2609] <_ZN3GUI12SliderWidget16handleMouseWheelEiii> -> "_ZN3GUI12SliderWidget16handleMouseWheelEiii"
 - func[2610] <_ZN3GUI12SliderWidget10drawWidgetEv> -> "_ZN3GUI12SliderWidget10drawWidgetEv"
 - func[2611] <_ZN3GUI12SliderWidget15valueToBarWidthEi> -> "_ZN3GUI12SliderWidget15valueToBarWidthEi"
 - func[2612] <_ZN3GUI12SliderWidget10valueToPosEi> -> "_ZN3GUI12SliderWidget10valueToPosEi"
 - func[2613] <_ZN3GUI14GraphicsWidgetC2EPNS_9GuiObjectEiiiiRKN6Common9U32StringE> -> "_ZN3GUI14GraphicsWidgetC2EPNS_9GuiObjectEiiiiRKN6Common9U32StringE"
 - global[4487] -> "_ZTVN3GUI14GraphicsWidgetE"
 - func[2614] <_ZN3GUI14GraphicsWidgetC2EPNS_9GuiObjectERKN6Common6StringERKNS3_9U32StringE> -> "_ZN3GUI14GraphicsWidgetC2EPNS_9GuiObjectERKN6Common6StringERKNS3_9U32StringE"
 - func[2615] <_ZN3GUI14GraphicsWidgetD1Ev> -> "_ZN3GUI14GraphicsWidgetD2Ev"
 - func[2616] <_ZN3GUI14GraphicsWidgetD0Ev> -> "_ZN3GUI14GraphicsWidgetD0Ev"
 - func[2615] <_ZN3GUI14GraphicsWidgetD1Ev> -> "_ZN3GUI14GraphicsWidgetD1Ev"
 - func[2621] <_ZN3GUI14GraphicsWidget10drawWidgetEv> -> "_ZN3GUI14GraphicsWidget10drawWidgetEv"
 - func[2622] <_ZN3GUI15ContainerWidgetC2EPNS_9GuiObjectEiiii> -> "_ZN3GUI15ContainerWidgetC2EPNS_9GuiObjectEiiii"
 - global[4488] -> "_ZTVN3GUI15ContainerWidgetE"
 - func[2623] <_ZN3GUI15ContainerWidgetC2EPNS_9GuiObjectERKN6Common6StringE> -> "_ZN3GUI15ContainerWidgetC2EPNS_9GuiObjectERKN6Common6StringE"
 - func[2624] <_ZN3GUI15ContainerWidgetD1Ev> -> "_ZN3GUI15ContainerWidgetD2Ev"
 - func[2625] <_ZN3GUI15ContainerWidgetD0Ev> -> "_ZN3GUI15ContainerWidgetD0Ev"
 - func[2624] <_ZN3GUI15ContainerWidgetD1Ev> -> "_ZN3GUI15ContainerWidgetD1Ev"
 - func[2626] <_ZNK3GUI15ContainerWidget14containsWidgetEPNS_6WidgetE> -> "_ZNK3GUI15ContainerWidget14containsWidgetEPNS_6WidgetE"
 - func[2627] <_ZN3GUI15ContainerWidget10findWidgetEii> -> "_ZN3GUI15ContainerWidget10findWidgetEii"
 - func[2628] <_ZN3GUI15ContainerWidget12removeWidgetEPNS_6WidgetE> -> "_ZN3GUI15ContainerWidget12removeWidgetEPNS_6WidgetE"
 - func[2630] <_ZN3GUI15ContainerWidget10drawWidgetEv> -> "_ZN3GUI15ContainerWidget10drawWidgetEv"
 - global[4489] -> "_ZTVN3GUI22OptionsContainerWidgetE"
 - func[2633] <_ZN3GUI22OptionsContainerWidgetD0Ev> -> "_ZN3GUI22OptionsContainerWidgetD0Ev"
 - func[2639] <_ZN3GUI16StaticTextWidgetD2Ev> -> "_ZN3GUI16StaticTextWidgetD2Ev"
 - func[2640] <_ZN3GUI16StaticTextWidgetD0Ev> -> "_ZN3GUI16StaticTextWidgetD0Ev"
 - func[2641] <_ZN3GUI16StaticTextWidget18handleMouseEnteredEi> -> "_ZN3GUI16StaticTextWidget18handleMouseEnteredEi"
 - func[2642] <_ZN3GUI12ButtonWidgetD0Ev> -> "_ZN3GUI12ButtonWidgetD0Ev"
 - func[2643] <_ZN3GUI12ButtonWidget18handleMouseEnteredEi> -> "_ZN3GUI12ButtonWidget18handleMouseEnteredEi"
 - func[2644] <_ZN3GUI12ButtonWidget15handleMouseLeftEi> -> "_ZN3GUI12ButtonWidget15handleMouseLeftEi"
 - func[2645] <_ZThn356_N3GUI12ButtonWidgetD1Ev> -> "_ZThn356_N3GUI12ButtonWidgetD1Ev"
 - func[2646] <_ZThn356_N3GUI12ButtonWidgetD0Ev> -> "_ZThn356_N3GUI12ButtonWidgetD0Ev"
 - func[2647] <_ZN3GUI20DropdownButtonWidgetD2Ev> -> "_ZN3GUI20DropdownButtonWidgetD2Ev"
 - func[2648] <_ZN3GUI20DropdownButtonWidgetD0Ev> -> "_ZN3GUI20DropdownButtonWidgetD0Ev"
 - func[2649] <_ZThn356_N3GUI20DropdownButtonWidgetD1Ev> -> "_ZThn356_N3GUI20DropdownButtonWidgetD1Ev"
 - func[2650] <_ZThn356_N3GUI20DropdownButtonWidgetD0Ev> -> "_ZThn356_N3GUI20DropdownButtonWidgetD0Ev"
 - func[2651] <_ZN3GUI12ButtonWidgetD2Ev> -> "_ZN3GUI12ButtonWidgetD2Ev"
 - func[2652] <_ZN3GUI14CheckboxWidgetD0Ev> -> "_ZN3GUI14CheckboxWidgetD0Ev"
 - func[2653] <_ZN3GUI14CheckboxWidget18handleMouseEnteredEi> -> "_ZN3GUI14CheckboxWidget18handleMouseEnteredEi"
 - func[2654] <_ZN3GUI14CheckboxWidget15handleMouseLeftEi> -> "_ZN3GUI14CheckboxWidget15handleMouseLeftEi"
 - func[2655] <_ZThn356_N3GUI14CheckboxWidgetD1Ev> -> "_ZThn356_N3GUI14CheckboxWidgetD1Ev"
 - func[2656] <_ZThn356_N3GUI14CheckboxWidgetD0Ev> -> "_ZThn356_N3GUI14CheckboxWidgetD0Ev"
 - func[2657] <_ZN3GUI17RadiobuttonWidgetD0Ev> -> "_ZN3GUI17RadiobuttonWidgetD0Ev"
 - func[2658] <_ZN3GUI17RadiobuttonWidget18handleMouseEnteredEi> -> "_ZN3GUI17RadiobuttonWidget18handleMouseEnteredEi"
 - func[2659] <_ZN3GUI17RadiobuttonWidget15handleMouseLeftEi> -> "_ZN3GUI17RadiobuttonWidget15handleMouseLeftEi"
 - func[2660] <_ZThn356_N3GUI17RadiobuttonWidgetD1Ev> -> "_ZThn356_N3GUI17RadiobuttonWidgetD1Ev"
 - func[2661] <_ZThn356_N3GUI17RadiobuttonWidgetD0Ev> -> "_ZThn356_N3GUI17RadiobuttonWidgetD0Ev"
 - func[2662] <_ZN3GUI12SliderWidgetD2Ev> -> "_ZN3GUI12SliderWidgetD2Ev"
 - func[2663] <_ZN3GUI12SliderWidgetD0Ev> -> "_ZN3GUI12SliderWidgetD0Ev"
 - func[2664] <_ZN3GUI12SliderWidget18handleMouseEnteredEi> -> "_ZN3GUI12SliderWidget18handleMouseEnteredEi"
 - func[2665] <_ZN3GUI12SliderWidget15handleMouseLeftEi> -> "_ZN3GUI12SliderWidget15handleMouseLeftEi"
 - func[2666] <_ZThn212_N3GUI12SliderWidgetD1Ev> -> "_ZThn212_N3GUI12SliderWidgetD1Ev"
 - func[2667] <_ZThn212_N3GUI12SliderWidgetD0Ev> -> "_ZThn212_N3GUI12SliderWidgetD0Ev"
 - func[2668] <_ZNK3GUI22OptionsContainerWidget12defineLayoutERNS_9ThemeEvalERKN6Common6StringES6_> -> "_ZNK3GUI22OptionsContainerWidget12defineLayoutERNS_9ThemeEvalERKN6Common6StringES6_"
 - func[2669] <_ZN3GUI16RadiobuttonGroupD2Ev> -> "_ZN3GUI16RadiobuttonGroupD2Ev"
 - func[2670] <_ZN3GUI16RadiobuttonGroupD0Ev> -> "_ZN3GUI16RadiobuttonGroupD0Ev"
 - global[4490] -> "_ZTIN3GUI6WidgetE"
 - func[2524] <_ZN3GUI6WidgetD1Ev> -> "_ZN3GUI6WidgetD1Ev"
 - global[4491] -> "_ZTIN3GUI16StaticTextWidgetE"
 - global[4492] -> "_ZTIN3GUI12ButtonWidgetE"
 - global[4493] -> "_ZTIN3GUI20DropdownButtonWidgetE"
 - global[4494] -> "_ZTIN3GUI15PicButtonWidgetE"
 - global[4495] -> "_ZTIN3GUI14CheckboxWidgetE"
 - global[4496] -> "_ZTIN3GUI16RadiobuttonGroupE"
 - global[4497] -> "_ZTIN3GUI17RadiobuttonWidgetE"
 - global[4498] -> "_ZTIN3GUI12SliderWidgetE"
 - global[4499] -> "_ZTIN3GUI14GraphicsWidgetE"
 - global[4500] -> "_ZTIN3GUI15ContainerWidgetE"
 - func[2632] <_ZN3GUI22OptionsContainerWidgetD1Ev> -> "_ZN3GUI22OptionsContainerWidgetD1Ev"
 - global[4501] -> "_ZTSN3GUI6WidgetE"
 - global[4502] -> "_ZTSN3GUI16StaticTextWidgetE"
 - global[4503] -> "_ZTSN3GUI12ButtonWidgetE"
 - global[4504] -> "_ZTSN3GUI20DropdownButtonWidgetE"
 - global[4505] -> "_ZTSN3GUI15PicButtonWidgetE"
 - global[4506] -> "_ZTSN3GUI14CheckboxWidgetE"
 - global[4507] -> "_ZTSN3GUI17RadiobuttonWidgetE"
 - global[4508] -> "_ZTSN3GUI12SliderWidgetE"
 - global[4509] -> "_ZTSN3GUI14GraphicsWidgetE"
 - global[4510] -> "_ZTSN3GUI15ContainerWidgetE"
 - global[4511] -> "_ZTSN3GUI22OptionsContainerWidgetE"
 - global[4512] -> "_ZTSN3GUI16RadiobuttonGroupE"
 - func[2566] <_ZN3GUI20DropdownButtonWidgetC1EPNS_9GuiObjectEiiiiRKN6Common9U32StringES6_jhS6_> -> "_ZN3GUI20DropdownButtonWidgetC1EPNS_9GuiObjectEiiiiRKN6Common9U32StringES6_jhS6_"
 - func[2598] <_ZN3GUI17RadiobuttonWidgetC1EPNS_9GuiObjectEiiiiPNS_16RadiobuttonGroupEiRKN6Common9U32StringES8_h> -> "_ZN3GUI17RadiobuttonWidgetC1EPNS_9GuiObjectEiiiiPNS_16RadiobuttonGroupEiRKN6Common9U32StringES8_h"
 - func[2671] <_ZN3GUI9AnimationC2Ev> -> "_ZN3GUI9AnimationC2Ev"
 - global[4513] -> "_ZTVN3GUI9AnimationE"
 - func[2672] <_ZN3GUI9AnimationD1Ev> -> "_ZN3GUI9AnimationD2Ev"
 - func[2673] <_ZN3GUI9AnimationD0Ev> -> "_ZN3GUI9AnimationD0Ev"
 - func[2674] <_ZN3GUI9Animation5startEl> -> "_ZN3GUI9Animation5startEl"
 - func[2675] <_ZN3GUI9Animation11setDurationEl> -> "_ZN3GUI9Animation11setDurationEl"
 - func[2676] <_ZN3GUI9Animation6updateEPNS_8DrawableEl> -> "_ZN3GUI9Animation6updateEPNS_8DrawableEl"
 - func[2677] <_ZN3GUI9Animation15finishAnimationEv> -> "_ZN3GUI9Animation15finishAnimationEv"
 - func[2678] <_ZN3GUI9Animation14updateInternalEPNS_8DrawableEf> -> "_ZN3GUI9Animation14updateInternalEPNS_8DrawableEf"
 - func[2679] <_ZNK3GUI9Animation10isFinishedEv> -> "_ZNK3GUI9Animation10isFinishedEv"
 - func[2680] <_ZNK3GUI9Animation13isFinishOnEndEv> -> "_ZNK3GUI9Animation13isFinishOnEndEv"
 - func[2681] <_ZN3GUI9Animation14setFinishOnEndEb> -> "_ZN3GUI9Animation14setFinishOnEndEb"
 - func[2682] <_ZNK3GUI9Animation15getInterpolatorEv> -> "_ZNK3GUI9Animation15getInterpolatorEv"
 - func[2683] <_ZN3GUI9Animation15setInterpolatorEN6Common9SharedPtrINS_12InterpolatorEEE> -> "_ZN3GUI9Animation15setInterpolatorEN6Common9SharedPtrINS_12InterpolatorEEE"
 - global[4514] -> "_ZTIN3GUI9AnimationE"
 - global[4515] -> "_ZTSN3GUI9AnimationE"
 - func[2672] <_ZN3GUI9AnimationD1Ev> -> "_ZN3GUI9AnimationD1Ev"
 - func[2684] <_ZN3GUI22RepeatAnimationWrapper6updateEPNS_8DrawableEl> -> "_ZN3GUI22RepeatAnimationWrapper6updateEPNS_8DrawableEl"
 - func[2685] <_ZN3GUI22RepeatAnimationWrapper5startEl> -> "_ZN3GUI22RepeatAnimationWrapper5startEl"
 - func[2686] <_ZN3GUI22RepeatAnimationWrapperD2Ev> -> "_ZN3GUI22RepeatAnimationWrapperD2Ev"
 - global[4516] -> "_ZTVN3GUI22RepeatAnimationWrapperE"
 - func[2687] <_ZN3GUI22RepeatAnimationWrapperD0Ev> -> "_ZN3GUI22RepeatAnimationWrapperD0Ev"
 - global[4517] -> "_ZTIN3GUI22RepeatAnimationWrapperE"
 - global[4518] -> "_ZTSN3GUI22RepeatAnimationWrapperE"
 - func[2688] <_ZN3GUI26SequenceAnimationComposite5startEl> -> "_ZN3GUI26SequenceAnimationComposite5startEl"
 - func[2689] <_ZN3GUI26SequenceAnimationComposite12addAnimationEN6Common9SharedPtrINS_9AnimationEEE> -> "_ZN3GUI26SequenceAnimationComposite12addAnimationEN6Common9SharedPtrINS_9AnimationEEE"
 - func[2690] <_ZN6Common5ArrayINS_9SharedPtrIN3GUI9AnimationEEEE10insert_auxEPS4_PKS4_S8_> -> "_ZN6Common5ArrayINS_9SharedPtrIN3GUI9AnimationEEEE10insert_auxEPS4_PKS4_S8_"
 - func[2691] <_ZN3GUI26SequenceAnimationComposite6updateEPNS_8DrawableEl> -> "_ZN3GUI26SequenceAnimationComposite6updateEPNS_8DrawableEl"
 - func[2692] <_ZN3GUI26SequenceAnimationCompositeD2Ev> -> "_ZN3GUI26SequenceAnimationCompositeD2Ev"
 - global[4519] -> "_ZTVN3GUI26SequenceAnimationCompositeE"
 - func[2693] <_ZN3GUI26SequenceAnimationCompositeD0Ev> -> "_ZN3GUI26SequenceAnimationCompositeD0Ev"
 - global[4520] -> "_ZTIN3GUI26SequenceAnimationCompositeE"
 - global[4521] -> "_ZTSN3GUI26SequenceAnimationCompositeE"
 - func[2694] <_ZN3GUI14EditableWidgetC2EPNS_9GuiObjectEiiiiRKN6Common9U32StringEj> -> "_ZN3GUI14EditableWidgetC2EPNS_9GuiObjectEiiiiRKN6Common9U32StringEj"
 - global[4522] -> "_ZTVN3GUI14EditableWidgetE"
 - func[2695] <_ZN3GUI14EditableWidget4initEv> -> "_ZN3GUI14EditableWidget4initEv"
 - func[2696] <_ZN3GUI14EditableWidgetC2EPNS_9GuiObjectERKN6Common6StringERKNS3_9U32StringEj> -> "_ZN3GUI14EditableWidgetC2EPNS_9GuiObjectERKN6Common6StringERKNS3_9U32StringEj"
 - func[2698] <_ZThn212_N3GUI14EditableWidgetD1Ev> -> "_ZThn212_N3GUI14EditableWidgetD1Ev"
 - func[2697] <_ZN3GUI14EditableWidgetD1Ev> -> "_ZN3GUI14EditableWidgetD1Ev"
 - func[2699] <_ZN3GUI14EditableWidgetD0Ev> -> "_ZN3GUI14EditableWidgetD0Ev"
 - func[2700] <_ZThn212_N3GUI14EditableWidgetD0Ev> -> "_ZThn212_N3GUI14EditableWidgetD0Ev"
 - func[2701] <_ZN3GUI14EditableWidget12reflowLayoutEv> -> "_ZN3GUI14EditableWidget12reflowLayoutEv"
 - func[2702] <_ZN3GUI14EditableWidget13setEditStringERKN6Common9U32StringE> -> "_ZN3GUI14EditableWidget13setEditStringERKN6Common9U32StringE"
 - func[2703] <_ZN3GUI14EditableWidget14caretVisualPosEi> -> "_ZN3GUI14EditableWidget14caretVisualPosEi"
 - func[2704] <_ZN3GUI14EditableWidget12adjustOffsetEv> -> "_ZN3GUI14EditableWidget12adjustOffsetEv"
 - func[2705] <_ZN3GUI14EditableWidget11setCaretPosEi> -> "_ZN3GUI14EditableWidget11setCaretPosEi"
 - func[12493] <_ZN6Common20convertBiDiU32StringERKNS_9U32StringENS_13BiDiParagraphE> -> "_ZN6Common20convertBiDiU32StringERKNS_9U32StringENS_13BiDiParagraphE"
 - func[12487] <_ZNK6Common15UnicodeBiDiText17getVisualPositionEj> -> "_ZNK6Common15UnicodeBiDiText17getVisualPositionEj"
 - func[12486] <_ZN6Common15UnicodeBiDiTextD2Ev> -> "_ZN6Common15UnicodeBiDiTextD1Ev"
 - func[2706] <_ZNK3GUI14EditableWidget13isCharAllowedEDi> -> "_ZNK3GUI14EditableWidget13isCharAllowedEDi"
 - func[2707] <_ZN3GUI14EditableWidget13tryInsertCharEDii> -> "_ZN3GUI14EditableWidget13tryInsertCharEDii"
 - func[11724] <_ZN6Common10BaseStringIDiE10insertCharEDij> -> "_ZN6Common10BaseStringIDiE10insertCharEDij"
 - func[2708] <_ZNK3GUI14EditableWidget15caretLogicalPosEv> -> "_ZNK3GUI14EditableWidget15caretLogicalPosEv"
 - func[12488] <_ZNK6Common15UnicodeBiDiText18getLogicalPositionEj> -> "_ZNK6Common15UnicodeBiDiText18getLogicalPositionEj"
 - func[2710] <_ZN3GUI14EditableWidget9drawCaretEb> -> "_ZN3GUI14EditableWidget9drawCaretEb"
 - func[12483] <_ZN6Common15UnicodeBiDiTextC2ERKNS_9U32StringENS_13BiDiParagraphE> -> "_ZN6Common15UnicodeBiDiTextC1ERKNS_9U32StringENS_13BiDiParagraphE"
 - func[12498] <_ZN6Common9U32StringC2EDi> -> "_ZN6Common9U32StringC1EDi"
 - func[11708] <_ZN6Common10BaseStringIDiE10deleteCharEj> -> "_ZN6Common10BaseStringIDiE10deleteCharEj"
 - func[2712] <_ZN3GUI14EditableWidget21defaultKeyDownHandlerERN6Common8KeyStateERbS4_S4_> -> "_ZN3GUI14EditableWidget21defaultKeyDownHandlerERN6Common8KeyStateERbS4_S4_"
 - func[2713] <_ZN3GUI14EditableWidget16makeCaretVisibleEv> -> "_ZN3GUI14EditableWidget16makeCaretVisibleEv"
 - global[4523] -> "_ZTIN3GUI14EditableWidgetE"
 - global[4524] -> "_ZTSN3GUI14EditableWidgetE"
 - func[2715] <_ZN3GUI14EditTextWidgetC1EPNS_9GuiObjectEiiiiRKN6Common9U32StringES6_jjNS_11ThemeEngine9FontStyleE> -> "_ZN3GUI14EditTextWidgetC2EPNS_9GuiObjectEiiiiRKN6Common9U32StringES6_jjNS_11ThemeEngine9FontStyleE"
 - func[2727] <_ZN3GUI14EditTextWidgetD0Ev> -> "_ZN3GUI14EditTextWidgetD0Ev"
 - func[2728] <_ZThn212_N3GUI14EditTextWidgetD1Ev> -> "_ZThn212_N3GUI14EditTextWidgetD1Ev"
 - func[2729] <_ZThn212_N3GUI14EditTextWidgetD0Ev> -> "_ZThn212_N3GUI14EditTextWidgetD0Ev"
 - global[4525] -> "_ZTSN3GUI14EditTextWidgetE"
 - func[2715] <_ZN3GUI14EditTextWidgetC1EPNS_9GuiObjectEiiiiRKN6Common9U32StringES6_jjNS_11ThemeEngine9FontStyleE> -> "_ZN3GUI14EditTextWidgetC1EPNS_9GuiObjectEiiiiRKN6Common9U32StringES6_jjNS_11ThemeEngine9FontStyleE"
 - func[2730] <_ZN3GUI14GridItemWidgetC1EPNS_10GridWidgetE> -> "_ZN3GUI14GridItemWidgetC2EPNS_10GridWidgetE"
 - global[4526] -> "_ZTVN3GUI14GridItemWidgetE"
 - func[2731] <_ZN3GUI14GridItemWidget14setActiveEntryERNS_12GridItemInfoE> -> "_ZN3GUI14GridItemWidget14setActiveEntryERNS_12GridItemInfoE"
 - func[2732] <_ZN3GUI14GridItemWidget11updateThumbEv> -> "_ZN3GUI14GridItemWidget11updateThumbEv"
 - func[2733] <_ZN6Common7HashMapINS_6StringEPKN8Graphics14ManagedSurfaceENS_4HashIS1_EENS_7EqualToIS1_EEE24lookupAndCreateIfMissingERKS1_> -> "_ZN6Common7HashMapINS_6StringEPKN8Graphics14ManagedSurfaceENS_4HashIS1_EENS_7EqualToIS1_EEE24lookupAndCreateIfMissingERKS1_"
 - func[2734] <_ZN3GUI10GridWidget17filenameToSurfaceERKN6Common6StringE> -> "_ZN3GUI10GridWidget17filenameToSurfaceERKN6Common6StringE"
 - func[2735] <_ZN3GUI14GridItemWidget6updateEv> -> "_ZN3GUI14GridItemWidget6updateEv"
 - func[2736] <_ZN3GUI14GridItemWidget4moveEii> -> "_ZN3GUI14GridItemWidget4moveEii"
 - func[2737] <_ZN3GUI14GridItemWidget10drawWidgetEv> -> "_ZN3GUI14GridItemWidget10drawWidgetEv"
 - func[2738] <_ZN6Common7HashMapIiPKN8Graphics14ManagedSurfaceENS_4HashIiEENS_7EqualToIiEEE24lookupAndCreateIfMissingERKi> -> "_ZN6Common7HashMapIiPKN8Graphics14ManagedSurfaceENS_4HashIiEENS_7EqualToIiEEE24lookupAndCreateIfMissingERKi"
 - func[2739] <_ZN3GUI10GridWidget17platformToSurfaceEN6Common8PlatformE> -> "_ZN3GUI10GridWidget17platformToSurfaceEN6Common8PlatformE"
 - func[2740] <_ZN3GUI10GridWidget17languageToSurfaceEN6Common8LanguageE> -> "_ZN3GUI10GridWidget17languageToSurfaceEN6Common8LanguageE"
 - func[2741] <_ZN3GUI10GridWidget13demoToSurfaceEN6Common6StringE> -> "_ZN3GUI10GridWidget13demoToSurfaceEN6Common6StringE"
 - func[2742] <_ZN3GUI14GridItemWidget16handleMouseWheelEiii> -> "_ZN3GUI14GridItemWidget16handleMouseWheelEiii"
 - func[2743] <_ZN3GUI14GridItemWidget18handleMouseEnteredEi> -> "_ZN3GUI14GridItemWidget18handleMouseEnteredEi"
 - func[2744] <_ZN3GUI14GridItemWidget15handleMouseLeftEi> -> "_ZN3GUI14GridItemWidget15handleMouseLeftEi"
 - func[2745] <_ZN3GUI14GridItemWidget16handleMouseMovedEiii> -> "_ZN3GUI14GridItemWidget16handleMouseMovedEiii"
 - func[2746] <_ZN3GUI10GridWidget11toggleGroupEi> -> "_ZN3GUI10GridWidget11toggleGroupEi"
 - func[2747] <_ZN3GUI10GridWidget10sortGroupsEv> -> "_ZN3GUI10GridWidget10sortGroupsEv"
 - func[2748] <_ZN6Common4sortIPNS_9U32StringENS_4LessIS1_EEEEvT_S5_T0_> -> "_ZN6Common4sortIPNS_9U32StringENS_4LessIS1_EEEEvT_S5_T0_"
 - func[2749] <_ZN6Common7HashMapINS_9U32StringEiNS_4HashIS1_EENS_7EqualToIS1_EEE24lookupAndCreateIfMissingERKS1_> -> "_ZN6Common7HashMapINS_9U32StringEiNS_4HashIS1_EENS_7EqualToIS1_EEE24lookupAndCreateIfMissingERKS1_"
 - func[2750] <_ZN6Common5ArrayIPN3GUI12GridItemInfoEE10insert_auxEPS3_PKS3_S7_> -> "_ZN6Common5ArrayIPN3GUI12GridItemInfoEE10insert_auxEPS3_PKS3_S7_"
 - func[2751] <_ZN6Common7HashMapIiNS_5ArrayIiEENS_4HashIiEENS_7EqualToIiEEE24lookupAndCreateIfMissingERKi> -> "_ZN6Common7HashMapIiNS_5ArrayIiEENS_4HashIiEENS_7EqualToIiEEE24lookupAndCreateIfMissingERKi"
 - func[12454] <_ZN6Common18U32StringTokenizerC2ERKNS_9U32StringERKNS_6StringE> -> "_ZN6Common18U32StringTokenizerC1ERKNS_9U32StringERKNS_6StringE"
 - func[11733] <_ZN6Common10BaseStringIDiE11toLowercaseEv> -> "_ZN6Common10BaseStringIDiE11toLowercaseEv"
 - func[12455] <_ZN6Common18U32StringTokenizer5resetEv> -> "_ZN6Common18U32StringTokenizer5resetEv"
 - func[12456] <_ZNK6Common18U32StringTokenizer5emptyEv> -> "_ZNK6Common18U32StringTokenizer5emptyEv"
 - func[12457] <_ZN6Common18U32StringTokenizer9nextTokenEv> -> "_ZN6Common18U32StringTokenizer9nextTokenEv"
 - func[2752] <_ZN3GUI10GridWidget14calcEntrySizesEv> -> "_ZN3GUI10GridWidget14calcEntrySizesEv"
 - func[2753] <_ZN3GUI10GridWidget15calcInnerHeightEv> -> "_ZN3GUI10GridWidget15calcInnerHeightEv"
 - func[2928] <_ZN3GUI15ScrollBarWidget11checkBoundsEi> -> "_ZN3GUI15ScrollBarWidget11checkBoundsEi"
 - func[2754] <_ZN3GUI10GridWidget18calcVisibleEntriesEv> -> "_ZN3GUI10GridWidget18calcVisibleEntriesEv"
 - func[2755] <_ZN3GUI10GridWidget16reloadThumbnailsEv> -> "_ZN3GUI10GridWidget16reloadThumbnailsEv"
 - func[2756] <_ZN3GUI10GridWidget20assignEntriesToItemsEv> -> "_ZN3GUI10GridWidget20assignEntriesToItemsEv"
 - func[2757] <_ZN3GUI10GridWidget15scrollBarRecalcEv> -> "_ZN3GUI10GridWidget15scrollBarRecalcEv"
 - func[2758] <_ZN3GUI14GridItemWidget15handleMouseDownEiiii> -> "_ZN3GUI14GridItemWidget15handleMouseDownEiiii"
 - func[2759] <_ZN3GUI12GridItemTrayC1EPNS_9GuiObjectEiiiiiPNS_10GridWidgetE> -> "_ZN3GUI12GridItemTrayC2EPNS_9GuiObjectEiiiiiPNS_10GridWidgetE"
 - global[4527] -> "_ZTVN3GUI12GridItemTrayE"
 - func[2760] <_ZN3GUI12GridItemTray12reflowLayoutEv> -> "_ZN3GUI12GridItemTray12reflowLayoutEv"
 - func[2761] <_ZN3GUI12GridItemTray13handleCommandEPNS_13CommandSenderEjj> -> "_ZN3GUI12GridItemTray13handleCommandEPNS_13CommandSenderEjj"
 - func[2762] <_ZN3GUI12GridItemTray15handleMouseDownEiiii> -> "_ZN3GUI12GridItemTray15handleMouseDownEiiii"
 - func[2763] <_ZN3GUI12GridItemTray16handleMouseWheelEiii> -> "_ZN3GUI12GridItemTray16handleMouseWheelEiii"
 - func[2764] <_ZN3GUI12GridItemTray16handleMouseMovedEiii> -> "_ZN3GUI12GridItemTray16handleMouseMovedEiii"
 - func[2765] <_ZN3GUI19loadSurfaceFromFileERKN6Common6StringEii> -> "_ZN3GUI19loadSurfaceFromFileERKN6Common6StringEii"
 - func[2766] <_ZN3GUI10GridWidgetC2EPNS_9GuiObjectERKN6Common6StringE> -> "_ZN3GUI10GridWidgetC2EPNS_9GuiObjectERKN6Common6StringE"
 - global[4528] -> "_ZTVN3GUI10GridWidgetE"
 - func[2767] <_ZN3GUI10GridWidgetD1Ev> -> "_ZN3GUI10GridWidgetD2Ev"
 - func[2768] <_ZN3GUI10GridWidget14unloadSurfacesIiEEvRN6Common7HashMapIT_PKN8Graphics14ManagedSurfaceENS2_4HashIS4_EENS2_7EqualToIS4_EEEE> -> "_ZN3GUI10GridWidget14unloadSurfacesIiEEvRN6Common7HashMapIT_PKN8Graphics14ManagedSurfaceENS2_4HashIS4_EENS2_7EqualToIS4_EEEE"
 - func[2769] <_ZN3GUI10GridWidget14unloadSurfacesIN6Common6StringEEEvRNS2_7HashMapIT_PKN8Graphics14ManagedSurfaceENS2_4HashIS5_EENS2_7EqualToIS5_EEEE> -> "_ZN3GUI10GridWidget14unloadSurfacesIN6Common6StringEEEvRNS2_7HashMapIT_PKN8Graphics14ManagedSurfaceENS2_4HashIS5_EENS2_7EqualToIS5_EEEE"
 - func[2770] <_ZN6Common7HashMapIiNS_5ArrayIiEENS_4HashIiEENS_7EqualToIiEEED2Ev> -> "_ZN6Common7HashMapIiNS_5ArrayIiEENS_4HashIiEENS_7EqualToIiEEED2Ev"
 - func[2771] <_ZNK6Common7HashMapIiPKN8Graphics14ManagedSurfaceENS_4HashIiEENS_7EqualToIiEEE12IteratorImplINS9_4NodeEE5derefEv> -> "_ZNK6Common7HashMapIiPKN8Graphics14ManagedSurfaceENS_4HashIiEENS_7EqualToIiEEE12IteratorImplINS9_4NodeEE5derefEv"
 - func[2772] <_ZNK6Common7HashMapINS_6StringEPKN8Graphics14ManagedSurfaceENS_4HashIS1_EENS_7EqualToIS1_EEE12IteratorImplINSA_4NodeEE5derefEv> -> "_ZNK6Common7HashMapINS_6StringEPKN8Graphics14ManagedSurfaceENS_4HashIS1_EENS_7EqualToIS1_EEE12IteratorImplINSA_4NodeEE5derefEv"
 - func[2773] <_ZThn216_N3GUI10GridWidgetD1Ev> -> "_ZThn216_N3GUI10GridWidgetD1Ev"
 - func[2767] <_ZN3GUI10GridWidgetD1Ev> -> "_ZN3GUI10GridWidgetD1Ev"
 - func[2774] <_ZN3GUI10GridWidgetD0Ev> -> "_ZN3GUI10GridWidgetD0Ev"
 - func[2775] <_ZThn216_N3GUI10GridWidgetD0Ev> -> "_ZThn216_N3GUI10GridWidgetD0Ev"
 - func[11736] <_ZNK6Common10BaseStringIDiE4hashEv> -> "_ZNK6Common10BaseStringIDiE4hashEv"
 - func[2780] <_ZN6Common5ArrayIbE10insert_auxEPbPKbS4_> -> "_ZN6Common5ArrayIbE10insert_auxEPbPKbS4_"
 - func[2781] <_ZN6Common7HashMapINS_9U32StringEiNS_4HashIS1_EENS_7EqualToIS1_EEE6getValERKS1_> -> "_ZN6Common7HashMapINS_9U32StringEiNS_4HashIS1_EENS_7EqualToIS1_EEE6getValERKS1_"
 - func[2782] <_ZN6Common9U32StringC2ERKS0_> -> "_ZN6Common9U32StringC2ERKS0_"
 - func[2783] <_ZN6Common15unknownKeyErrorINS_9U32StringEEEvT_> -> "_ZN6Common15unknownKeyErrorINS_9U32StringEEEvT_"
 - func[6470] <_ZN8Graphics14ManagedSurfaceC2ERKS0_> -> "_ZN8Graphics14ManagedSurfaceC1ERKS0_"
 - func[2730] <_ZN3GUI14GridItemWidgetC1EPNS_10GridWidgetE> -> "_ZN3GUI14GridItemWidgetC1EPNS_10GridWidgetE"
 - func[2784] <_ZN6Common5ArrayIPN3GUI14GridItemWidgetEE10insert_auxEPS3_PKS3_S7_> -> "_ZN6Common5ArrayIPN3GUI14GridItemWidgetEE10insert_auxEPS3_PKS3_S7_"
 - func[2785] <_ZN3GUI15lastItemBeforeYERKN6Common5ArrayIPNS_12GridItemInfoEEEi> -> "_ZN3GUI15lastItemBeforeYERKN6Common5ArrayIPNS_12GridItemInfoEEEi"
 - func[2786] <_ZN3GUI10GridWidget16setTitlesVisibleEb> -> "_ZN3GUI10GridWidget16setTitlesVisibleEb"
 - func[2788] <_ZN3GUI10GridWidget13loadFlagIconsEv> -> "_ZN3GUI10GridWidget13loadFlagIconsEv"
 - func[2789] <_ZN3GUI10GridWidget17loadPlatformIconsEv> -> "_ZN3GUI10GridWidget17loadPlatformIconsEv"
 - func[2790] <_ZN3GUI10GridWidget14loadExtraIconsEv> -> "_ZN3GUI10GridWidget14loadExtraIconsEv"
 - func[2791] <_ZN3GUI10GridWidget12destroyItemsEv> -> "_ZN3GUI10GridWidget12destroyItemsEv"
 - func[2792] <_ZN3GUI10GridWidget4moveEii> -> "_ZN3GUI10GridWidget4moveEii"
 - func[2793] <_ZN3GUI10GridWidget13scrollToEntryEib> -> "_ZN3GUI10GridWidget13scrollToEntryEib"
 - func[2794] <_ZN3GUI10GridWidget10updateGridEv> -> "_ZN3GUI10GridWidget10updateGridEv"
 - func[2795] <_ZN3GUI10GridWidget16handleMouseWheelEiii> -> "_ZN3GUI10GridWidget16handleMouseWheelEiii"
 - func[2796] <_ZN3GUI10GridWidget13handleCommandEPNS_13CommandSenderEjj> -> "_ZN3GUI10GridWidget13handleCommandEPNS_13CommandSenderEjj"
 - func[2759] <_ZN3GUI12GridItemTrayC1EPNS_9GuiObjectEiiiiiPNS_10GridWidgetE> -> "_ZN3GUI12GridItemTrayC1EPNS_9GuiObjectEiiiiiPNS_10GridWidgetE"
 - func[2797] <_ZN3GUI10GridWidget18openTrayAtSelectedEv> -> "_ZN3GUI10GridWidget18openTrayAtSelectedEv"
 - func[2798] <_ZN3GUI10GridWidget12reflowLayoutEv> -> "_ZN3GUI10GridWidget12reflowLayoutEv"
 - func[2799] <_ZN3GUI10GridWidget8openTrayEiii> -> "_ZN3GUI10GridWidget8openTrayEiii"
 - func[2802] <_ZN3GUI14GridItemWidgetD2Ev> -> "_ZN3GUI14GridItemWidgetD2Ev"
 - func[2803] <_ZN3GUI14GridItemWidgetD0Ev> -> "_ZN3GUI14GridItemWidgetD0Ev"
 - func[2804] <_ZThn216_N3GUI14GridItemWidgetD1Ev> -> "_ZThn216_N3GUI14GridItemWidgetD1Ev"
 - func[2805] <_ZThn216_N3GUI14GridItemWidgetD0Ev> -> "_ZThn216_N3GUI14GridItemWidgetD0Ev"
 - func[2806] <_ZN3GUI12GridItemTrayD2Ev> -> "_ZN3GUI12GridItemTrayD2Ev"
 - func[2807] <_ZN3GUI12GridItemTrayD0Ev> -> "_ZN3GUI12GridItemTrayD0Ev"
 - func[2808] <_ZThn88_N3GUI12GridItemTrayD1Ev> -> "_ZThn88_N3GUI12GridItemTrayD1Ev"
 - func[2809] <_ZThn88_N3GUI12GridItemTrayD0Ev> -> "_ZThn88_N3GUI12GridItemTrayD0Ev"
 - func[2810] <_ZN3GUI10GridWidget10wantsFocusEv> -> "_ZN3GUI10GridWidget10wantsFocusEv"
 - func[2811] <_ZN6Common7HashMapINS_6StringEPKN8Graphics14ManagedSurfaceENS_4HashIS1_EENS_7EqualToIS1_EEE13expandStorageEj> -> "_ZN6Common7HashMapINS_6StringEPKN8Graphics14ManagedSurfaceENS_4HashIS1_EENS_7EqualToIS1_EEE13expandStorageEj"
 - func[2812] <_ZN6Common7HashMapIiPKN8Graphics14ManagedSurfaceENS_4HashIiEENS_7EqualToIiEEE13expandStorageEj> -> "_ZN6Common7HashMapIiPKN8Graphics14ManagedSurfaceENS_4HashIiEENS_7EqualToIiEEE13expandStorageEj"
 - func[2813] <_ZN6Common7HashMapINS_9U32StringEiNS_4HashIS1_EENS_7EqualToIS1_EEE13expandStorageEj> -> "_ZN6Common7HashMapINS_9U32StringEiNS_4HashIS1_EENS_7EqualToIS1_EEE13expandStorageEj"
 - func[2814] <_ZN6Common7HashMapIiNS_5ArrayIiEENS_4HashIiEENS_7EqualToIiEEE13expandStorageEj> -> "_ZN6Common7HashMapIiNS_5ArrayIiEENS_4HashIiEENS_7EqualToIiEEE13expandStorageEj"
 - func[2815] <_ZN6Common13sortPartitionIPNS_9U32StringENS_4LessIS1_EEEET_S5_S5_S5_RT0_> -> "_ZN6Common13sortPartitionIPNS_9U32StringENS_4LessIS1_EEEET_S5_S5_S5_RT0_"
 - func[11692] <_ZNK6Common10BaseStringIDiEltERKS1_> -> "_ZNK6Common10BaseStringIDiEltERKS1_"
 - global[4529] -> "_ZTIN3GUI14GridItemWidgetE"
 - global[4530] -> "_ZTIN3GUI12GridItemTrayE"
 - global[4531] -> "_ZTIN3GUI10GridWidgetE"
 - global[4532] -> "_ZTSN3GUI14GridItemWidgetE"
 - global[4533] -> "_ZTSN3GUI12GridItemTrayE"
 - global[4534] -> "_ZTSN3GUI10GridWidgetE"
 - func[2816] <_ZN3GUI17GroupedListWidgetC2EPNS_6DialogERKN6Common6StringERKNS3_9U32StringEj> -> "_ZN3GUI17GroupedListWidgetC2EPNS_6DialogERKN6Common6StringERKNS3_9U32StringEj"
 - func[2841] <_ZN3GUI10ListWidgetC2EPNS_6DialogERKN6Common6StringERKNS3_9U32StringEj> -> "_ZN3GUI10ListWidgetC2EPNS_6DialogERKN6Common6StringERKNS3_9U32StringEj"
 - global[4535] -> "_ZTVN3GUI17GroupedListWidgetE"
 - func[2851] <_ZN3GUI10ListWidget15scrollBarRecalcEv> -> "_ZN3GUI10ListWidget15scrollBarRecalcEv"
 - func[2819] <_ZN3GUI17GroupedListWidget10sortGroupsEv> -> "_ZN3GUI17GroupedListWidget10sortGroupsEv"
 - func[2821] <_ZN6Common5ArrayINS_9U32StringEEaSERKS2_> -> "_ZN6Common5ArrayINS_9U32StringEEaSERKS2_"
 - func[11734] <_ZN6Common10BaseStringIDiE11toUppercaseEv> -> "_ZN6Common10BaseStringIDiE11toUppercaseEv"
 - func[2855] <_ZN3GUI10ListWidget11checkBoundsEv> -> "_ZN3GUI10ListWidget11checkBoundsEv"
 - func[2849] <_ZN3GUI10ListWidget15scrollToCurrentEv> -> "_ZN3GUI10ListWidget15scrollToCurrentEv"
 - func[2826] <_ZN3GUI17GroupedListWidget15handleMouseDownEiiii> -> "_ZN3GUI17GroupedListWidget15handleMouseDownEiiii"
 - func[2858] <_ZNK3GUI10ListWidget8findItemEii> -> "_ZNK3GUI10ListWidget8findItemEii"
 - func[2827] <_ZN3GUI17GroupedListWidget11toggleGroupEi> -> "_ZN3GUI17GroupedListWidget11toggleGroupEi"
 - func[2828] <_ZN3GUI17GroupedListWidget13handleMouseUpEiiii> -> "_ZN3GUI17GroupedListWidget13handleMouseUpEiiii"
 - func[2829] <_ZN3GUI17GroupedListWidget16handleMouseWheelEiii> -> "_ZN3GUI17GroupedListWidget16handleMouseWheelEiii"
 - func[2830] <_ZN3GUI17GroupedListWidget13handleCommandEPNS_13CommandSenderEjj> -> "_ZN3GUI17GroupedListWidget13handleCommandEPNS_13CommandSenderEjj"
 - func[2831] <_ZN3GUI17GroupedListWidget10drawWidgetEv> -> "_ZN3GUI17GroupedListWidget10drawWidgetEv"
 - func[2869] <_ZN3GUI10ListWidget17drawFormattedTextERKN6Common4RectERKNS1_9U32StringENS_11ThemeEngine5StateEN8Graphics9TextAlignENS8_18TextInversionStateEibNS8_9FontColorE> -> "_ZN3GUI10ListWidget17drawFormattedTextERKN6Common4RectERKNS1_9U32StringENS_11ThemeEngine5StateEN8Graphics9TextAlignENS8_18TextInversionStateEibNS8_9FontColorE"
 - func[2833] <_ZN3GUI17GroupedListWidgetD2Ev> -> "_ZN3GUI17GroupedListWidgetD2Ev"
 - func[2834] <_ZN3GUI10ListWidgetD2Ev> -> "_ZN3GUI10ListWidgetD2Ev"
 - func[2835] <_ZN3GUI17GroupedListWidgetD0Ev> -> "_ZN3GUI17GroupedListWidgetD0Ev"
 - func[2836] <_ZN3GUI10ListWidget10wantsFocusEv> -> "_ZN3GUI10ListWidget10wantsFocusEv"
 - func[2837] <_ZN3GUI17GroupedListWidget13startEditModeEv> -> "_ZN3GUI17GroupedListWidget13startEditModeEv"
 - func[2838] <_ZThn212_N3GUI17GroupedListWidgetD1Ev> -> "_ZThn212_N3GUI17GroupedListWidgetD1Ev"
 - func[2839] <_ZThn212_N3GUI17GroupedListWidgetD0Ev> -> "_ZThn212_N3GUI17GroupedListWidgetD0Ev"
 - global[4536] -> "_ZTVN3GUI10ListWidgetE"
 - global[4537] -> "_ZTIN3GUI17GroupedListWidgetE"
 - func[2876] <_ZN3GUI10ListWidget12reflowLayoutEv> -> "_ZN3GUI10ListWidget12reflowLayoutEv"
 - func[2862] <_ZN3GUI10ListWidget15handleMouseLeftEi> -> "_ZN3GUI10ListWidget15handleMouseLeftEi"
 - func[2861] <_ZN3GUI10ListWidget16handleMouseMovedEiii> -> "_ZN3GUI10ListWidget16handleMouseMovedEiii"
 - func[2863] <_ZN3GUI10ListWidget13handleKeyDownEN6Common8KeyStateE> -> "_ZN3GUI10ListWidget13handleKeyDownEN6Common8KeyStateE"
 - func[2864] <_ZN3GUI10ListWidget11handleKeyUpEN6Common8KeyStateE> -> "_ZN3GUI10ListWidget11handleKeyUpEN6Common8KeyStateE"
 - func[2856] <_ZN3GUI10ListWidget12handleTickleEv> -> "_ZN3GUI10ListWidget12handleTickleEv"
 - func[2846] <_ZNK3GUI10ListWidget14containsWidgetEPNS_6WidgetE> -> "_ZNK3GUI10ListWidget14containsWidgetEPNS_6WidgetE"
 - func[2865] <_ZN3GUI10ListWidget19receivedFocusWidgetEv> -> "_ZN3GUI10ListWidget19receivedFocusWidgetEv"
 - func[2866] <_ZN3GUI10ListWidget15lostFocusWidgetEv> -> "_ZN3GUI10ListWidget15lostFocusWidgetEv"
 - func[2847] <_ZN3GUI10ListWidget10findWidgetEii> -> "_ZN3GUI10ListWidget10findWidgetEii"
 - func[2874] <_ZN3GUI10ListWidget11endEditModeEv> -> "_ZN3GUI10ListWidget11endEditModeEv"
 - func[2875] <_ZN3GUI10ListWidget13abortEditModeEv> -> "_ZN3GUI10ListWidget13abortEditModeEv"
 - func[2870] <_ZNK3GUI10ListWidget11getEditRectEv> -> "_ZNK3GUI10ListWidget11getEditRectEv"
 - func[2871] <_ZNK3GUI10ListWidget14getCaretOffsetEv> -> "_ZNK3GUI10ListWidget14getCaretOffsetEv"
 - global[4538] -> "_ZTSN3GUI17GroupedListWidgetE"
 - global[4539] -> "_ZTIN3GUI10ListWidgetE"
 - func[2840] <_ZN3GUI24ListWidgetDefaultMatcherEPviRKN6Common9U32StringES4_> -> "_ZN3GUI24ListWidgetDefaultMatcherEPviRKN6Common9U32StringES4_"
 - func[2842] <_ZN3GUI10ListWidgetC1EPNS_6DialogEiiiiRKN6Common9U32StringEj> -> "_ZN3GUI10ListWidgetC2EPNS_6DialogEiiiiRKN6Common9U32StringEj"
 - func[2843] <_ZN3GUI10ListWidget12copyListDataERKN6Common5ArrayINS1_9U32StringEEE> -> "_ZN3GUI10ListWidget12copyListDataERKN6Common5ArrayINS1_9U32StringEEE"
 - func[2844] <_ZN6Common5ArrayIN3GUI10ListWidget8ListDataEE10insert_auxEPS3_PKS3_S7_> -> "_ZN6Common5ArrayIN3GUI10ListWidget8ListDataEE10insert_auxEPS3_PKS3_S7_"
 - func[2853] <_ZN3GUI10ListWidget9setFilterERKN6Common9U32StringEb> -> "_ZN3GUI10ListWidget9setFilterERKN6Common9U32StringEb"
 - func[2857] <_ZN3GUI10ListWidget15handleMouseDownEiiii> -> "_ZN3GUI10ListWidget15handleMouseDownEiiii"
 - func[2859] <_ZN3GUI10ListWidget13handleMouseUpEiiii> -> "_ZN3GUI10ListWidget13handleMouseUpEiiii"
 - func[2860] <_ZN3GUI10ListWidget16handleMouseWheelEiii> -> "_ZN3GUI10ListWidget16handleMouseWheelEiii"
 - func[12531] <_ZN6Common7isPrintEi> -> "_ZN6Common7isPrintEi"
 - func[12203] <_ZN6Common6StringaSEc> -> "_ZN6Common6StringaSEc"
 - func[12253] <_Z17scumm_skipArticlePKc> -> "_Z17scumm_skipArticlePKc"
 - func[2867] <_ZN3GUI10ListWidget13handleCommandEPNS_13CommandSenderEjj> -> "_ZN3GUI10ListWidget13handleCommandEPNS_13CommandSenderEjj"
 - func[2868] <_ZN3GUI10ListWidget10drawWidgetEv> -> "_ZN3GUI10ListWidget10drawWidgetEv"
 - func[12507] <_ZNK6Common9U32StringeqEPKc> -> "_ZNK6Common9U32StringeqEPKc"
 - func[2873] <_ZN3GUI10ListWidget13startEditModeEv> -> "_ZN3GUI10ListWidget13startEditModeEv"
 - func[2877] <_ZN3GUI10ListWidget13getThemeColorEhhh> -> "_ZN3GUI10ListWidget13getThemeColorEhhh"
 - func[2879] <_ZN3GUI10ListWidget13getThemeColorERKN6Common9U32StringE> -> "_ZN3GUI10ListWidget13getThemeColorERKN6Common9U32StringE"
 - func[2881] <_ZN3GUI10ListWidgetD0Ev> -> "_ZN3GUI10ListWidgetD0Ev"
 - func[2882] <_ZThn212_N3GUI10ListWidgetD1Ev> -> "_ZThn212_N3GUI10ListWidgetD1Ev"
 - func[2883] <_ZThn212_N3GUI10ListWidgetD0Ev> -> "_ZThn212_N3GUI10ListWidgetD0Ev"
 - global[4540] -> "_ZTSN3GUI10ListWidgetE"
 - func[2842] <_ZN3GUI10ListWidgetC1EPNS_6DialogEiiiiRKN6Common9U32StringEj> -> "_ZN3GUI10ListWidgetC1EPNS_6DialogEiiiiRKN6Common9U32StringEj"
 - func[2884] <_ZN3GUI11PopUpDialogC2EPNS_6WidgetERKN6Common6StringEii> -> "_ZN3GUI11PopUpDialogC2EPNS_6WidgetERKN6Common6StringEii"
 - func[2885] <_ZN3GUI11PopUpDialog4openEv> -> "_ZN3GUI11PopUpDialog4openEv"
 - func[2886] <_ZN3GUI11PopUpDialog12reflowLayoutEv> -> "_ZN3GUI11PopUpDialog12reflowLayoutEv"
 - func[2887] <_ZN3GUI11PopUpDialog10drawDialogENS_9DrawLayerE> -> "_ZN3GUI11PopUpDialog10drawDialogENS_9DrawLayerE"
 - func[2888] <_ZN3GUI11PopUpDialog13drawMenuEntryEib> -> "_ZN3GUI11PopUpDialog13drawMenuEntryEib"
 - func[2889] <_ZN3GUI11PopUpDialog13handleMouseUpEiiii> -> "_ZN3GUI11PopUpDialog13handleMouseUpEiiii"
 - func[2890] <_ZNK3GUI11PopUpDialog8findItemEii> -> "_ZNK3GUI11PopUpDialog8findItemEii"
 - func[2891] <_ZN3GUI11PopUpDialog16handleMouseWheelEiii> -> "_ZN3GUI11PopUpDialog16handleMouseWheelEiii"
 - func[2892] <_ZN3GUI11PopUpDialog6moveUpEv> -> "_ZN3GUI11PopUpDialog6moveUpEv"
 - func[2893] <_ZN3GUI11PopUpDialog8moveDownEv> -> "_ZN3GUI11PopUpDialog8moveDownEv"
 - func[2894] <_ZN3GUI11PopUpDialog16handleMouseMovedEiii> -> "_ZN3GUI11PopUpDialog16handleMouseMovedEiii"
 - func[2895] <_ZN3GUI11PopUpDialog4readERKN6Common9U32StringE> -> "_ZN3GUI11PopUpDialog4readERKN6Common9U32StringE"
 - func[2896] <_ZN3GUI11PopUpDialog11isMouseDownEv> -> "_ZN3GUI11PopUpDialog11isMouseDownEv"
 - func[2897] <_ZN3GUI11PopUpDialog12setSelectionEi> -> "_ZN3GUI11PopUpDialog12setSelectionEi"
 - func[2898] <_ZN3GUI11PopUpDialog15handleMouseLeftEi> -> "_ZN3GUI11PopUpDialog15handleMouseLeftEi"
 - func[2899] <_ZN3GUI11PopUpDialog13handleKeyDownEN6Common8KeyStateE> -> "_ZN3GUI11PopUpDialog13handleKeyDownEN6Common8KeyStateE"
 - func[2903] <_ZN3GUI11PopUpDialog8setWidthEt> -> "_ZN3GUI11PopUpDialog8setWidthEt"
 - func[2905] <_ZN3GUI11PopUpDialog12clearEntriesEv> -> "_ZN3GUI11PopUpDialog12clearEntriesEv"
 - func[2906] <_ZN3GUI11PopUpWidgetC2EPNS_9GuiObjectERKN6Common6StringERKNS3_9U32StringEj> -> "_ZN3GUI11PopUpWidgetC2EPNS_9GuiObjectERKN6Common6StringERKNS3_9U32StringEj"
 - global[4541] -> "_ZTVN3GUI11PopUpWidgetE"
 - func[2907] <_ZN3GUI11PopUpWidgetC1EPNS_9GuiObjectEiiiiRKN6Common9U32StringEj> -> "_ZN3GUI11PopUpWidgetC2EPNS_9GuiObjectEiiiiRKN6Common9U32StringEj"
 - func[2908] <_ZN3GUI11PopUpWidget15handleMouseDownEiiii> -> "_ZN3GUI11PopUpWidget15handleMouseDownEiiii"
 - func[2909] <_ZN3GUI11PopUpDialogD2Ev> -> "_ZN3GUI11PopUpDialogD2Ev"
 - func[2910] <_ZN3GUI11PopUpWidget16handleMouseWheelEiii> -> "_ZN3GUI11PopUpWidget16handleMouseWheelEiii"
 - func[2911] <_ZN3GUI11PopUpWidget12reflowLayoutEv> -> "_ZN3GUI11PopUpWidget12reflowLayoutEv"
 - func[2913] <_ZN6Common5ArrayIN3GUI11PopUpWidget5EntryEE10insert_auxEPS3_PKS3_S7_> -> "_ZN6Common5ArrayIN3GUI11PopUpWidget5EntryEE10insert_auxEPS3_PKS3_S7_"
 - func[2918] <_ZN3GUI11PopUpWidget10drawWidgetEv> -> "_ZN3GUI11PopUpWidget10drawWidgetEv"
 - func[2919] <_ZN3GUI11PopUpDialogD0Ev> -> "_ZN3GUI11PopUpDialogD0Ev"
 - func[2920] <_ZN3GUI11PopUpWidgetD2Ev> -> "_ZN3GUI11PopUpWidgetD2Ev"
 - func[2921] <_ZN3GUI11PopUpWidgetD0Ev> -> "_ZN3GUI11PopUpWidgetD0Ev"
 - func[2922] <_ZN3GUI11PopUpWidget18handleMouseEnteredEi> -> "_ZN3GUI11PopUpWidget18handleMouseEnteredEi"
 - func[2923] <_ZN3GUI11PopUpWidget15handleMouseLeftEi> -> "_ZN3GUI11PopUpWidget15handleMouseLeftEi"
 - func[2924] <_ZThn212_N3GUI11PopUpWidgetD1Ev> -> "_ZThn212_N3GUI11PopUpWidgetD1Ev"
 - func[2925] <_ZThn212_N3GUI11PopUpWidgetD0Ev> -> "_ZThn212_N3GUI11PopUpWidgetD0Ev"
 - global[4542] -> "_ZTIN3GUI11PopUpDialogE"
 - global[4543] -> "_ZTIN3GUI11PopUpWidgetE"
 - global[4544] -> "_ZTSN3GUI11PopUpDialogE"
 - global[4545] -> "_ZTSN3GUI11PopUpWidgetE"
 - func[2907] <_ZN3GUI11PopUpWidgetC1EPNS_9GuiObjectEiiiiRKN6Common9U32StringEj> -> "_ZN3GUI11PopUpWidgetC1EPNS_9GuiObjectEiiiiRKN6Common9U32StringEj"
 - func[2926] <_ZN3GUI15ScrollBarWidgetC2EPNS_9GuiObjectEiiii> -> "_ZN3GUI15ScrollBarWidgetC2EPNS_9GuiObjectEiiii"
 - global[4546] -> "_ZTVN3GUI15ScrollBarWidgetE"
 - func[2927] <_ZN3GUI15ScrollBarWidget15handleMouseDownEiiii> -> "_ZN3GUI15ScrollBarWidget15handleMouseDownEiiii"
 - func[2929] <_ZN3GUI15ScrollBarWidget13handleMouseUpEiiii> -> "_ZN3GUI15ScrollBarWidget13handleMouseUpEiiii"
 - func[2930] <_ZN3GUI15ScrollBarWidget16handleMouseWheelEiii> -> "_ZN3GUI15ScrollBarWidget16handleMouseWheelEiii"
 - func[2931] <_ZN3GUI15ScrollBarWidget16handleMouseMovedEiii> -> "_ZN3GUI15ScrollBarWidget16handleMouseMovedEiii"
 - func[2932] <_ZN3GUI15ScrollBarWidget12handleTickleEv> -> "_ZN3GUI15ScrollBarWidget12handleTickleEv"
 - func[2934] <_ZN3GUI15ScrollBarWidget10drawWidgetEv> -> "_ZN3GUI15ScrollBarWidget10drawWidgetEv"
 - func[2935] <_ZN3GUI15ScrollBarWidgetD2Ev> -> "_ZN3GUI15ScrollBarWidgetD2Ev"
 - func[2936] <_ZN3GUI15ScrollBarWidgetD0Ev> -> "_ZN3GUI15ScrollBarWidgetD0Ev"
 - func[2937] <_ZN3GUI15ScrollBarWidget18handleMouseEnteredEi> -> "_ZN3GUI15ScrollBarWidget18handleMouseEnteredEi"
 - func[2938] <_ZN3GUI15ScrollBarWidget15handleMouseLeftEi> -> "_ZN3GUI15ScrollBarWidget15handleMouseLeftEi"
 - func[2939] <_ZN3GUI15ScrollBarWidget10wantsFocusEv> -> "_ZN3GUI15ScrollBarWidget10wantsFocusEv"
 - func[2940] <_ZThn212_N3GUI15ScrollBarWidgetD1Ev> -> "_ZThn212_N3GUI15ScrollBarWidgetD1Ev"
 - func[2941] <_ZThn212_N3GUI15ScrollBarWidgetD0Ev> -> "_ZThn212_N3GUI15ScrollBarWidgetD0Ev"
 - global[4547] -> "_ZTIN3GUI15ScrollBarWidgetE"
 - global[4548] -> "_ZTSN3GUI15ScrollBarWidgetE"
 - func[2942] <_ZN3GUI21ScrollContainerWidgetC1EPNS_9GuiObjectEiiiij> -> "_ZN3GUI21ScrollContainerWidgetC2EPNS_9GuiObjectEiiiij"
 - global[4549] -> "_ZTVN3GUI21ScrollContainerWidgetE"
 - func[2943] <_ZN3GUI21ScrollContainerWidget6recalcEv> -> "_ZN3GUI21ScrollContainerWidget6recalcEv"
 - func[2944] <_ZN3GUI21ScrollContainerWidget4initEv> -> "_ZN3GUI21ScrollContainerWidget4initEv"
 - func[2945] <_ZN3GUI21ScrollContainerWidgetC2EPNS_9GuiObjectERKN6Common6StringES6_j> -> "_ZN3GUI21ScrollContainerWidgetC2EPNS_9GuiObjectERKN6Common6StringES6_j"
 - func[2946] <_ZN3GUI21ScrollContainerWidget16handleMouseWheelEiii> -> "_ZN3GUI21ScrollContainerWidget16handleMouseWheelEiii"
 - func[2947] <_ZN3GUI21ScrollContainerWidgetD1Ev> -> "_ZN3GUI21ScrollContainerWidgetD2Ev"
 - func[2948] <_ZThn212_N3GUI21ScrollContainerWidgetD1Ev> -> "_ZThn212_N3GUI21ScrollContainerWidgetD1Ev"
 - func[2947] <_ZN3GUI21ScrollContainerWidgetD1Ev> -> "_ZN3GUI21ScrollContainerWidgetD1Ev"
 - func[2949] <_ZN3GUI21ScrollContainerWidgetD0Ev> -> "_ZN3GUI21ScrollContainerWidgetD0Ev"
 - func[2950] <_ZThn212_N3GUI21ScrollContainerWidgetD0Ev> -> "_ZThn212_N3GUI21ScrollContainerWidgetD0Ev"
 - func[2951] <_ZNK3GUI21ScrollContainerWidget9getChildXEv> -> "_ZNK3GUI21ScrollContainerWidget9getChildXEv"
 - func[2952] <_ZNK3GUI21ScrollContainerWidget9getChildYEv> -> "_ZNK3GUI21ScrollContainerWidget9getChildYEv"
 - func[2953] <_ZNK3GUI21ScrollContainerWidget8getWidthEv> -> "_ZNK3GUI21ScrollContainerWidget8getWidthEv"
 - func[2954] <_ZNK3GUI21ScrollContainerWidget9getHeightEv> -> "_ZNK3GUI21ScrollContainerWidget9getHeightEv"
 - func[2955] <_ZN3GUI21ScrollContainerWidget13handleCommandEPNS_13CommandSenderEjj> -> "_ZN3GUI21ScrollContainerWidget13handleCommandEPNS_13CommandSenderEjj"
 - func[2956] <_ZN3GUI21ScrollContainerWidget12reflowLayoutEv> -> "_ZN3GUI21ScrollContainerWidget12reflowLayoutEv"
 - func[2957] <_ZN3GUI21ScrollContainerWidget10drawWidgetEv> -> "_ZN3GUI21ScrollContainerWidget10drawWidgetEv"
 - func[2958] <_ZNK3GUI21ScrollContainerWidget14containsWidgetEPNS_6WidgetE> -> "_ZNK3GUI21ScrollContainerWidget14containsWidgetEPNS_6WidgetE"
 - func[2959] <_ZN3GUI21ScrollContainerWidget10findWidgetEii> -> "_ZN3GUI21ScrollContainerWidget10findWidgetEii"
 - func[2960] <_ZNK3GUI21ScrollContainerWidget11getClipRectEv> -> "_ZNK3GUI21ScrollContainerWidget11getClipRectEv"
 - global[4550] -> "_ZTIN3GUI21ScrollContainerWidgetE"
 - global[4551] -> "_ZTSN3GUI21ScrollContainerWidgetE"
 - func[2942] <_ZN3GUI21ScrollContainerWidgetC1EPNS_9GuiObjectEiiiij> -> "_ZN3GUI21ScrollContainerWidgetC1EPNS_9GuiObjectEiiiij"
 - func[2962] <_ZN3GUI9TabWidget6recalcEv> -> "_ZN3GUI9TabWidget6recalcEv"
 - func[2963] <_ZN3GUI9TabWidgetC1EPNS_9GuiObjectEiiii> -> "_ZN3GUI9TabWidgetC2EPNS_9GuiObjectEiiii"
 - global[4552] -> "_ZTVN3GUI9TabWidgetE"
 - func[2964] <_ZN3GUI9TabWidget4initEv> -> "_ZN3GUI9TabWidget4initEv"
 - func[2965] <_ZN3GUI9TabWidgetC2EPNS_9GuiObjectERKN6Common6StringE> -> "_ZN3GUI9TabWidgetC2EPNS_9GuiObjectERKN6Common6StringE"
 - func[2966] <_ZN3GUI9TabWidgetD1Ev> -> "_ZN3GUI9TabWidgetD2Ev"
 - func[2967] <_ZN3GUI9TabWidgetD0Ev> -> "_ZN3GUI9TabWidgetD0Ev"
 - func[2966] <_ZN3GUI9TabWidgetD1Ev> -> "_ZN3GUI9TabWidgetD1Ev"
 - func[2968] <_ZNK3GUI9TabWidget9getChildYEv> -> "_ZNK3GUI9TabWidget9getChildYEv"
 - func[2969] <_ZNK3GUI9TabWidget9getHeightEv> -> "_ZNK3GUI9TabWidget9getHeightEv"
 - func[2971] <_ZN6Common5ArrayIN3GUI9TabWidget3TabEE10insert_auxEPS3_PKS3_S7_> -> "_ZN6Common5ArrayIN3GUI9TabWidget3TabEE10insert_auxEPS3_PKS3_S7_"
 - func[2973] <_ZN3GUI9TabWidget8addChildEPNS_6WidgetE> -> "_ZN3GUI9TabWidget8addChildEPNS_6WidgetE"
 - func[2974] <_ZN3GUI9TabWidget12removeWidgetEPNS_6WidgetE> -> "_ZN3GUI9TabWidget12removeWidgetEPNS_6WidgetE"
 - func[2976] <_ZN6Common5ArrayIN3GUI9TabWidget3TabEE9remove_atEj> -> "_ZN6Common5ArrayIN3GUI9TabWidget3TabEE9remove_atEj"
 - func[2977] <_ZN3GUI9TabWidget13handleCommandEPNS_13CommandSenderEjj> -> "_ZN3GUI9TabWidget13handleCommandEPNS_13CommandSenderEjj"
 - func[2978] <_ZN3GUI9TabWidget15handleMouseDownEiiii> -> "_ZN3GUI9TabWidget15handleMouseDownEiiii"
 - func[2979] <_ZN3GUI9TabWidget16handleMouseMovedEiii> -> "_ZN3GUI9TabWidget16handleMouseMovedEiii"
 - func[2980] <_ZN3GUI9TabWidget13handleKeyDownEN6Common8KeyStateE> -> "_ZN3GUI9TabWidget13handleKeyDownEN6Common8KeyStateE"
 - func[2981] <_ZN3GUI9TabWidget16handleMouseWheelEiii> -> "_ZN3GUI9TabWidget16handleMouseWheelEiii"
 - func[2982] <_ZN3GUI9TabWidget10adjustTabsEi> -> "_ZN3GUI9TabWidget10adjustTabsEi"
 - func[2983] <_ZNK3GUI9TabWidget15getFirstVisibleEv> -> "_ZNK3GUI9TabWidget15getFirstVisibleEv"
 - func[2984] <_ZN3GUI9TabWidget15setFirstVisibleEib> -> "_ZN3GUI9TabWidget15setFirstVisibleEib"
 - func[2985] <_ZN3GUI9TabWidget12reflowLayoutEv> -> "_ZN3GUI9TabWidget12reflowLayoutEv"
 - func[2986] <_ZN3GUI9TabWidget10drawWidgetEv> -> "_ZN3GUI9TabWidget10drawWidgetEv"
 - func[2987] <_ZN3GUI9TabWidget4drawEv> -> "_ZN3GUI9TabWidget4drawEv"
 - func[2988] <_ZN3GUI9TabWidget11markAsDirtyEv> -> "_ZN3GUI9TabWidget11markAsDirtyEv"
 - func[2989] <_ZNK3GUI9TabWidget14containsWidgetEPNS_6WidgetE> -> "_ZNK3GUI9TabWidget14containsWidgetEPNS_6WidgetE"
 - func[2990] <_ZN3GUI9TabWidget10findWidgetEii> -> "_ZN3GUI9TabWidget10findWidgetEii"
 - func[2991] <_ZN3GUI9TabWidget21computeLastVisibleTabEb> -> "_ZN3GUI9TabWidget21computeLastVisibleTabEb"
 - func[2992] <_ZN3GUI9TabWidget15handleMouseLeftEi> -> "_ZN3GUI9TabWidget15handleMouseLeftEi"
 - global[4553] -> "_ZTIN3GUI9TabWidgetE"
 - global[4554] -> "_ZTSN3GUI9TabWidgetE"
 - func[2963] <_ZN3GUI9TabWidgetC1EPNS_9GuiObjectEiiii> -> "_ZN3GUI9TabWidgetC1EPNS_9GuiObjectEiiii"
 - func[12403] <_ZN7OSystem11initBackendEv> -> "_ZN7OSystem11initBackendEv"
 - func[2997] <_ZN17EventsBaseBackend11initBackendEv> -> "_ZN17EventsBaseBackend11initBackendEv"
 - func[2998] <_ZTv0_n20_N17EventsBaseBackend11initBackendEv> -> "_ZTv0_n20_N17EventsBaseBackend11initBackendEv"
 - func[2999] <_ZN11BaseBackendD0Ev> -> "_ZN11BaseBackendD0Ev"
 - func[3000] <_ZN17EventsBaseBackendD1Ev> -> "_ZN17EventsBaseBackendD1Ev"
 - func[3001] <_ZN17EventsBaseBackendD0Ev> -> "_ZN17EventsBaseBackendD0Ev"
 - func[3002] <_ZNK6Common11EventSource12allowMappingEv> -> "_ZNK6Common11EventSource12allowMappingEv"
 - func[3003] <_ZTv0_n12_N17EventsBaseBackendD1Ev> -> "_ZTv0_n12_N17EventsBaseBackendD1Ev"
 - func[3004] <_ZTv0_n12_N17EventsBaseBackendD0Ev> -> "_ZTv0_n12_N17EventsBaseBackendD0Ev"
 - global[4555] -> "_ZTI11BaseBackend"
 - global[4556] -> "_ZTS11BaseBackend"
 - global[4557] -> "_ZTI7OSystem"
 - global[4558] -> "_ZTV17EventsBaseBackend"
 - global[4559] -> "_ZTI17EventsBaseBackend"
 - global[4560] -> "_ZTT17EventsBaseBackend"
 - global[4561] -> "_ZTS17EventsBaseBackend"
 - global[4562] -> "_ZTIN6Common11EventSourceE"
 - func[3017] <_ZN22ModularGraphicsBackend18getGraphicsManagerEv> -> "_ZN22ModularGraphicsBackend18getGraphicsManagerEv"
 - global[4563] -> "_ZTV22ModularGraphicsBackend"
 - global[4564] -> "_ZTT22ModularGraphicsBackend"
 - global[4565] -> "_ZTS22ModularGraphicsBackend"
 - global[4566] -> "_ZTV19ModularMixerBackend"
 - global[4567] -> "_ZTT19ModularMixerBackend"
 - global[4568] -> "_ZTS19ModularMixerBackend"
 - func[3127] <_ZN13AudioCDStreamC2Ev> -> "_ZN13AudioCDStreamC2Ev"
 - func[3128] <_ZN13AudioCDStreamD2Ev> -> "_ZN13AudioCDStreamD2Ev"
 - func[3129] <_ZN13AudioCDStream9timerProcEPv> -> "_ZN13AudioCDStream9timerProcEPv"
 - func[3130] <_ZN13AudioCDStream9stopTimerEv> -> "_ZN13AudioCDStream9stopTimerEv"
 - func[3131] <_ZN13AudioCDStream10emptyQueueEv> -> "_ZN13AudioCDStream10emptyQueueEv"
 - func[3132] <_ZN13AudioCDStreamD1Ev> -> "_ZN13AudioCDStreamD1Ev"
 - func[3133] <_ZTv0_n12_N13AudioCDStreamD1Ev> -> "_ZTv0_n12_N13AudioCDStreamD1Ev"
 - func[3134] <_ZN13AudioCDStreamD0Ev> -> "_ZN13AudioCDStreamD0Ev"
 - func[3135] <_ZTv0_n12_N13AudioCDStreamD0Ev> -> "_ZTv0_n12_N13AudioCDStreamD0Ev"
 - func[3136] <_ZN13AudioCDStream10readBufferEPsi> -> "_ZN13AudioCDStream10readBufferEPsi"
 - func[3137] <_ZN13AudioCDStream13readNextFrameEv> -> "_ZN13AudioCDStream13readNextFrameEv"
 - func[3138] <_ZTv0_n16_N13AudioCDStream10readBufferEPsi> -> "_ZTv0_n16_N13AudioCDStream10readBufferEPsi"
 - func[3139] <_ZNK13AudioCDStream9endOfDataEv> -> "_ZNK13AudioCDStream9endOfDataEv"
 - func[3140] <_ZNK13AudioCDStream15shouldForceStopEv> -> "_ZNK13AudioCDStream15shouldForceStopEv"
 - func[3141] <_ZTv0_n28_NK13AudioCDStream9endOfDataEv> -> "_ZTv0_n28_NK13AudioCDStream9endOfDataEv"
 - func[3142] <_ZN13AudioCDStream4seekERKN5Audio9TimestampE> -> "_ZN13AudioCDStream4seekERKN5Audio9TimestampE"
 - func[9739] <_ZNK5Audio9Timestamp18convertToFramerateEj> -> "_ZNK5Audio9Timestamp18convertToFramerateEj"
 - func[3143] <_ZN13AudioCDStream10startTimerEb> -> "_ZN13AudioCDStream10startTimerEb"
 - func[3144] <_ZN13AudioCDStream7onTimerEv> -> "_ZN13AudioCDStream7onTimerEv"
 - func[3145] <_ZNK13AudioCDStream9getLengthEv> -> "_ZNK13AudioCDStream9getLengthEv"
 - func[9738] <_ZN5Audio9TimestampC2Ejjj> -> "_ZN5Audio9TimestampC1Ejjj"
 - func[3146] <_ZN13AudioCDStream9forceStopEv> -> "_ZN13AudioCDStream9forceStopEv"
 - func[3147] <_ZN5Audio19SeekableAudioStreamD1Ev> -> "_ZN5Audio19SeekableAudioStreamD1Ev"
 - func[3148] <_ZN5Audio19SeekableAudioStreamD0Ev> -> "_ZN5Audio19SeekableAudioStreamD0Ev"
 - func[3149] <_ZNK5Audio11AudioStream11endOfStreamEv> -> "_ZNK5Audio11AudioStream11endOfStreamEv"
 - func[3150] <_ZN5Audio19SeekableAudioStream6rewindEv> -> "_ZN5Audio19SeekableAudioStream6rewindEv"
 - func[9737] <_ZN5Audio9TimestampC2Ejj> -> "_ZN5Audio9TimestampC1Ejj"
 - func[3151] <_ZN5Audio21RewindableAudioStreamD1Ev> -> "_ZN5Audio21RewindableAudioStreamD1Ev"
 - func[3152] <_ZN5Audio21RewindableAudioStreamD0Ev> -> "_ZN5Audio21RewindableAudioStreamD0Ev"
 - func[3153] <_ZNK13AudioCDStream8isStereoEv> -> "_ZNK13AudioCDStream8isStereoEv"
 - func[3154] <_ZNK13AudioCDStream7getRateEv> -> "_ZNK13AudioCDStream7getRateEv"
 - global[4569] -> "_ZTV13AudioCDStream"
 - global[4570] -> "_ZTI13AudioCDStream"
 - global[4571] -> "_ZTT13AudioCDStream"
 - global[4572] -> "_ZTC13AudioCDStream0_N5Audio19SeekableAudioStreamE"
 - global[4573] -> "_ZTC13AudioCDStream0_N5Audio21RewindableAudioStreamE"
 - global[4574] -> "_ZTIN5Audio19SeekableAudioStreamE"
 - global[4575] -> "_ZTSN5Audio19SeekableAudioStreamE"
 - global[4576] -> "_ZTSN5Audio21RewindableAudioStreamE"
 - global[4577] -> "_ZTSN5Audio11AudioStreamE"
 - global[4578] -> "_ZTIN5Audio11AudioStreamE"
 - global[4579] -> "_ZTIN5Audio21RewindableAudioStreamE"
 - global[4580] -> "_ZTS13AudioCDStream"
 - func[3155] <_ZN21DefaultAudioCDManagerC2Ev> -> "_ZN21DefaultAudioCDManagerC2Ev"
 - global[4581] -> "_ZTV21DefaultAudioCDManager"
 - func[3156] <_ZN21DefaultAudioCDManagerD1Ev> -> "_ZN21DefaultAudioCDManagerD2Ev"
 - func[3157] <_ZN21DefaultAudioCDManagerD0Ev> -> "_ZN21DefaultAudioCDManagerD0Ev"
 - func[3156] <_ZN21DefaultAudioCDManagerD1Ev> -> "_ZN21DefaultAudioCDManagerD1Ev"
 - func[3158] <_ZN21DefaultAudioCDManager4openEv> -> "_ZN21DefaultAudioCDManager4openEv"
 - func[3159] <_ZN21DefaultAudioCDManager5closeEv> -> "_ZN21DefaultAudioCDManager5closeEv"
 - func[3160] <_ZNK21DefaultAudioCDManager23fillPotentialTrackNamesERN6Common5ArrayINS0_6StringEEEi> -> "_ZNK21DefaultAudioCDManager23fillPotentialTrackNamesERN6Common5ArrayINS0_6StringEEEi"
 - func[3161] <_ZN21DefaultAudioCDManager26existExtractedCDAudioFilesEj> -> "_ZN21DefaultAudioCDManager26existExtractedCDAudioFilesEj"
 - func[3162] <_ZN21DefaultAudioCDManager4playEiiiibN5Audio5Mixer9SoundTypeE> -> "_ZN21DefaultAudioCDManager4playEiiiibN5Audio5Mixer9SoundTypeE"
 - func[9126] <_ZN5Audio19SeekableAudioStream14openStreamFileERKN6Common6StringE> -> "_ZN5Audio19SeekableAudioStream14openStreamFileERKN6Common6StringE"
 - func[9138] <_ZN5Audio22makeLoopingAudioStreamEPNS_19SeekableAudioStreamENS_9TimestampES2_j> -> "_ZN5Audio22makeLoopingAudioStreamEPNS_19SeekableAudioStreamENS_9TimestampES2_j"
 - func[3163] <_ZN21DefaultAudioCDManager4stopEv> -> "_ZN21DefaultAudioCDManager4stopEv"
 - func[3164] <_ZNK21DefaultAudioCDManager9isPlayingEv> -> "_ZNK21DefaultAudioCDManager9isPlayingEv"
 - func[3165] <_ZN21DefaultAudioCDManager9setVolumeEh> -> "_ZN21DefaultAudioCDManager9setVolumeEh"
 - func[3166] <_ZN21DefaultAudioCDManager10setBalanceEa> -> "_ZN21DefaultAudioCDManager10setBalanceEa"
 - func[3167] <_ZN21DefaultAudioCDManager6updateEv> -> "_ZN21DefaultAudioCDManager6updateEv"
 - func[3168] <_ZNK21DefaultAudioCDManager9getStatusEv> -> "_ZNK21DefaultAudioCDManager9getStatusEv"
 - func[3169] <_ZN21DefaultAudioCDManager10openRealCDEv> -> "_ZN21DefaultAudioCDManager10openRealCDEv"
 - func[3170] <_ZN21DefaultAudioCDManager30isDataAndCDAudioReadFromSameCDEv> -> "_ZN21DefaultAudioCDManager30isDataAndCDAudioReadFromSameCDEv"
 - func[3171] <_ZN21DefaultAudioCDManager6openCDEi> -> "_ZN21DefaultAudioCDManager6openCDEi"
 - func[3172] <_ZN21DefaultAudioCDManager6openCDERKN6Common6StringE> -> "_ZN21DefaultAudioCDManager6openCDERKN6Common6StringE"
 - global[4582] -> "_ZTI21DefaultAudioCDManager"
 - global[4583] -> "_ZTS21DefaultAudioCDManager"
 - global[4584] -> "_ZTS14AudioCDManager"
 - global[4585] -> "_ZTI14AudioCDManager"
 - func[3173] <_ZN19DefaultEventManagerC2EPN6Common11EventSourceE> -> "_ZN19DefaultEventManagerC2EPN6Common11EventSourceE"
 - global[4586] -> "_ZTVN6Common12EventManagerE"
 - func[11889] <_ZN6Common15EventDispatcherC2Ev> -> "_ZN6Common15EventDispatcherC1Ev"
 - global[4587] -> "_ZTVN6Common21ArtificialEventSourceE"
 - global[4588] -> "_ZTV19DefaultEventManager"
 - func[11897] <_ZN6Common15EventDispatcher14registerSourceEPNS_11EventSourceEb> -> "_ZN6Common15EventDispatcher14registerSourceEPNS_11EventSourceEb"
 - func[11900] <_ZN6Common15EventDispatcher16registerObserverEPNS_13EventObserverEjbb> -> "_ZN6Common15EventDispatcher16registerObserverEPNS_13EventObserverEjbb"
 - func[3355] <_ZN6Common12VirtualMouseC2EPNS_15EventDispatcherE> -> "_ZN6Common12VirtualMouseC1EPNS_15EventDispatcherE"
 - func[3308] <_ZN6Common9KeymapperC2EPNS_12EventManagerE> -> "_ZN6Common9KeymapperC1EPNS_12EventManagerE"
 - func[11895] <_ZN6Common15EventDispatcher14registerMapperEPNS_11EventMapperEb> -> "_ZN6Common15EventDispatcher14registerMapperEPNS_11EventMapperEb"
 - func[3174] <_ZN19DefaultEventManagerD1Ev> -> "_ZN19DefaultEventManagerD2Ev"
 - func[11904] <_ZN6Common11EventSourceD1Ev> -> "_ZN6Common11EventSourceD2Ev"
 - func[11883] <_ZN6Common13EventObserverD1Ev> -> "_ZN6Common13EventObserverD2Ev"
 - func[11887] <_ZN6Common12EventManagerD1Ev> -> "_ZN6Common12EventManagerD2Ev"
 - func[3175] <_ZN6Common21ArtificialEventSourceD2Ev> -> "_ZN6Common21ArtificialEventSourceD2Ev"
 - func[3176] <_ZThn28_N19DefaultEventManagerD1Ev> -> "_ZThn28_N19DefaultEventManagerD1Ev"
 - func[3174] <_ZN19DefaultEventManagerD1Ev> -> "_ZN19DefaultEventManagerD1Ev"
 - func[3177] <_ZN19DefaultEventManagerD0Ev> -> "_ZN19DefaultEventManagerD0Ev"
 - func[3178] <_ZThn28_N19DefaultEventManagerD0Ev> -> "_ZThn28_N19DefaultEventManagerD0Ev"
 - func[3179] <_ZN19DefaultEventManager4initEv> -> "_ZN19DefaultEventManager4initEv"
 - func[3180] <_ZN19DefaultEventManager9pollEventERN6Common5EventE> -> "_ZN19DefaultEventManager9pollEventERN6Common5EventE"
 - func[11891] <_ZN6Common15EventDispatcher8dispatchEv> -> "_ZN6Common15EventDispatcher8dispatchEv"
 - func[3181] <_ZN19DefaultEventManager9pushEventERKN6Common5EventE> -> "_ZN19DefaultEventManager9pushEventERKN6Common5EventE"
 - func[3182] <_ZN19DefaultEventManager16purgeMouseEventsEv> -> "_ZN19DefaultEventManager16purgeMouseEventsEv"
 - func[3183] <_ZN6Common4ListINS_5EventEEaSERKS2_> -> "_ZN6Common4ListINS_5EventEEaSERKS2_"
 - func[3184] <_ZN19DefaultEventManager19purgeKeyboardEventsEv> -> "_ZN19DefaultEventManager19purgeKeyboardEventsEv"
 - func[3185] <_ZN19DefaultEventManager15getGlobalKeymapEv> -> "_ZN19DefaultEventManager15getGlobalKeymapEv"
 - func[3365] <_ZN6Common12VirtualMouse18addActionsToKeymapEPNS_6KeymapE> -> "_ZN6Common12VirtualMouse18addActionsToKeymapEPNS_6KeymapE"
 - func[3186] <_ZNK19DefaultEventManager11getMousePosEv> -> "_ZNK19DefaultEventManager11getMousePosEv"
 - func[3187] <_ZNK19DefaultEventManager14getButtonStateEv> -> "_ZNK19DefaultEventManager14getButtonStateEv"
 - func[3188] <_ZNK19DefaultEventManager16getModifierStateEv> -> "_ZNK19DefaultEventManager16getModifierStateEv"
 - func[3189] <_ZNK19DefaultEventManager10shouldQuitEv> -> "_ZNK19DefaultEventManager10shouldQuitEv"
 - func[3190] <_ZNK19DefaultEventManager22shouldReturnToLauncherEv> -> "_ZNK19DefaultEventManager22shouldReturnToLauncherEv"
 - func[3191] <_ZN19DefaultEventManager21resetReturnToLauncherEv> -> "_ZN19DefaultEventManager21resetReturnToLauncherEv"
 - func[3192] <_ZN19DefaultEventManager9resetQuitEv> -> "_ZN19DefaultEventManager9resetQuitEv"
 - func[3193] <_ZN19DefaultEventManager12getKeymapperEv> -> "_ZN19DefaultEventManager12getKeymapperEv"
 - func[3194] <_ZN19DefaultEventManager11notifyEventERKN6Common5EventE> -> "_ZN19DefaultEventManager11notifyEventERKN6Common5EventE"
 - func[3195] <_ZThn28_N19DefaultEventManager11notifyEventERKN6Common5EventE> -> "_ZThn28_N19DefaultEventManager11notifyEventERKN6Common5EventE"
 - func[3196] <_ZN6Common13EventObserver10notifyPollEv> -> "_ZN6Common13EventObserver10notifyPollEv"
 - func[3197] <_ZN6Common21ArtificialEventSourceD0Ev> -> "_ZN6Common21ArtificialEventSourceD0Ev"
 - func[3198] <_ZN6Common21ArtificialEventSource9pollEventERNS_5EventE> -> "_ZN6Common21ArtificialEventSource9pollEventERNS_5EventE"
 - func[3199] <_ZNK6Common21ArtificialEventSource12allowMappingEv> -> "_ZNK6Common21ArtificialEventSource12allowMappingEv"
 - global[4589] -> "_ZTI19DefaultEventManager"
 - global[4590] -> "_ZTS19DefaultEventManager"
 - global[4591] -> "_ZTIN6Common12EventManagerE"
 - global[4592] -> "_ZTIN6Common13EventObserverE"
 - global[4593] -> "_ZTIN6Common21ArtificialEventSourceE"
 - global[4594] -> "_ZTSN6Common21ArtificialEventSourceE"
 - func[3200] <_ZN14AbstractFSNode17lastPathComponentERKN6Common6StringEc> -> "_ZN14AbstractFSNode17lastPathComponentERKN6Common6StringEc"
 - func[3201] <_ZN11StdioStreamC2EPv> -> "_ZN11StdioStreamC2EPv"
 - func[3202] <_ZN11StdioStreamC1EPv> -> "_ZN11StdioStreamC1EPv"
 - global[4595] -> "_ZTV11StdioStream"
 - func[3203] <_ZN11StdioStreamD2Ev> -> "_ZN11StdioStreamD2Ev"
 - func[18695] <fclose> -> "fclose"
 - func[3204] <_ZN11StdioStreamD1Ev> -> "_ZN11StdioStreamD1Ev"
 - func[3205] <_ZTv0_n12_N11StdioStreamD1Ev> -> "_ZTv0_n12_N11StdioStreamD1Ev"
 - func[3206] <_ZThn4_N11StdioStreamD1Ev> -> "_ZThn4_N11StdioStreamD1Ev"
 - func[3207] <_ZN11StdioStreamD0Ev> -> "_ZN11StdioStreamD0Ev"
 - func[3208] <_ZTv0_n12_N11StdioStreamD0Ev> -> "_ZTv0_n12_N11StdioStreamD0Ev"
 - func[3209] <_ZThn4_N11StdioStreamD0Ev> -> "_ZThn4_N11StdioStreamD0Ev"
 - func[3210] <_ZNK11StdioStream3errEv> -> "_ZNK11StdioStream3errEv"
 - func[18715] <_IO_ferror_unlocked> -> "ferror"
 - func[3211] <_ZTv0_n16_NK11StdioStream3errEv> -> "_ZTv0_n16_NK11StdioStream3errEv"
 - func[3212] <_ZN11StdioStream8clearErrEv> -> "_ZN11StdioStream8clearErrEv"
 - func[18395] <clearerr_unlocked> -> "clearerr"
 - func[3213] <_ZTv0_n20_N11StdioStream8clearErrEv> -> "_ZTv0_n20_N11StdioStream8clearErrEv"
 - func[3214] <_ZNK11StdioStream3eosEv> -> "_ZNK11StdioStream3eosEv"
 - func[18714] <_IO_feof_unlocked> -> "feof"
 - func[3215] <_ZTv0_n28_NK11StdioStream3eosEv> -> "_ZTv0_n28_NK11StdioStream3eosEv"
 - func[25990] <_ZNK11StdioStream3posEv> -> "_ZNK11StdioStream3posEv"
 - func[25991] <ftello64> -> "ftello"
 - func[25992] <_ZThn4_NK11StdioStream3posEv> -> "_ZThn4_NK11StdioStream3posEv"
 - func[25993] <_ZNK11StdioStream4sizeEv> -> "_ZNK11StdioStream4sizeEv"
 - func[25994] <fseeko64> -> "fseeko"
 - func[25995] <_ZThn4_NK11StdioStream4sizeEv> -> "_ZThn4_NK11StdioStream4sizeEv"
 - func[25996] <_ZN11StdioStream4seekExi> -> "_ZN11StdioStream4seekExi"
 - func[25997] <_ZThn4_N11StdioStream4seekExi> -> "_ZThn4_N11StdioStream4seekExi"
 - func[3222] <_ZN11StdioStream4readEPvj> -> "_ZN11StdioStream4readEPvj"
 - func[18812] <fread_unlocked> -> "fread"
 - func[3223] <_ZTv0_n32_N11StdioStream4readEPvj> -> "_ZTv0_n32_N11StdioStream4readEPvj"
 - func[3224] <_ZN11StdioStream13setBufferSizeEj> -> "_ZN11StdioStream13setBufferSizeEj"
 - func[19606] <setvbuf> -> "setvbuf"
 - func[3225] <_ZN11StdioStream5writeEPKvj> -> "_ZN11StdioStream5writeEPKvj"
 - func[18841] <fwrite_unlocked> -> "fwrite"
 - func[3226] <_ZThn4_N11StdioStream5writeEPKvj> -> "_ZThn4_N11StdioStream5writeEPKvj"
 - func[3227] <_ZN11StdioStream5flushEv> -> "_ZN11StdioStream5flushEv"
 - func[3228] <_ZThn4_N11StdioStream5flushEv> -> "_ZThn4_N11StdioStream5flushEv"
 - func[3229] <_ZN11StdioStream12makeFromPathERKN6Common6StringEb> -> "_ZN11StdioStream12makeFromPathERKN6Common6StringEb"
 - func[18791] <fopen64> -> "fopen"
 - func[3230] <_ZN6Common19SeekableWriteStreamD1Ev> -> "_ZN6Common19SeekableWriteStreamD1Ev"
 - func[3231] <_ZN6Common19SeekableWriteStreamD0Ev> -> "_ZN6Common19SeekableWriteStreamD0Ev"
 - func[3232] <_ZTv0_n12_N6Common19SeekableWriteStreamD1Ev> -> "_ZTv0_n12_N6Common19SeekableWriteStreamD1Ev"
 - func[3233] <_ZTv0_n12_N6Common19SeekableWriteStreamD0Ev> -> "_ZTv0_n12_N6Common19SeekableWriteStreamD0Ev"
 - func[3234] <_ZN6Common11WriteStreamD1Ev> -> "_ZN6Common11WriteStreamD1Ev"
 - func[3235] <_ZN6Common11WriteStreamD0Ev> -> "_ZN6Common11WriteStreamD0Ev"
 - func[3236] <_ZTv0_n12_N6Common11WriteStreamD1Ev> -> "_ZTv0_n12_N6Common11WriteStreamD1Ev"
 - func[3237] <_ZTv0_n12_N6Common11WriteStreamD0Ev> -> "_ZTv0_n12_N6Common11WriteStreamD0Ev"
 - global[4596] -> "_ZTI11StdioStream"
 - global[4597] -> "_ZTT11StdioStream"
 - global[4598] -> "_ZTC11StdioStream0_N6Common18SeekableReadStreamE"
 - global[4599] -> "_ZTC11StdioStream4_N6Common19SeekableWriteStreamE"
 - global[4600] -> "_ZTC11StdioStream4_N6Common11WriteStreamE"
 - global[4601] -> "_ZTC11StdioStream0_N6Common10ReadStreamE"
 - global[4602] -> "_ZTS11StdioStream"
 - func[3238] <_ZN6Common6ActionC2EPKcRKNS_9U32StringE> -> "_ZN6Common6ActionC2EPKcRKNS_9U32StringE"
 - func[3240] <_ZN6Common16HardwareInputSetD0Ev> -> "_ZN6Common16HardwareInputSetD0Ev"
 - func[3241] <_ZN6Common24KeyboardHardwareInputSetC2EPKNS_13KeyTableEntryEPKNS_18ModifierTableEntryE> -> "_ZN6Common24KeyboardHardwareInputSetC2EPKNS_13KeyTableEntryEPKNS_18ModifierTableEntryE"
 - global[4603] -> "_ZTVN6Common24KeyboardHardwareInputSetE"
 - func[3242] <_ZNK6Common24KeyboardHardwareInputSet17findHardwareInputERKNS_6StringE> -> "_ZNK6Common24KeyboardHardwareInputSet17findHardwareInputERKNS_6StringE"
 - func[3243] <_ZNK6Common24KeyboardHardwareInputSet17findHardwareInputERKNS_5EventE> -> "_ZNK6Common24KeyboardHardwareInputSet17findHardwareInputERKNS_5EventE"
 - func[3244] <_ZN6Common24KeyboardHardwareInputSet17normalizeKeyStateERKNS_8KeyStateE> -> "_ZN6Common24KeyboardHardwareInputSet17normalizeKeyStateERKNS_8KeyStateE"
 - func[3245] <_ZN6Common21MouseHardwareInputSetC2EPKNS_23HardwareInputTableEntryE> -> "_ZN6Common21MouseHardwareInputSetC2EPKNS_23HardwareInputTableEntryE"
 - global[4604] -> "_ZTVN6Common21MouseHardwareInputSetE"
 - func[3246] <_ZNK6Common21MouseHardwareInputSet17findHardwareInputERKNS_6StringE> -> "_ZNK6Common21MouseHardwareInputSet17findHardwareInputERKNS_6StringE"
 - func[3247] <_ZNK6Common21MouseHardwareInputSet17findHardwareInputERKNS_5EventE> -> "_ZNK6Common21MouseHardwareInputSet17findHardwareInputERKNS_5EventE"
 - func[3248] <_ZN6Common24JoystickHardwareInputSetC2EPKNS_23HardwareInputTableEntryEPKNS_14AxisTableEntryE> -> "_ZN6Common24JoystickHardwareInputSetC2EPKNS_23HardwareInputTableEntryEPKNS_14AxisTableEntryE"
 - global[4605] -> "_ZTVN6Common24JoystickHardwareInputSetE"
 - func[3249] <_ZNK6Common24JoystickHardwareInputSet17findHardwareInputERKNS_6StringE> -> "_ZNK6Common24JoystickHardwareInputSet17findHardwareInputERKNS_6StringE"
 - func[3250] <_ZNK6Common24JoystickHardwareInputSet17findHardwareInputERKNS_5EventE> -> "_ZNK6Common24JoystickHardwareInputSet17findHardwareInputERKNS_5EventE"
 - func[3251] <_ZN6Common22CustomHardwareInputSetC1EPKNS_23HardwareInputTableEntryE> -> "_ZN6Common22CustomHardwareInputSetC2EPKNS_23HardwareInputTableEntryE"
 - global[4606] -> "_ZTVN6Common22CustomHardwareInputSetE"
 - func[3252] <_ZNK6Common22CustomHardwareInputSet17findHardwareInputERKNS_6StringE> -> "_ZNK6Common22CustomHardwareInputSet17findHardwareInputERKNS_6StringE"
 - func[3253] <_ZNK6Common22CustomHardwareInputSet17findHardwareInputERKNS_5EventE> -> "_ZNK6Common22CustomHardwareInputSet17findHardwareInputERKNS_5EventE"
 - func[3254] <_ZN6Common25CompositeHardwareInputSetD1Ev> -> "_ZN6Common25CompositeHardwareInputSetD2Ev"
 - func[3255] <_ZN6Common25CompositeHardwareInputSetD0Ev> -> "_ZN6Common25CompositeHardwareInputSetD0Ev"
 - func[3254] <_ZN6Common25CompositeHardwareInputSetD1Ev> -> "_ZN6Common25CompositeHardwareInputSetD1Ev"
