"__Z12initGraphicsii"
"__Z12initGraphicsiiPKN8Graphics11PixelFormatE"
"__Z5errorPKcz"
"__Z7debugCNijPKcz"
"__Z7debugCNjPKcz"
"__Z7warningPKcz"
"__ZN10MetaEngine20getSavegameThumbnailERN8Graphics7SurfaceE"
"__ZN10MidiDriver10createMidiEj"
"__ZN10MidiDriver12detectDeviceEi"
"__ZN10MidiDriver12getErrorNameEi"
"__ZN10MidiParser13timerCallbackEPv"
"__ZN10MidiParser16createParser_SMFEa"
"__ZN10MidiParser7onTimerEv"
"__ZN10MidiParser8setTrackEi"
"__ZN12PluginObjectD2Ev"
"__ZN17TestbedMetaEngineD0Ev"
"__ZN18AdvancedMetaEngine14createInstanceEP7OSystemPP6Engine"
"__ZN3GUI10ListWidget10drawWidgetEv"
"__ZN3GUI10ListWidget10findWidgetEii"
"__ZN3GUI10ListWidget10wantsFocusEv"
"__ZN3GUI10ListWidget11endEditModeEv"
"__ZN3GUI10ListWidget11handleKeyUpEN6Common8KeyStateE"
"__ZN3GUI10ListWidget12handleTickleEv"
"__ZN3GUI10ListWidget12reflowLayoutEv"
"__ZN3GUI10ListWidget13abortEditModeEv"
"__ZN3GUI10ListWidget13getThemeColorENS_11ThemeEngine9FontColorE"
"__ZN3GUI10ListWidget13handleCommandEPNS_13CommandSenderEjj"
"__ZN3GUI10ListWidget13handleKeyDownEN6Common8KeyStateE"
"__ZN3GUI10ListWidget13handleMouseUpEiiii"
"__ZN3GUI10ListWidget13startEditModeEv"
"__ZN3GUI10ListWidget15handleMouseDownEiiii"
"__ZN3GUI10ListWidget15handleMouseLeftEi"
"__ZN3GUI10ListWidget15lostFocusWidgetEv"
"__ZN3GUI10ListWidget16handleMouseMovedEiii"
"__ZN3GUI10ListWidget16handleMouseWheelEiii"
"__ZN3GUI10ListWidget19receivedFocusWidgetEv"
"__ZN3GUI10ListWidget7setListERKN6Common5ArrayINS1_9U32StringEEE"
"__ZN3GUI10ListWidgetC1EPNS_6DialogEiiiiRKN6Common9U32StringEj"
"__ZN3GUI10ListWidgetC2EPNS_6DialogERKN6Common6StringERKNS3_9U32StringEj"
"__ZN3GUI10ListWidgetD2Ev"
"__ZN3GUI12ButtonWidget8setLabelERKN6Common6StringE"
"__ZN3GUI12ButtonWidgetC1EPNS_9GuiObjectERKN6Common6StringERKNS3_9U32StringES9_jhS9_"
"__ZN3GUI12ButtonWidgetC1EPNS_9GuiObjectEiiiiRKN6Common9U32StringES6_jhS6_"
"__ZN3GUI13CommandSender11sendCommandEjj"
"__ZN3GUI13MessageDialogC1ERKN6Common6StringES4_S4_N8Graphics9TextAlignEPKc"
"__ZN3GUI14EditableWidget13setEditStringERKN6Common9U32StringE"
"__ZN3GUI14EditableWidgetD2Ev"
"__ZN3GUI16StaticTextWidgetC1EPNS_9GuiObjectERKN6Common6StringERKNS3_9U32StringES9_NS_11ThemeEngine9FontStyleENS3_8LanguageEb"
"__ZN3GUI16StaticTextWidgetC1EPNS_9GuiObjectEiiiiRKN6Common9U32StringEN8Graphics9TextAlignES6_NS_11ThemeEngine9FontStyleENS3_8LanguageEb"
"__ZN3GUI6Dialog10drawDialogENS_9DrawLayerE"
"__ZN3GUI6Dialog11handleKeyUpEN6Common8KeyStateE"
"__ZN3GUI6Dialog12handleTickleEv"
"__ZN3GUI6Dialog12reflowLayoutEv"
"__ZN3GUI6Dialog12releaseFocusEv"
"__ZN3GUI6Dialog12removeWidgetEPNS_6WidgetE"
"__ZN3GUI6Dialog13handleCommandEPNS_13CommandSenderEjj"
"__ZN3GUI6Dialog13handleKeyDownEN6Common8KeyStateE"
"__ZN3GUI6Dialog13handleMouseUpEiiii"
"__ZN3GUI6Dialog13receivedFocusEii"
"__ZN3GUI6Dialog15handleMouseDownEiiii"
"__ZN3GUI6Dialog15handleMouseLeftEi"
"__ZN3GUI6Dialog16handleMouseMovedEiii"
"__ZN3GUI6Dialog16handleMouseWheelEiii"
"__ZN3GUI6Dialog16handleOtherEventERKN6Common5EventE"
"__ZN3GUI6Dialog4openEv"
"__ZN3GUI6Dialog5closeEv"
"__ZN3GUI6Dialog8runModalEv"
"__ZN3GUI6Dialog9lostFocusEv"
"__ZN3GUI6DialogC2ERKN6Common6StringE"
"__ZN3GUI6DialogC2Eiiii"
"__ZN3GUI6Widget10getMinSizeERiS1_"
"__ZN3GUI6Widget11markAsDirtyEv"
"__ZN3GUI6Widget12releaseFocusEv"
"__ZN3GUI6Widget18handleMouseEnteredEi"
"__ZN3GUI6Widget4drawEv"
"__ZN3GUI6Widget6setPosEii"
"__ZN3GUI6Widget7setSizeEii"
"__ZN3GUI9GuiObject12removeWidgetEPNS_6WidgetE"
"__ZN3GUI9GuiObject19setTextDrawableAreaERKN6Common4RectE"
"__ZN3GUI9GuiObject6resizeEiiiib"
"__ZN3GUI9GuiObject8addChildEPNS_6WidgetE"
"__ZN3GUI9GuiObject9isPointInEii"
"__ZN3GUI9GuiObjectD2Ev"
"__ZN5Audio18makeModXmS3mStreamEPN6Common18SeekableReadStreamEN15DisposeAfterUse4FlagEiii"
"__ZN5Audio9PCSpeaker4playENS0_8WaveFormEii"
"__ZN5Audio9PCSpeakerC1Ei"
"__ZN5Video12VideoDecoder5startEv"
"__ZN5Video16QuickTimeDecoderC1Ev"
"__ZN6Common10BaseStringIDiEC2ERKS1_"
"__ZN6Common10BaseStringIDiED2Ev"
"__ZN6Common10BaseStringIcE11toLowercaseEv"
"__ZN6Common10BaseStringIcE11toUppercaseEv"
"__ZN6Common10BaseStringIcEC2EPKc"
"__ZN6Common10BaseStringIcEC2ERKS1_"
"__ZN6Common10BaseStringIcED2Ev"
"__ZN6Common10MemoryPool13addPageToPoolERKNS0_4PageE"
"__ZN6Common10MemoryPoolC2Em"
"__ZN6Common11FSDirectory15getSubDirectoryERKNS_4PathEibb"
"__ZN6Common11FSDirectoryC1ERKNS_4PathEibbb"
"__ZN6Common11FSDirectoryD1Ev"
"__ZN6Common11WriteStream11writeStringERKNS_6StringE"
"__ZN6Common11WriteStream5flushEv"
"__ZN6Common11WriteStream8finalizeEv"
"__ZN6Common12DebugManager18enableDebugChannelERKNS_6StringE"
"__ZN6Common12DebugManagerC1Ev"
"__ZN6Common13ConfigManagerC1Ev"
"__ZN6Common13SearchManagerC1Ev"
"__ZN6Common13sortPartitionINS_12ListInternal8IteratorIN8Graphics11PixelFormatEEEN7Testbed21PixelFormatComparatorEEET_S8_S8_S8_RT0_"
"__ZN6Common19AchievementsManager10setStatIntERKNS_6StringEi"
"__ZN6Common19AchievementsManager14setAchievementERKNS_6StringE"
"__ZN6Common19AchievementsManager15setActiveDomainERKNS_16AchievementsInfoE"
"__ZN6Common19AchievementsManagerC1Ev"
"__ZN6Common24MemoryWriteStreamDynamic4seekExi"
"__ZN6Common24MemoryWriteStreamDynamic5writeEPKvj"
"__ZN6Common24MemoryWriteStreamDynamicD0Ev"
"__ZN6Common24MemoryWriteStreamDynamicD1Ev"
"__ZN6Common4File4openERKNS_4PathE"
"__ZN6Common4File5closeEv"
"__ZN6Common4FileC1Ev"
"__ZN6Common4FileD1Ev"
"__ZN6Common4ListINS_7INIFile7SectionEE5clearEv"
"__ZN6Common4PathC1EPKcc"
"__ZN6Common4PathC1ERKNS_6StringEc"
"__ZN6Common4sortINS_12ListInternal8IteratorIN8Graphics11PixelFormatEEEN7Testbed21PixelFormatComparatorEEEvT_S8_T0_"
"__ZN6Common5ArrayINS_9U32StringEE10insert_auxEPS1_PKS1_S5_"
"__ZN6Common5ArrayIPN3GUI12ButtonWidgetEE10insert_auxEPS3_PKS3_S7_"
"__ZN6Common5ArrayIPN7Testbed4TestEE10insert_auxEPS3_PKS3_S7_"
"__ZN6Common5ArrayIPN7Testbed9TestsuiteEE10insert_auxEPS3_PKS3_S7_"
"__ZN6Common5ErrorC1ENS_9ErrorCodeE"
"__ZN6Common5Mutex4lockEv"
"__ZN6Common5Mutex6unlockEv"
"__ZN6Common5MutexC1Ev"
"__ZN6Common5MutexD1Ev"
"__ZN6Common6FSNodeC1ERKNS_4PathE"
"__ZN6Common6Stream8clearErrEv"
"__ZN6Common6String6formatEPKcz"
"__ZN6Common6StringC1ERKNS_9U32StringENS_8CodePageE"
"__ZN6Common6StringaSEOS0_"
"__ZN6Common6StringaSEPKc"
"__ZN6Common6StringaSERKS0_"
"__ZN6Common6StringpLEPKc"
"__ZN6Common6StringpLEc"
"__ZN6Common7INIFile12saveToStreamERNS_11WriteStreamE"
"__ZN6Common7INIFile14loadFromStreamERNS_18SeekableReadStreamE"
"__ZN6Common7INIFile5clearEv"
"__ZN6Common7INIFile6setKeyERKNS_6StringES3_S3_"
"__ZN6Common7INIFile7SectionC2ERKS1_"
"__ZN6Common7INIFileC1Ev"
"__ZN6Common9SearchSet12addDirectoryERKNS_6StringERKNS_6FSNodeEiib"
"__ZN6Common9SearchSet25addSubDirectoriesMatchingERKNS_6FSNodeENS_6StringEbiib"
"__ZN6Common9SingletonIN7Testbed12ConfigParamsEE10_singletonE"
"__ZN6Common9SingletonIN8Graphics11FontManagerEE10_singletonE"
"__ZN6Common9SingletonIN8Graphics13CursorManagerEE10_singletonE"
"__ZN6Common9SingletonINS_12DebugManagerEE10_singletonE"
"__ZN6Common9SingletonINS_13ConfigManagerEE10_singletonE"
"__ZN6Common9SingletonINS_13SearchManagerEE10_singletonE"
"__ZN6Common9SingletonINS_19AchievementsManagerEE10_singletonE"
"__ZN6Common9U32String6formatEPKcz"
"__ZN6Common9U32StringC1EPKcNS_8CodePageE"
"__ZN6Common9U32StringC1ERKNS_6StringENS_8CodePageE"
"__ZN6Common9U32StringaSEOS0_"
"__ZN6Common9U32StringaSEPKc"
"__ZN6Common9U32StringaSERKNS_6StringE"
"__ZN6Common9U32StringaSERKS0_"
"__ZN6CommonplEPKcRKNS_6StringE"
"__ZN6CommonplERKNS_6StringEPKc"
"__ZN6CommonplERKNS_9U32StringES2_"
"__ZN6Engine10shouldQuitEv"
"__ZN6Engine11errorStringEPKcPci"
"__ZN6Engine11getDebuggerEv"
"__ZN6Engine13loadGameStateEi"
"__ZN6Engine13saveGameStateEiRKN6Common6StringEb"
"__ZN6Engine14initializePathERKN6Common6FSNodeE"
"__ZN6Engine14loadGameStreamEPN6Common18SeekableReadStreamE"
"__ZN6Engine14saveGameStreamEPN6Common11WriteStreamEb"
"__ZN6Engine17applyGameSettingsEv"
"__ZN6Engine17pauseEngineInternEb"
"__ZN6Engine17syncSoundSettingsEv"
"__ZN6Engine24canSaveAutosaveCurrentlyEv"
"__ZN6Engine25canLoadGameStateCurrentlyEv"
"__ZN6Engine25canSaveGameStateCurrentlyEv"
"__ZN6Engine8flipMuteEv"
"__ZN6Engine8quitGameEv"
"__ZN6Engine9runDialogERN3GUI6DialogE"
"__ZN6EngineC2EP7OSystem"
"__ZN6EngineD2Ev"
"__ZN7Testbed10EventTests11mouseEventsEv"
"__ZN7Testbed10EventTests12showMainMenuEv"
"__ZN7Testbed10EventTests9kbdEventsEv"
"__ZN7Testbed10keyCodeLUTE"
"__ZN7Testbed11FSTestSuite6enableEb"
"__ZN7Testbed11FSTestSuiteD0Ev"
"__ZN7Testbed12ConfigParamsD0Ev"
"__ZN7Testbed12ConfigParamsD2Ev"
"__ZN7Testbed12GFXTestSuite7prepareEv"
"__ZN7Testbed12GFXTestSuite8_paletteE"
"__ZN7Testbed12GFXTestSuiteD0Ev"
"__ZN7Testbed13MidiTestSuite6enableEb"
"__ZN7Testbed13MidiTestSuiteD0Ev"
"__ZN7Testbed13MiscTestSuiteD0Ev"
"__ZN7Testbed13SaveGametests17testErrorMessagesEv"
"__ZN7Testbed13SaveGametests17testSaveLoadStateEv"
"__ZN7Testbed13SaveGametests19testListingSavefileEv"
"__ZN7Testbed13SaveGametests20testRemovingSavefileEv"
"__ZN7Testbed13SaveGametests20testRenamingSavefileEv"
"__ZN7Testbed13TestbedEngine3runEv"
"__ZN7Testbed13TestbedEngineD0Ev"
"__ZN7Testbed13TestbedEngineD1Ev"
"__ZN7Testbed14EventTestSuiteD0Ev"
"__ZN7Testbed14SoundSubsystem11modPlaybackEv"
"__ZN7Testbed14SoundSubsystem11sampleRatesEv"
"__ZN7Testbed14SoundSubsystem13audiocdOutputEv"
"__ZN7Testbed14SoundSubsystem9mixSoundsEv"
"__ZN7Testbed14SoundSubsystem9playBeepsEv"
"__ZN7Testbed15Networkingtests19testConnectionLimitEv"
"__ZN7Testbed17SaveGameTestSuiteD0Ev"
"__ZN7Testbed17TestbedExitDialog13handleCommandEPN3GUI13CommandSenderEjj"
"__ZN7Testbed17TestbedExitDialogD0Ev"
"__ZN7Testbed17TestbedListWidget14markAsSelectedEi"
"__ZN7Testbed17TestbedListWidget16markAsDeselectedEi"
"__ZN7Testbed17TestbedListWidgetD0Ev"
"__ZN7Testbed17TestbedListWidgetD2Ev"
"__ZN7Testbed19NetworkingTestSuiteD0Ev"
"__ZN7Testbed20SoundSubsystemDialog13handleCommandEPN3GUI13CommandSenderEjj"
"__ZN7Testbed20SoundSubsystemDialogD0Ev"
"__ZN7Testbed20TestbedOptionsDialog13handleCommandEPN3GUI13CommandSenderEjj"
"__ZN7Testbed20TestbedOptionsDialogD0Ev"
"__ZN7Testbed20TestbedOptionsDialogD1Ev"
"__ZN7Testbed21PixelFormatComparatorclERKN8Graphics11PixelFormatES4_"
"__ZN7Testbed23SoundSubsystemTestSuiteD0Ev"
"__ZN7Testbed24TestbedInteractionDialog13handleCommandEPN3GUI13CommandSenderEjj"
"__ZN7Testbed24TestbedInteractionDialogD0Ev"
"__ZN7Testbed24TestbedInteractionDialogD2Ev"
"__ZN7Testbed5musicE"
"__ZN7Testbed7FStests12testReadFileEv"
"__ZN7Testbed7FStests13testCreateDirEv"
"__ZN7Testbed7FStests13testWriteFileEv"
"__ZN7Testbed8GFXtests11aspectRatioEv"
"__ZN7Testbed8GFXtests12cursorTrailsEv"
"__ZN7Testbed8GFXtests13filteringModeEv"
"__ZN7Testbed8GFXtests13iconifyWindowEv"
"__ZN7Testbed8GFXtests13scaledCursorsEv"
"__ZN7Testbed8GFXtests13shakingEffectEv"
"__ZN7Testbed8GFXtests14fullScreenModeEv"
"__ZN7Testbed8GFXtests14mouseMovementsEv"
"__ZN7Testbed8GFXtests15overlayGraphicsEv"
"__ZN7Testbed8GFXtests15paletteRotationEv"
"__ZN7Testbed8GFXtests16copyRectToScreenEv"
"__ZN7Testbed8GFXtests17palettizedCursorsEv"
"__ZN7Testbed8GFXtests20pixelFormatsRequiredEv"
"__ZN7Testbed8GFXtests21pixelFormatsSupportedEv"
"__ZN7Testbed9MidiTests13playMidiMusicEv"
"__ZN7Testbed9MiscTests10testTimersEv"
"__ZN7Testbed9MiscTests11testMutexesEv"
"__ZN7Testbed9MiscTests11testOpenUrlEv"
"__ZN7Testbed9MiscTests12testDateTimeEv"
"__ZN7Testbed9MiscTests13timerCallbackEPv"
"__ZN7Testbed9MiscTests15criticalSectionEPv"
"__ZN7Testbed9Testsuite27getDisplayRegionCoordinatesEv"
"__ZN7Testbed9Testsuite6enableEb"
"__ZN7Testbed9Testsuite7executeEv"
"__ZN7Testbed9Testsuite7prepareEv"
"__ZN7Testbed9TestsuiteD0Ev"
"__ZN7Testbed9TestsuiteD1Ev"
"__ZN7Testbed9TestsuiteD2Ev"
"__ZN8Graphics11FontManagerC1Ev"
"__ZN8Graphics13CursorManager13replaceCursorEPKvjjiijbPKNS_11PixelFormatE"
"__ZN8Graphics13CursorManager20disableCursorPaletteEb"
"__ZN8Graphics13CursorManager20replaceCursorPaletteEPKhjj"
"__ZN8Graphics13CursorManager9showMouseEb"
"__ZN8Graphics14ManagedSurface5clearEj"
"__ZN8Graphics14ManagedSurface8blitFromERKNS_7SurfaceE"
"__ZN8Graphics14ManagedSurface8blitFromERKS0_RKN6Common5PointE"
"__ZN8Graphics14ManagedSurfaceC1EiiRKNS_11PixelFormatE"
"__ZN8Graphics14ManagedSurfaceD1Ev"
"__ZN8Graphics7Surface4freeEv"
"__ZN8Graphics7Surface5hLineEiiij"
"__ZN8Graphics7Surface8drawLineEiiiij"
"__ZN8Graphics7Surface8fillRectEN6Common4RectEj"
"__ZN8Graphics7Surface9frameRectERKN6Common4RectEj"
"__ZNK10MetaEngine11initKeymapsEPKc"
"__ZNK10MetaEngine15getAutosaveSlotEv"
"__ZNK10MetaEngine15getSavegameFileEiPKc"
"__ZNK10MetaEngine15removeSaveStateEPKci"
"__ZNK10MetaEngine18getMaximumSaveSlotEv"
"__ZNK10MetaEngine18querySaveMetaInfosEPKci"
"__ZNK10MetaEngine23registerDefaultSettingsERKN6Common6StringE"
"__ZNK10MetaEngine24buildEngineOptionsWidgetEPN3GUI9GuiObjectERKN6Common6StringES6_"
"__ZNK10MetaEngine29getAchievementDescriptionListEv"
"__ZNK10MetaEngine9listSavesEPKc"
"__ZNK17TestbedMetaEngine10hasFeatureEN10MetaEngine17MetaEngineFeatureE"
"__ZNK17TestbedMetaEngine14createInstanceEP7OSystemPP6EnginePK17ADGameDescription"
"__ZNK17TestbedMetaEngine19getAchievementsInfoERKN6Common6StringE"
"__ZNK17TestbedMetaEngine7getNameEv"
"__ZNK18AdvancedMetaEngine18getExtraGuiOptionsERKN6Common6StringE"
"__ZNK18AdvancedMetaEngine20fallbackDetectExternEjRKN6Common7HashMapINS0_6StringENS0_6FSNodeENS0_15IgnoreCase_HashENS0_18IgnoreCase_EqualToEEERKNS0_6FSListEPP23ADDetectedGameExtraInfo"
"__ZNK18AdvancedMetaEngine26getAdvancedExtraGuiOptionsEv"
"__ZNK3GUI10ListWidget11getEditRectEv"
"__ZNK3GUI10ListWidget14containsWidgetEPNS_6WidgetE"
"__ZNK3GUI10ListWidget14getCaretOffsetEv"
"__ZNK3GUI14EditableWidget13getEditStringEv"
"__ZNK3GUI14EditableWidget13isCharAllowedEDi"
"__ZNK3GUI6Dialog9isVisibleEv"
"__ZNK3GUI6Widget7getAbsXEv"
"__ZNK3GUI6Widget7getAbsYEv"
"__ZNK3GUI6Widget9isVisibleEv"
"__ZNK3GUI9GuiObject11getClipRectEv"
"__ZNK3GUI9GuiObject7getAbsXEv"
"__ZNK3GUI9GuiObject7getAbsYEv"
"__ZNK3GUI9GuiObject7getRelXEv"
"__ZNK3GUI9GuiObject7getRelYEv"
"__ZNK3GUI9GuiObject8getWidthEv"
"__ZNK3GUI9GuiObject9getChildXEv"
"__ZNK3GUI9GuiObject9getChildYEv"
"__ZNK3GUI9GuiObject9getHeightEv"
"__ZNK5Video12VideoDecoder10endOfVideoEv"
"__ZNK5Video12VideoDecoder11needsUpdateEv"
"__ZNK5Video12VideoDecoder7getTimeEv"
"__ZNK6Common10BaseStringIcE6equalsEPKc"
"__ZNK6Common10BaseStringIcE6equalsERKS1_"
"__ZNK6Common10BaseStringIcEltERKS1_"
"__ZNK6Common11FSDirectory9getFSNodeEv"
"__ZNK6Common13ConfigManager3getERKNS_6StringE"
"__ZNK6Common13ConfigManager6hasKeyERKNS_6StringE"
"__ZNK6Common19AchievementsManager10getStatIntERKNS_6StringE"
"__ZNK6Common19AchievementsManager10isAchievedERKNS_6StringE"
"__ZNK6Common24MemoryWriteStreamDynamic3posEv"
"__ZNK6Common24MemoryWriteStreamDynamic4sizeEv"
"__ZNK6Common4File6isOpenEv"
"__ZNK6Common6FSNode11isDirectoryEv"
"__ZNK6Common6FSNode14getDisplayNameEv"
"__ZNK6Common6FSNode15createDirectoryEv"
"__ZNK6Common6FSNode16createReadStreamEv"
"__ZNK6Common6FSNode17createWriteStreamEv"
"__ZNK6Common6FSNode6existsEv"
"__ZNK6Common6FSNode7getNameEv"
"__ZNK6Common6FSNode8getChildERKNS_6StringE"
"__ZNK6Common6Stream3errEv"
"__ZNK6Common6String16equalsIgnoreCaseEPKc"
"__ZNK6Common6String16equalsIgnoreCaseERKS0_"
"__ZNK6Common6String8containsEPKc"
"__ZNK6Common7INIFile6getKeyERKNS_6StringES3_RS1_"
"__ZNK6Common7INIFile6hasKeyERKNS_6StringES3_"
"__ZNK6Common9U32String6encodeENS_8CodePageE"
"__ZNK6Engine15getAutosaveSlotEv"
"__ZNK6Engine16getSaveStateNameEi"
"__ZNK7Testbed11FSTestSuite14getDescriptionEv"
"__ZNK7Testbed11FSTestSuite7getNameEv"
"__ZNK7Testbed12GFXTestSuite14getDescriptionEv"
"__ZNK7Testbed12GFXTestSuite7getNameEv"
"__ZNK7Testbed13MidiTestSuite14getDescriptionEv"
"__ZNK7Testbed13MidiTestSuite7getNameEv"
"__ZNK7Testbed13MiscTestSuite14getDescriptionEv"
"__ZNK7Testbed13MiscTestSuite7getNameEv"
"__ZNK7Testbed13TestbedEngine10hasFeatureEN6Engine13EngineFeatureE"
"__ZNK7Testbed14EventTestSuite14getDescriptionEv"
"__ZNK7Testbed14EventTestSuite7getNameEv"
"__ZNK7Testbed17SaveGameTestSuite14getDescriptionEv"
"__ZNK7Testbed17SaveGameTestSuite7getNameEv"
"__ZNK7Testbed19NetworkingTestSuite14getDescriptionEv"
"__ZNK7Testbed19NetworkingTestSuite7getNameEv"
"__ZNK7Testbed23SoundSubsystemTestSuite14getDescriptionEv"
"__ZNK7Testbed23SoundSubsystemTestSuite7getNameEv"
"__ZNK8Graphics11FontManager14getFontByUsageENS0_9FontUsageE"
"__ZNK8Graphics11PixelFormat8toStringEv"
"__ZNK8Graphics4Font10drawStringEPNS_7SurfaceERKN6Common6StringEiiijNS_9TextAlignEib"
"__ZNK8Graphics7Surface9convertToERKNS_11PixelFormatEPKhiS5_iNS_12DitherMethodE"
"__ZTI17TestbedMetaEngine"
"__ZTI18AdvancedMetaEngine"
"__ZTI6Engine"
"__ZTIN3GUI10ListWidgetE"
"__ZTIN3GUI6DialogE"
"__ZTIN6Common11NonCopyableE"
"__ZTIN6Common11WriteStreamE"
"__ZTIN6Common19SeekableWriteStreamE"
"__ZTIN6Common24MemoryWriteStreamDynamicE"
"__ZTIN6Common6StreamE"
"__ZTIN6Common9SingletonIN7Testbed12ConfigParamsEEE"
"__ZTIN7Testbed11FSTestSuiteE"
"__ZTIN7Testbed12ConfigParamsE"
"__ZTIN7Testbed12GFXTestSuiteE"
"__ZTIN7Testbed13MidiTestSuiteE"
"__ZTIN7Testbed13MiscTestSuiteE"
"__ZTIN7Testbed13TestbedEngineE"
"__ZTIN7Testbed14EventTestSuiteE"
"__ZTIN7Testbed17SaveGameTestSuiteE"
"__ZTIN7Testbed17TestbedExitDialogE"
"__ZTIN7Testbed17TestbedListWidgetE"
"__ZTIN7Testbed19NetworkingTestSuiteE"
"__ZTIN7Testbed20SoundSubsystemDialogE"
"__ZTIN7Testbed20TestbedOptionsDialogE"
"__ZTIN7Testbed23SoundSubsystemTestSuiteE"
"__ZTIN7Testbed24TestbedInteractionDialogE"
"__ZTIN7Testbed9TestsuiteE"
"__ZTS17TestbedMetaEngine"
"__ZTSN6Common11NonCopyableE"
"__ZTSN6Common11WriteStreamE"
"__ZTSN6Common19SeekableWriteStreamE"
"__ZTSN6Common24MemoryWriteStreamDynamicE"
"__ZTSN6Common6StreamE"
"__ZTSN6Common9SingletonIN7Testbed12ConfigParamsEEE"
"__ZTSN7Testbed11FSTestSuiteE"
"__ZTSN7Testbed12ConfigParamsE"
"__ZTSN7Testbed12GFXTestSuiteE"
"__ZTSN7Testbed13MidiTestSuiteE"
"__ZTSN7Testbed13MiscTestSuiteE"
"__ZTSN7Testbed13TestbedEngineE"
"__ZTSN7Testbed14EventTestSuiteE"
"__ZTSN7Testbed17SaveGameTestSuiteE"
"__ZTSN7Testbed17TestbedExitDialogE"
"__ZTSN7Testbed17TestbedListWidgetE"
"__ZTSN7Testbed19NetworkingTestSuiteE"
"__ZTSN7Testbed20SoundSubsystemDialogE"
"__ZTSN7Testbed20TestbedOptionsDialogE"
"__ZTSN7Testbed23SoundSubsystemTestSuiteE"
"__ZTSN7Testbed24TestbedInteractionDialogE"
"__ZTSN7Testbed9TestsuiteE"
"__ZTV17TestbedMetaEngine"
"__ZTVN10__cxxabiv117__class_type_infoE"
"__ZTVN10__cxxabiv120__si_class_type_infoE"
"__ZTVN10__cxxabiv121__vmi_class_type_infoE"
"__ZTVN3GUI10ListWidgetE"
"__ZTVN6Common24MemoryWriteStreamDynamicE"
"__ZTVN6Common6FSNodeE"
"__ZTVN7Testbed11FSTestSuiteE"
"__ZTVN7Testbed12ConfigParamsE"
"__ZTVN7Testbed12GFXTestSuiteE"
"__ZTVN7Testbed13MidiTestSuiteE"
"__ZTVN7Testbed13MiscTestSuiteE"
"__ZTVN7Testbed13TestbedEngineE"
"__ZTVN7Testbed14EventTestSuiteE"
"__ZTVN7Testbed17SaveGameTestSuiteE"
"__ZTVN7Testbed17TestbedExitDialogE"
"__ZTVN7Testbed17TestbedListWidgetE"
"__ZTVN7Testbed19NetworkingTestSuiteE"
"__ZTVN7Testbed20SoundSubsystemDialogE"
"__ZTVN7Testbed20TestbedOptionsDialogE"
"__ZTVN7Testbed23SoundSubsystemTestSuiteE"
"__ZTVN7Testbed24TestbedInteractionDialogE"
"__ZTVN7Testbed9TestsuiteE"
"__ZTVN8Graphics13CursorManagerE"
"__ZThn212_N7Testbed17TestbedListWidgetD0Ev"
"__ZThn212_N7Testbed17TestbedListWidgetD1Ev"
"__ZdaPv"
"__ZdlPv"
"__Znam"
"__Znwm"
"___assert_fail"
"___asyncify_data"
"___asyncify_state"
"___cxa_pure_virtual"
"___memory_base"
"___stack_pointer"
"_cos"
"_free"
"_g_system"
"_main"
"_malloc"
"_memcpy"
"_memmove"
"_memset"
"_setTempRet0"
"_sin"
"_vsnprintf"